(dp0
I0
(dp1
S'pt_lis_UB'
p2
cnumpy.core.multiarray
_reconstruct
p3
(cnumpy
ndarray
p4
(I0
tp5
S'b'
p6
tp7
Rp8
(I1
(I1
tp9
cnumpy
dtype
p10
(S'f8'
p11
I0
I1
tp12
Rp13
(I3
S'<'
p14
NNNI-1
I-1
I0
tp15
bI00
S'\x00\x00\x00\x00\x00@\x8f@'
p16
tp17
bsS'pt_lis_LB'
p18
g3
(g4
(I0
tp19
g6
tp20
Rp21
(I1
(I1
tp22
g13
I00
S'\x00\x00\x00\x00\x00\x004@'
p23
tp24
bs(F20.0
F1000.0
tp25
(dp26
(F0.0
F2.5
tp27
(dp28
(F0.0
F1.0
tp29
(dp30
S'formula'
p31
S'0.850069+1.99726/sqrt(x) '
p32
ssS'disc_lis_LB'
p33
g3
(g4
(I0
tp34
g6
tp35
Rp36
(I1
(I1
tp37
g13
I00
S'\x00\x00\x00\x00\x00\x00\x00\x00'
p38
tp39
bsS'disc_lis_UB'
p40
g3
(g4
(I0
tp41
g6
tp42
Rp43
(I1
(I1
tp44
g13
I00
S'\x00\x00\x00\x00\x00\x00\xf0?'
p45
tp46
bssS'eta_lis_LB'
p47
g3
(g4
(I0
tp48
g6
tp49
Rp50
(I1
(I1
tp51
g13
I00
S'\x00\x00\x00\x00\x00\x00\x00\x00'
p52
tp53
bsS'eta_lis_UB'
p54
g3
(g4
(I0
tp55
g6
tp56
Rp57
(I1
(I1
tp58
g13
I00
S'\x00\x00\x00\x00\x00\x00\x04@'
p59
tp60
bsssI4
(dp61
g2
g3
(g4
(I0
tp62
g6
tp63
Rp64
(I1
(I1
tp65
g13
I00
S'\x00\x00\x00\x00\x00@\x8f@'
p66
tp67
bsg18
g3
(g4
(I0
tp68
g6
tp69
Rp70
(I1
(I1
tp71
g13
I00
S'\x00\x00\x00\x00\x00\x004@'
p72
tp73
bs(F20.0
F1000.0
tp74
(dp75
(F0.0
F2.5
tp76
(dp77
(F0.0
F1.0
tp78
(dp79
g31
S'1.28462+-0.0149198*log(x+19)*log(x+18)*(3-0.392618*log(x+18)) '
p80
ssg33
g3
(g4
(I0
tp81
g6
tp82
Rp83
(I1
(I1
tp84
g13
I00
S'\x00\x00\x00\x00\x00\x00\x00\x00'
p85
tp86
bsg40
g3
(g4
(I0
tp87
g6
tp88
Rp89
(I1
(I1
tp90
g13
I00
S'\x00\x00\x00\x00\x00\x00\xf0?'
p91
tp92
bssg47
g3
(g4
(I0
tp93
g6
tp94
Rp95
(I1
(I1
tp96
g13
I00
S'\x00\x00\x00\x00\x00\x00\x00\x00'
p97
tp98
bsg54
g3
(g4
(I0
tp99
g6
tp100
Rp101
(I1
(I1
tp102
g13
I00
S'\x00\x00\x00\x00\x00\x00\x04@'
p103
tp104
bsssI5
(dp105
g2
g3
(g4
(I0
tp106
g6
tp107
Rp108
(I1
(I1
tp109
g13
I00
S'\x00\x00\x00\x00\x00@\x8f@'
p110
tp111
bsg18
g3
(g4
(I0
tp112
g6
tp113
Rp114
(I1
(I1
tp115
g13
I00
S'\x00\x00\x00\x00\x00\x004@'
p116
tp117
bs(F20.0
F1000.0
tp118
(dp119
(F0.0
F2.5
tp120
(dp121
(F0.0
F1.0
tp122
(dp123
g31
g80
ssg33
g3
(g4
(I0
tp124
g6
tp125
Rp126
(I1
(I1
tp127
g13
I00
S'\x00\x00\x00\x00\x00\x00\x00\x00'
p128
tp129
bsg40
g3
(g4
(I0
tp130
g6
tp131
Rp132
(I1
(I1
tp133
g13
I00
S'\x00\x00\x00\x00\x00\x00\xf0?'
p134
tp135
bssg47
g3
(g4
(I0
tp136
g6
tp137
Rp138
(I1
(I1
tp139
g13
I00
S'\x00\x00\x00\x00\x00\x00\x00\x00'
p140
tp141
bsg54
g3
(g4
(I0
tp142
g6
tp143
Rp144
(I1
(I1
tp145
g13
I00
S'\x00\x00\x00\x00\x00\x00\x04@'
p146
tp147
bsss.