(dp0
I0
(dp1
(F70.0
F100.0
tp2
(dp3
(F0.0
F2.5
tp4
(dp5
S'disc_lis_LB'
p6
cnumpy.core.multiarray
_reconstruct
p7
(cnumpy
ndarray
p8
(I0
tp9
S'b'
p10
tp11
Rp12
(I1
(I17
tp13
cnumpy
dtype
p14
(S'f8'
p15
I0
I1
tp16
Rp17
(I3
S'<'
p18
NNNI-1
I-1
I0
tp19
bI00
S'\x00\x00\x00\x00\x00\x00.\xc0\x00\x00\x00\x00\x00\x00\x00\x00\xf4\xfd\xd4x\xe9&\xb1?\xca\xa1E\xb6\xf3\xfd\xc4?\xcb\xa1E\xb6\xf3\xfd\xcc?\xb8\x1e\x85\xebQ\xb8\xd2?5^\xbaI\x0c\x02\xd7?\xb2\x9d\xef\xa7\xc6K\xdb?/\xdd$\x06\x81\x95\xdf?V\x0e-\xb2\x9d\xef\xe1?\x14\xaeG\xe1z\x14\xe4?\xfe\xd4x\xe9&1\xe6?=\n\xd7\xa3p=\xe8?i\x91\xed|?5\xea?\x14\xaeG\xe1z\x14\xec?m\xe7\xfb\xa9\xf1\xd2\xed?\xb1rh\x91\xed|\xef?'
p20
tp21
bsS'disc_lis_UB'
p22
g7
(g8
(I0
tp23
g10
tp24
Rp25
(I1
(I17
tp26
g17
I00
S'\x00\x00\x00\x00\x00\x00\x00\x00\xf4\xfd\xd4x\xe9&\xb1?\xca\xa1E\xb6\xf3\xfd\xc4?\xcb\xa1E\xb6\xf3\xfd\xcc?\xb8\x1e\x85\xebQ\xb8\xd2?5^\xbaI\x0c\x02\xd7?\xb2\x9d\xef\xa7\xc6K\xdb?/\xdd$\x06\x81\x95\xdf?V\x0e-\xb2\x9d\xef\xe1?\x14\xaeG\xe1z\x14\xe4?\xfe\xd4x\xe9&1\xe6?=\n\xd7\xa3p=\xe8?i\x91\xed|?5\xea?\x14\xaeG\xe1z\x14\xec?m\xe7\xfb\xa9\xf1\xd2\xed?\xb1rh\x91\xed|\xef?\x9a\x99\x99\x99\x99\x99\xf1?'
p27
tp28
bs(F0.067
F0.16399999999999998
tp29
(dp30
S'formula'
p31
S' 36.0409763522*(x-0.067)*(x-0.067)*(x-0.067)-10.5042747755*(x-0.067)*(x-0.067)+0.0*(x-0.067)+1.2708632946014404'
p32
ss(F0.6275
F0.6935
tp33
(dp34
g31
S' -222.807957274*(x-0.6275)*(x-0.6275)*(x-0.6275)+22.0579877701*(x-0.6275)*(x-0.6275)+0.0*(x-0.6275)+1.0058649778366089'
p35
ss(F0.6935
F0.7575
tp36
(dp37
g31
S' 454.117980553*(x-0.6935)*(x-0.6935)*(x-0.6935)-43.5953261331*(x-0.6935)*(x-0.6935)+0.0*(x-0.6935)+1.0378931760787964'
p38
ss(F0.9840000000000001
F1.1
tp39
(dp40
g31
S' 0.894404172897'
p41
ss(F-15.0
F0.0
tp42
(dp43
g31
S' 0.0'
p44
ss(F0.8775
F0.932
tp45
(dp46
g31
S' -673.311392201*(x-0.8775)*(x-0.8775)*(x-0.8775)+55.0432063124*(x-0.8775)*(x-0.8775)+0.0*(x-0.8775)+0.9336549043655396'
p47
ss(F0.3595
F0.4265
tp48
(dp49
g31
S' 15.0296482909*(x-0.3595)*(x-0.3595)*(x-0.3595)+0.860593570701*(x-0.3595)*(x-0.3595)-0.317723812008*(x-0.3595)+1.0288772583007812'
p50
ss(F0.16399999999999998
F0.2265
tp51
(dp52
g31
S' 641.303793998*(x-0.164)*(x-0.164)*(x-0.164)-52.5892308482*(x-0.164)*(x-0.164)-1.02050066695*(x-0.164)+1.2049221992492676'
p53
ss(F0.2925
F0.3595
tp54
(dp55
g31
S' 316.298335514*(x-0.2925)*(x-0.2925)*(x-0.2925)-33.5890840185*(x-0.2925)*(x-0.2925)-0.0763762378879*(x-0.2925)+1.0896450281143188'
p56
ss(F0.4935
F0.5605
tp57
(dp58
g31
S' -546.648798895*(x-0.4935)*(x-0.4935)*(x-0.4935)+54.9186269879*(x-0.4935)*(x-0.4935)+0.00262335834482*(x-0.4935)+1.0160613059997559'
p59
ss(F0.2265
F0.2925
tp60
(dp61
g31
S' -17.2928179318*(x-0.2265)*(x-0.2265)*(x-0.2265)+1.73092419627*(x-0.2265)*(x-0.2265)-0.0788756870627*(x-0.2265)+1.0922825336456299'
p62
ss(F0.932
F0.9840000000000001
tp63
(dp64
g31
S' 160.630504836*(x-0.932)*(x-0.932)*(x-0.932)-43.0229388592*(x-0.932)*(x-0.932)+0.0*(x-0.932)+0.988152265548706'
p65
ss(F0.7575
F0.8190000000000001
tp66
(dp67
g31
S' -233.152880273*(x-0.7575)*(x-0.7575)*(x-0.7575)+21.5083532052*(x-0.7575)*(x-0.7575)+0.0*(x-0.7575)+0.9783710241317749'
p68
ss(F0.4265
F0.4935
tp69
(dp70
g31
S' -0.000624751959549*(x-0.4265)*(x-0.4265)*(x-0.4265)+0.0196400886527*(x-0.4265)*(x-0.4265)+0.0*(x-0.4265)+1.0159733295440674'
p71
ss(F0.0
F0.067
tp72
(dp73
g31
S' 1.2708632946'
p74
ss(F0.8190000000000001
F0.8775
tp75
(dp76
g31
S' 717.604325835*(x-0.819)*(x-0.819)*(x-0.819)-62.9697795921*(x-0.819)*(x-0.819)+0.0*(x-0.819)+1.0054876804351807'
p77
ss(F0.5605
F0.6275
tp78
(dp79
g31
S' 615.036271208*(x-0.5605)*(x-0.5605)*(x-0.5605)-61.8111452565*(x-0.5605)*(x-0.5605)+0.0*(x-0.5605)+1.0983550548553467'
p80
sssS'eta_lis_LB'
p81
g7
(g8
(I0
tp82
g10
tp83
Rp84
(I1
(I1
tp85
g17
I00
S'\x00\x00\x00\x00\x00\x00\x00\x00'
p86
tp87
bsS'eta_lis_UB'
p88
g7
(g8
(I0
tp89
g10
tp90
Rp91
(I1
(I1
tp92
g17
I00
S'\x00\x00\x00\x00\x00\x00\x04@'
p93
tp94
bss(F20.0
F30.0
tp95
(dp96
(F0.0
F2.5
tp97
(dp98
g6
g7
(g8
(I0
tp99
g10
tp100
Rp101
(I1
(I17
tp102
g17
I00
S'\x00\x00\x00\x00\x00\x00.\xc0\x00\x00\x00\x00\x00\x00\x00\x00)\\\x8f\xc2\xf5(\xac?\xa0\x1a/\xdd$\x06\xc1?\xb0rh\x91\xed|\xc7?b\x10X9\xb4\xc8\xce?\\\x8f\xc2\xf5(\\\xd3?/\xdd$\x06\x81\x95\xd7?\xac\x1cZd;\xdf\xdb?\x14\xaeG\xe1z\x14\xe0?\xd3Mb\x10X9\xe2?\x91\xed|?5^\xe4?\xe5\xd0"\xdb\xf9~\xe6?\xcf\xf7S\xe3\xa5\x9b\xe8?\xb8\x1e\x85\xebQ\xb8\xea?\xa1E\xb6\xf3\xfd\xd4\xec?\xb4\xc8v\xbe\x9f\x1a\xef?'
p103
tp104
bs(F0.4355
F0.5025
tp105
(dp106
g31
S' -67.1336684627*(x-0.4355)*(x-0.4355)*(x-0.4355)+6.23389484568*(x-0.4355)*(x-0.4355)-0.349915422616*(x-0.4355)+1.0019923448562622'
p107
ss(F0.769
F0.835
tp108
(dp109
g31
S' -63.1451626292*(x-0.769)*(x-0.769)*(x-0.769)+4.7613184157*(x-0.769)*(x-0.769)+0.196686954367*(x-0.769)+0.88062983751297'
p110
ss(F0.1835
F0.2405
tp111
(dp112
g31
S' -1407.33816663*(x-0.1835)*(x-0.1835)*(x-0.1835)+120.327413247*(x-0.1835)*(x-0.1835)+0.0*(x-0.1835)+0.9912443161010742'
p113
ssg22
g7
(g8
(I0
tp114
g10
tp115
Rp116
(I1
(I17
tp117
g17
I00
S'\x00\x00\x00\x00\x00\x00\x00\x00)\\\x8f\xc2\xf5(\xac?\xa0\x1a/\xdd$\x06\xc1?\xb0rh\x91\xed|\xc7?b\x10X9\xb4\xc8\xce?\\\x8f\xc2\xf5(\\\xd3?/\xdd$\x06\x81\x95\xd7?\xac\x1cZd;\xdf\xdb?\x14\xaeG\xe1z\x14\xe0?\xd3Mb\x10X9\xe2?\x91\xed|?5^\xe4?\xe5\xd0"\xdb\xf9~\xe6?\xcf\xf7S\xe3\xa5\x9b\xe8?\xb8\x1e\x85\xebQ\xb8\xea?\xa1E\xb6\xf3\xfd\xd4\xec?\xb4\xc8v\xbe\x9f\x1a\xef?\x9a\x99\x99\x99\x99\x99\xf1?'
p118
tp119
bs(F0.3685
F0.4355
tp120
(dp121
g31
S' 187.96687689*(x-0.3685)*(x-0.3685)*(x-0.3685)-20.0090962092*(x-0.3685)*(x-0.3685)-0.200046461647*(x-0.3685)+1.0486828088760376'
p122
ss(F-15.0
F0.0
tp123
(dp124
g31
g44
ss(F0.835
F0.9009999999999999
tp125
(dp126
g31
S' 51.9055773465*(x-0.835)*(x-0.835)*(x-0.835)-7.77124226922*(x-0.835)*(x-0.835)+0.0*(x-0.835)+0.896197497844696'
p127
ss(F0.972
F1.1
tp128
(dp129
g31
S' 0.845763862133'
p130
ss(F0.703
F0.769
tp131
(dp132
g31
S' -32.2875641963*(x-0.703)*(x-0.703)*(x-0.703)+4.68652154003*(x-0.703)*(x-0.703)+0.0*(x-0.703)+0.8694978952407837'
p133
ss(F0.6365
F0.703
tp134
(dp135
g31
S' 239.268931407*(x-0.6365)*(x-0.6365)*(x-0.6365)-23.8670759079*(x-0.6365)*(x-0.6365)+0.0*(x-0.6365)+0.9046799540519714'
p136
ss(F0.0
F0.055
tp137
(dp138
g31
S' 1.1864118576'
p139
ss(F0.5695
F0.6365
tp140
(dp141
g31
S' -354.448298955*(x-0.5695)*(x-0.5695)*(x-0.5695)+35.622054045*(x-0.5695)*(x-0.5695)+0.0*(x-0.5695)+0.8513774871826172'
p142
ss(F0.133
F0.1835
tp143
(dp144
g31
S' 3539.49357946*(x-0.133)*(x-0.133)*(x-0.133)-268.116638644*(x-0.133)*(x-0.133)+0.0*(x-0.133)+1.2191658020019531'
p145
ss(F0.5025
F0.5695
tp146
(dp147
g31
S' 804.207677179*(x-0.5025)*(x-0.5025)*(x-0.5025)-77.6985235976*(x-0.5025)*(x-0.5025)-0.418662626482*(x-0.5025)+0.9863406419754028'
p148
ss(F0.2405
F0.3025
tp149
(dp150
g31
S' 491.495825021*(x-0.2405)*(x-0.2405)*(x-0.2405)-47.4217963734*(x-0.2405)*(x-0.2405)+0.0*(x-0.2405)+1.1215589046478271'
p151
ss(F0.3025
F0.3685
tp152
(dp153
g31
S' -40.9460396667*(x-0.3025)*(x-0.3025)*(x-0.3025)+4.1470400067*(x-0.3025)*(x-0.3025)-0.212372896167*(x-0.3025)+1.0564067363739014'
p154
ss(F0.9009999999999999
F0.972
tp155
(dp156
g31
S' 2.95567328656*(x-0.901)*(x-0.901)*(x-0.901)-1.56516240916*(x-0.901)*(x-0.901)-0.347501894772*(x-0.901)+0.8772686123847961'
p157
ss(F0.055
F0.133
tp158
(dp159
g31
S' 69.0207698987*(x-0.055)*(x-0.055)*(x-0.055)-16.1508601563*(x-0.055)*(x-0.055)+1.25976709219*(x-0.055)+1.1864118576049805'
p160
sssg81
g7
(g8
(I0
tp161
g10
tp162
Rp163
(I1
(I1
tp164
g17
I00
S'\x00\x00\x00\x00\x00\x00\x00\x00'
p165
tp166
bsg88
g7
(g8
(I0
tp167
g10
tp168
Rp169
(I1
(I1
tp170
g17
I00
S'\x00\x00\x00\x00\x00\x00\x04@'
p171
tp172
bss(F100.0
F10000.0
tp173
(dp174
(F0.0
F2.5
tp175
(dp176
(F0.3615
F0.4285
tp177
(dp178
g31
S' 21.7814119735*(x-0.3615)*(x-0.3615)*(x-0.3615)-1.36153662436*(x-0.3615)*(x-0.3615)+0.373629529264*(x-0.3615)+1.020369529724121'
p179
ssg6
g7
(g8
(I0
tp180
g10
tp181
Rp182
(I1
(I17
tp183
g17
I00
S'\x00\x00\x00\x00\x00\x00.\xc0\x00\x00\x00\x00\x00\x00\x00\x00\xf0\xa7\xc6K7\x89\xb1?\x1dZd;\xdfO\xc5?\xc7K7\x89A`\xcd?\xb6\xf3\xfd\xd4x\xe9\xd2?\x89A`\xe5\xd0"\xd7?\x06\x81\x95C\x8bl\xdb?\x83\xc0\xca\xa1E\xb6\xdf?\x96C\x8bl\xe7\xfb\xe1?\x7fj\xbct\x93\x18\xe4?\x93\x18\x04V\x0e-\xe6?\xfd\xd4x\xe9&1\xe8?\xbf\x9f\x1a/\xdd$\xea?j\xbct\x93\x18\x04\xec?\xc3\xf5(\\\x8f\xc2\xed?\xdb\xf9~j\xbct\xef?'
p184
tp185
bs(F0.0685
F0.1665
tp186
(dp187
g31
S' 38.0482376035*(x-0.0685)*(x-0.0685)*(x-0.0685)+7.86969975087*(x-0.0685)*(x-0.0685)-3.73446928448*(x-0.0685)+1.4154859781265259'
p188
ss(F0.0
F0.0685
tp189
(dp190
g31
S' 1.41548597813'
p191
ss(F0.2295
F0.2955
tp192
(dp193
g31
S' 588.35651042*(x-0.2295)*(x-0.2295)*(x-0.2295)-50.4010223627*(x-0.2295)*(x-0.2295)-1.03570792629*(x-0.2295)+1.1148792505264282'
p194
ssg22
g7
(g8
(I0
tp195
g10
tp196
Rp197
(I1
(I17
tp198
g17
I00
S'\x00\x00\x00\x00\x00\x00\x00\x00\xf0\xa7\xc6K7\x89\xb1?\x1dZd;\xdfO\xc5?\xc7K7\x89A`\xcd?\xb6\xf3\xfd\xd4x\xe9\xd2?\x89A`\xe5\xd0"\xd7?\x06\x81\x95C\x8bl\xdb?\x83\xc0\xca\xa1E\xb6\xdf?\x96C\x8bl\xe7\xfb\xe1?\x7fj\xbct\x93\x18\xe4?\x93\x18\x04V\x0e-\xe6?\xfd\xd4x\xe9&1\xe8?\xbf\x9f\x1a/\xdd$\xea?j\xbct\x93\x18\x04\xec?\xc3\xf5(\\\x8f\xc2\xed?\xdb\xf9~j\xbct\xef?\x9a\x99\x99\x99\x99\x99\xf1?'
p199
tp200
bs(F0.93
F0.983
tp201
(dp202
g31
S' 3.012582063*(x-0.93)*(x-0.93)*(x-0.93)+1.20184624689*(x-0.93)*(x-0.93)-0.714852337163*(x-0.93)+0.9300898909568787'
p203
ss(F0.628
F0.693
tp204
(dp205
g31
S' 36.1893293431*(x-0.628)*(x-0.628)*(x-0.628)-5.94249519554*(x-0.628)*(x-0.628)+0.0*(x-0.628)+1.0128579139709473'
p206
ss(F-15.0
F0.0
tp207
(dp208
g31
g44
ss(F0.4285
F0.4955
tp209
(dp210
g31
S' -189.576944609*(x-0.4285)*(x-0.4285)*(x-0.4285)+15.4367075851*(x-0.4285)*(x-0.4285)+0.484513896647*(x-0.4285)+1.0458418130874634'
p211
ss(F0.4955
F0.562
tp212
(dp213
g31
S' 749.318574549*(x-0.4955)*(x-0.4955)*(x-0.4955)-74.7445278113*(x-0.4955)*(x-0.4955)+0.0*(x-0.4955)+1.0905818939208984'
p214
ss(F0.8755
F0.93
tp215
(dp216
g31
S' 231.880763581*(x-0.8755)*(x-0.8755)*(x-0.8755)-23.5985509359*(x-0.8755)*(x-0.8755)-0.208841799232*(x-0.8755)+0.9740288257598877'
p217
ss(F0.7559999999999999
F0.8170000000000001
tp218
(dp219
g31
S' -117.172583285*(x-0.756)*(x-0.756)*(x-0.756)+10.7212913706*(x-0.756)*(x-0.756)+0.0*(x-0.756)+0.9676777720451355'
p220
ss(F0.562
F0.628
tp221
(dp222
g31
S' -225.781803952*(x-0.562)*(x-0.562)*(x-0.562)+22.3523985913*(x-0.562)*(x-0.562)+0.0*(x-0.562)+0.9804022312164307'
p223
ss(F0.8170000000000001
F0.8755
tp224
(dp225
g31
S' 8.37454462252*(x-0.817)*(x-0.817)*(x-0.817)-2.51983893364*(x-0.817)*(x-0.817)+0.0*(x-0.817)+0.9809757471084595'
p226
ss(F0.693
F0.7559999999999999
tp227
(dp228
g31
S' 160.97868462*(x-0.693)*(x-0.693)*(x-0.693)-12.7218140617*(x-0.693)*(x-0.693)-0.313824625996*(x-0.693)+0.9976893663406372'
p229
ss(F0.983
F1.1
tp230
(dp231
g31
S' 0.896027207375'
p232
ss(F0.1665
F0.2295
tp233
(dp234
g31
S' -168.938491678*(x-0.1665)*(x-0.1665)*(x-0.1665)+16.4413095682*(x-0.1665)*(x-0.1665)-1.09576231147*(x-0.1665)+1.16089928150177'
p235
ss(F0.2955
F0.3615
tp236
(dp237
g31
S' -82.8807215371*(x-0.2955)*(x-0.2955)*(x-0.2955)+11.035718169*(x-0.2955)*(x-0.2955)+0.0*(x-0.2955)+0.9961258172988892'
p238
sssg81
g7
(g8
(I0
tp239
g10
tp240
Rp241
(I1
(I1
tp242
g17
I00
S'\x00\x00\x00\x00\x00\x00\x00\x00'
p243
tp244
bsg88
g7
(g8
(I0
tp245
g10
tp246
Rp247
(I1
(I1
tp248
g17
I00
S'\x00\x00\x00\x00\x00\x00\x04@'
p249
tp250
bss(F50.0
F70.0
tp251
(dp252
(F0.0
F2.5
tp253
(dp254
g6
g7
(g8
(I0
tp255
g10
tp256
Rp257
(I1
(I17
tp258
g17
I00
S'\x00\x00\x00\x00\x00\x00.\xc0\x00\x00\x00\x00\x00\x00\x00\x00H\xe1z\x14\xaeG\xb1?#\xdb\xf9~j\xbc\xc4?}?5^\xbaI\xcc?\xe8\xfb\xa9\xf1\xd2M\xd2?\x11X9\xb4\xc8v\xd6?:\xb4\xc8v\xbe\x9f\xda?\xe1z\x14\xaeG\xe1\xde?\xc4 \xb0rh\x91\xe1?\xaeG\xe1z\x14\xae\xe3?-\xb2\x9d\xef\xa7\xc6\xe5?m\xe7\xfb\xa9\xf1\xd2\xe7?\x02+\x87\x16\xd9\xce\xe9?\xee|?5^\xba\xeb?Zd;\xdfO\x8d\xed?\xc7K7\x89A`\xef?'
p259
tp260
bs(F0.9235
F0.9805
tp261
(dp262
g31
S' 18.8721988521*(x-0.9235)*(x-0.9235)*(x-0.9235)+2.91642260684*(x-0.9235)*(x-0.9235)-1.29958218107*(x-0.9235)+0.9520739912986755'
p263
ss(F0.5489999999999999
F0.615
tp264
(dp265
g31
S' 104.414330728*(x-0.549)*(x-0.549)*(x-0.549)-6.51691829795*(x-0.549)*(x-0.549)-0.504253258619*(x-0.549)+1.0042502880096436'
p266
ss(F0.7445
F0.8065
tp267
(dp268
g31
S' 114.904497832*(x-0.7445)*(x-0.7445)*(x-0.7445)-4.85975942568*(x-0.7445)*(x-0.7445)-0.722468500209*(x-0.7445)+1.0192686319351196'
p269
ss(F0.615
F0.6805
tp270
(dp271
g31
S' -767.293258306*(x-0.615)*(x-0.615)*(x-0.615)+75.3865626286*(x-0.615)*(x-0.615)+0.0*(x-0.615)+0.9726005792617798'
p272
ssg22
g7
(g8
(I0
tp273
g10
tp274
Rp275
(I1
(I17
tp276
g17
I00
S'\x00\x00\x00\x00\x00\x00\x00\x00H\xe1z\x14\xaeG\xb1?#\xdb\xf9~j\xbc\xc4?}?5^\xbaI\xcc?\xe8\xfb\xa9\xf1\xd2M\xd2?\x11X9\xb4\xc8v\xd6?:\xb4\xc8v\xbe\x9f\xda?\xe1z\x14\xaeG\xe1\xde?\xc4 \xb0rh\x91\xe1?\xaeG\xe1z\x14\xae\xe3?-\xb2\x9d\xef\xa7\xc6\xe5?m\xe7\xfb\xa9\xf1\xd2\xe7?\x02+\x87\x16\xd9\xce\xe9?\xee|?5^\xba\xeb?Zd;\xdfO\x8d\xed?\xc7K7\x89A`\xef?\x9a\x99\x99\x99\x99\x99\xf1?'
p277
tp278
bs(F0.162
F0.221
tp279
(dp280
g31
S' 1688.99766451*(x-0.162)*(x-0.162)*(x-0.162)-140.597347781*(x-0.162)*(x-0.162)-1.04771557237*(x-0.162)+1.1740156412124634'
p281
ss(F0.221
F0.28600000000000003
tp282
(dp283
g31
S' -1086.65870871*(x-0.221)*(x-0.221)*(x-0.221)+105.9492241*(x-0.221)*(x-0.221)+0.0*(x-0.221)+0.9696657061576843'
p284
ss(F-15.0
F0.0
tp285
(dp286
g31
g44
ss(F0.4825
F0.5489999999999999
tp287
(dp288
g31
S' 44.0956791488*(x-0.4825)*(x-0.4825)*(x-0.4825)-5.45163711382*(x-0.4825)*(x-0.4825)-0.364191873828*(x-0.4825)+1.0396099090576172'
p289
ss(F0.0
F0.0675
tp290
(dp291
g31
S' 1.22859537601'
p292
ss(F0.41600000000000004
F0.4825
tp293
(dp294
g31
S' -44.6844922998*(x-0.416)*(x-0.416)*(x-0.416)+4.63092846016*(x-0.416)*(x-0.416)-0.387287370811*(x-0.416)+1.0580261945724487'
p295
ss(F0.35100000000000003
F0.41600000000000004
tp296
(dp297
g31
S' 115.849407768*(x-0.351)*(x-0.351)*(x-0.351)-11.1629740669*(x-0.351)*(x-0.351)-0.404491985572*(x-0.351)+1.0996665954589844'
p298
ss(F0.8665
F0.9235
tp299
(dp300
g31
S' 615.558326462*(x-0.8665)*(x-0.8665)*(x-0.8665)-64.0300806061*(x-0.8665)*(x-0.8665)+0.0*(x-0.8665)+1.0461106300354004'
p301
ss(F0.9805
F1.1
tp302
(dp303
g31
S' 0.890968263149'
p304
ss(F0.0675
F0.162
tp305
(dp306
g31
S' 12.0277808691*(x-0.0675)*(x-0.0675)*(x-0.0675)-7.2484065751*(x-0.0675)*(x-0.0675)+0.0*(x-0.0675)+1.2285953760147095'
p307
ss(F0.6805
F0.7445
tp308
(dp309
g31
S' 290.085007419*(x-0.6805)*(x-0.6805)*(x-0.6805)-33.4924458701*(x-0.6805)*(x-0.6805)+0.0*(x-0.6805)+1.0804096460342407'
p310
ss(F0.28600000000000003
F0.35100000000000003
tp311
(dp312
g31
S' 44.1689220419*(x-0.286)*(x-0.286)*(x-0.286)-7.41794671118*(x-0.286)*(x-0.286)+0.0*(x-0.286)+1.1188775300979614'
p313
ss(F0.8065
F0.8665
tp314
(dp315
g31
S' -582.694455429*(x-0.8065)*(x-0.8065)*(x-0.8065)+52.4425009886*(x-0.8065)*(x-0.8065)+0.0*(x-0.8065)+0.9831796288490295'
p316
sssg81
g7
(g8
(I0
tp317
g10
tp318
Rp319
(I1
(I1
tp320
g17
I00
S'\x00\x00\x00\x00\x00\x00\x00\x00'
p321
tp322
bsg88
g7
(g8
(I0
tp323
g10
tp324
Rp325
(I1
(I1
tp326
g17
I00
S'\x00\x00\x00\x00\x00\x00\x04@'
p327
tp328
bssS'pt_lis_UB'
p329
g7
(g8
(I0
tp330
g10
tp331
Rp332
(I1
(I5
tp333
g17
I00
S'\x00\x00\x00\x00\x00\x00>@\x00\x00\x00\x00\x00\x00I@\x00\x00\x00\x00\x00\x80Q@\x00\x00\x00\x00\x00\x00Y@\x00\x00\x00\x00\x00\x88\xc3@'
p334
tp335
bs(F30.0
F50.0
tp336
(dp337
(F0.0
F2.5
tp338
(dp339
g6
g7
(g8
(I0
tp340
g10
tp341
Rp342
(I1
(I17
tp343
g17
I00
S'\x00\x00\x00\x00\x00\x00.\xc0\x00\x00\x00\x00\x00\x00\x00\x00\xfc\xa9\xf1\xd2Mb\xb0?\xdfO\x8d\x97n\x12\xc3?H\xe1z\x14\xaeG\xc9?}?5^\xbaI\xd0?\x7fj\xbct\x93\x18\xd4?\x7fj\xbct\x93\x18\xd8?\xa8\xc6K7\x89A\xdc?\xd3Mb\x10X9\xe0?\'1\x08\xac\x1cZ\xe2?\xe5\xd0"\xdb\xf9~\xe4?:\xb4\xc8v\xbe\x9f\xe6?#\xdb\xf9~j\xbc\xe8?\r\x02+\x87\x16\xd9\xea?\x8bl\xe7\xfb\xa9\xf1\xec?\xf4\xfd\xd4x\xe9&\xef?'
p344
tp345
bs(F0.3765
F0.4415
tp346
(dp347
g31
S' -0.000517231651884*(x-0.3765)*(x-0.3765)*(x-0.3765)+0.00714385460572*(x-0.3765)*(x-0.3765)+0.0*(x-0.3765)+1.0262528657913208'
p348
ss(F0.8390000000000001
F0.9045
tp349
(dp350
g31
S' -295.853601879*(x-0.839)*(x-0.839)*(x-0.839)+29.0676163846*(x-0.839)*(x-0.839)+0.0*(x-0.839)+0.9327489137649536'
p351
ss(F0.2545
F0.314
tp352
(dp353
g31
S' -26.1638640604*(x-0.2545)*(x-0.2545)*(x-0.2545)+2.33512486739*(x-0.2545)*(x-0.2545)+0.0*(x-0.2545)+1.063838243484497'
p354
ss(F0.064
F0.149
tp355
(dp356
g31
S' 7.00391483346*(x-0.064)*(x-0.064)*(x-0.064)-2.83052756437*(x-0.064)*(x-0.064)+0.0*(x-0.064)+1.1995114088058472'
p357
ss(F0.6405
F0.7070000000000001
tp358
(dp359
g31
S' -145.809426448*(x-0.6405)*(x-0.6405)*(x-0.6405)+14.5444902882*(x-0.6405)*(x-0.6405)+0.0*(x-0.6405)+0.9528860449790955'
p360
ss(F0.9045
F0.9735
tp361
(dp362
g31
S' 66.4536286886*(x-0.9045)*(x-0.9045)*(x-0.9045)-23.6901226509*(x-0.9045)*(x-0.9045)+0.0*(x-0.9045)+0.9743180274963379'
p363
ss(F-15.0
F0.0
tp364
(dp365
g31
g44
ssg22
g7
(g8
(I0
tp366
g10
tp367
Rp368
(I1
(I17
tp369
g17
I00
S'\x00\x00\x00\x00\x00\x00\x00\x00\xfc\xa9\xf1\xd2Mb\xb0?\xdfO\x8d\x97n\x12\xc3?H\xe1z\x14\xaeG\xc9?}?5^\xbaI\xd0?\x7fj\xbct\x93\x18\xd4?\x7fj\xbct\x93\x18\xd8?\xa8\xc6K7\x89A\xdc?\xd3Mb\x10X9\xe0?\'1\x08\xac\x1cZ\xe2?\xe5\xd0"\xdb\xf9~\xe4?:\xb4\xc8v\xbe\x9f\xe6?#\xdb\xf9~j\xbc\xe8?\r\x02+\x87\x16\xd9\xea?\x8bl\xe7\xfb\xa9\xf1\xec?\xf4\xfd\xd4x\xe9&\xef?\x9a\x99\x99\x99\x99\x99\xf1?'
p370
tp371
bs(F0.0
F0.064
tp372
(dp373
g31
S' 1.19951140881'
p374
ss(F0.1975
F0.2545
tp375
(dp376
g31
S' 526.495523141*(x-0.1975)*(x-0.1975)*(x-0.1975)-35.8756001728*(x-0.1975)*(x-0.1975)-1.04193344435*(x-0.1975)+1.1422849893569946'
p377
ss(F0.4415
F0.507
tp378
(dp379
g31
S' -196.710834966*(x-0.4415)*(x-0.4415)*(x-0.4415)+19.3198002592*(x-0.4415)*(x-0.4415)+0.000922145187573*(x-0.4415)+1.0262829065322876'
p380
ss(F0.149
F0.1975
tp381
(dp382
g31
S' 137.140729154*(x-0.149)*(x-0.149)*(x-0.149)-17.3229015761*(x-0.149)*(x-0.149)-0.329379831927*(x-0.149)+1.1833621263504028'
p383
ss(F0.7070000000000001
F0.773
tp384
(dp385
g31
S' 46.1863883367*(x-0.707)*(x-0.707)*(x-0.707)-6.86243787876*(x-0.707)*(x-0.707)+0.0*(x-0.707)+0.9743258357048035'
p386
ss(F0.314
F0.3765
tp387
(dp388
g31
S' 330.473632812*(x-0.314)*(x-0.314)*(x-0.314)-30.9819030762*(x-0.314)*(x-0.314)+0.0*(x-0.314)+1.066593885421753'
p389
ss(F0.9735
F1.1
tp390
(dp391
g31
S' 0.883359968662'
p392
ss(F0.773
F0.8390000000000001
tp393
(dp394
g31
S' 104.261401155*(x-0.773)*(x-0.773)*(x-0.773)-8.03189328091*(x-0.773)*(x-0.773)-0.302278077212*(x-0.773)+0.9577114582061768'
p395
ss(F0.507
F0.5735
tp396
(dp397
g31
S' 358.002024251*(x-0.507)*(x-0.507)*(x-0.507)-40.285471975*(x-0.507)*(x-0.507)+0.0*(x-0.507)+1.0539520978927612'
p398
ss(F0.5735
F0.6405
tp399
(dp400
g31
S' 51.946798838*(x-0.5735)*(x-0.5735)*(x-0.5735)-0.680023302373*(x-0.5735)*(x-0.5735)-0.608444417433*(x-0.5735)+0.9810807704925537'
p401
sssg81
g7
(g8
(I0
tp402
g10
tp403
Rp404
(I1
(I1
tp405
g17
I00
S'\x00\x00\x00\x00\x00\x00\x00\x00'
p406
tp407
bsg88
g7
(g8
(I0
tp408
g10
tp409
Rp410
(I1
(I1
tp411
g17
I00
S'\x00\x00\x00\x00\x00\x00\x04@'
p412
tp413
bssS'pt_lis_LB'
p414
g7
(g8
(I0
tp415
g10
tp416
Rp417
(I1
(I5
tp418
g17
I00
S'\x00\x00\x00\x00\x00\x004@\x00\x00\x00\x00\x00\x00>@\x00\x00\x00\x00\x00\x00I@\x00\x00\x00\x00\x00\x80Q@\x00\x00\x00\x00\x00\x00Y@'
p419
tp420
bssI1
(dp421
g329
g7
(g8
(I0
tp422
g10
tp423
Rp424
(I1
(I1
tp425
g17
I00
S'\x00\x00\x00\x00\x00\x88\xc3@'
p426
tp427
bsg414
g7
(g8
(I0
tp428
g10
tp429
Rp430
(I1
(I1
tp431
g17
I00
S'\x00\x00\x00\x00\x00\x004@'
p432
tp433
bs(F20.0
F10000.0
tp434
(dp435
g88
g7
(g8
(I0
tp436
g10
tp437
Rp438
(I1
(I1
tp439
g17
I00
S'333333\x03@'
p440
tp441
bsg81
g7
(g8
(I0
tp442
g10
tp443
Rp444
(I1
(I1
tp445
g17
I00
S'\x00\x00\x00\x00\x00\x00\x00\x00'
p446
tp447
bs(F0.0
F2.4
tp448
(dp449
g6
g7
(g8
(I0
tp450
g10
tp451
Rp452
(I1
(I1
tp453
g17
I00
S'\x00\x00\x00\x00\x00\x00.\xc0'
p454
tp455
bs(F-15.0
F1.1
tp456
(dp457
g31
S' 1.0'
p458
ssg22
g7
(g8
(I0
tp459
g10
tp460
Rp461
(I1
(I1
tp462
g17
I00
S'\x9a\x99\x99\x99\x99\x99\xf1?'
p463
tp464
bssssI2
(dp465
(F60.0
F10000.0
tp466
(dp467
(F0.0
F0.8
tp468
(dp469
g6
g7
(g8
(I0
tp470
g10
tp471
Rp472
(I1
(I14
tp473
g17
I00
S'\x00\x00\x00\x00\x00\x00.\xc0\x00\x00\x00\x00\x00\x00\x00\x00\xfc\xa9\xf1\xd2Mb`?{\x14\xaeG\xe1zt?x\xe9&1\x08\xac|?<\xdfO\x8d\x97n\x82?\xbbI\x0c\x02+\x87\x86?\xd9\xce\xf7S\xe3\xa5\x8b?L7\x89A`\xe5\x90?{\x14\xaeG\xe1z\x94?\x9a\x99\x99\x99\x99\x99\x99?#\xdb\xf9~j\xbc\xa4?\xfe\xd4x\xe9&1\xb8?\xbct\x93\x18\x04V\xe2?'
p474
tp475
bs(F0.573
F1.1
tp476
(dp477
g31
S' 1.12644124031'
p478
ss(F0.002
F0.005
tp479
(dp480
g31
S' -16195.7566905*(x-0.002)*(x-0.002)*(x-0.002)+389.98280713*(x-0.002)*(x-0.002)+20.8679238955*(x-0.002)+0.8702373504638672'
p481
ssg22
g7
(g8
(I0
tp482
g10
tp483
Rp484
(I1
(I14
tp485
g17
I00
S'\x00\x00\x00\x00\x00\x00\x00\x00\xfc\xa9\xf1\xd2Mb`?{\x14\xaeG\xe1zt?x\xe9&1\x08\xac|?<\xdfO\x8d\x97n\x82?\xbbI\x0c\x02+\x87\x86?\xd9\xce\xf7S\xe3\xa5\x8b?L7\x89A`\xe5\x90?{\x14\xaeG\xe1z\x94?\x9a\x99\x99\x99\x99\x99\x99?#\xdb\xf9~j\xbc\xa4?\xfe\xd4x\xe9&1\xb8?\xbct\x93\x18\x04V\xe2?\x9a\x99\x99\x99\x99\x99\xf1?'
p486
tp487
bs(F-15.0
F0.0
tp488
(dp489
g31
g44
ss(F0.0135
F0.0165
tp490
(dp491
g31
S' 735415.352715*(x-0.0135)*(x-0.0135)*(x-0.0135)-3309.36908722*(x-0.0135)*(x-0.0135)+0.0*(x-0.0135)+1.0910367965698242'
p492
ss(F0.009000000000000001
F0.011000000000000001
tp493
(dp494
g31
S' 2691715.95573*(x-0.009)*(x-0.009)*(x-0.009)-8075.1478672*(x-0.009)*(x-0.009)+0.0*(x-0.009)+1.0259333848953247'
p495
ss(F0.0165
F0.02
tp496
(dp497
g31
S' -2625706.01709*(x-0.0165)*(x-0.0165)*(x-0.0165)+13804.9275847*(x-0.0165)*(x-0.0165)+0.0*(x-0.0165)+1.0811086893081665'
p498
ss(F0.025
F0.0405
tp499
(dp500
g31
S' 39873.9647687*(x-0.025)*(x-0.025)*(x-0.025)-927.069680872*(x-0.025)*(x-0.025)+0.0*(x-0.025)+1.137972354888916'
p501
ss(F0.0
F0.002
tp502
(dp503
g31
S' 0.870237350464'
p504
ss(F0.0405
F0.0945
tp505
(dp506
g31
S' -227.112890436*(x-0.0405)*(x-0.0405)*(x-0.0405)+19.9691615321*(x-0.0405)*(x-0.0405)+0.0*(x-0.0405)+1.0637295246124268'
p507
ss(F0.006999999999999999
F0.009000000000000001
tp508
(dp509
g31
S' -5092449.41616*(x-0.007)*(x-0.007)*(x-0.007)+9664.41603281*(x-0.007)*(x-0.007)+22.4517288627*(x-0.007)+0.9831118583679199'
p510
ss(F0.005
F0.006999999999999999
tp511
(dp512
g31
S' -493978.053392*(x-0.005)*(x-0.005)*(x-0.005)+1402.23254895*(x-0.005)*(x-0.005)+22.7705353077*(x-0.005)+0.9359136819839478'
p513
ss(F0.0945
F0.573
tp514
(dp515
g31
S' 0.00732854424012*(x-0.0945)*(x-0.0945)*(x-0.0945)-0.182779268414*(x-0.0945)*(x-0.0945)+0.169885879937*(x-0.0945)+1.0861974954605103'
p516
ss(F0.011000000000000001
F0.0135
tp517
(dp518
g31
S' -9711395.26367*(x-0.011)*(x-0.011)*(x-0.011)+36417.7322388*(x-0.011)*(x-0.011)+0.0*(x-0.011)+1.0151665210723877'
p519
ss(F0.02
F0.025
tp520
(dp521
g31
S' 304.708187571*(x-0.02)*(x-0.02)*(x-0.02)-16.265007901*(x-0.02)*(x-0.02)+0.139796964943*(x-0.02)+1.1376419067382812'
p522
sssg88
g7
(g8
(I0
tp523
g10
tp524
Rp525
(I1
(I3
tp526
g17
I00
S'\x9a\x99\x99\x99\x99\x99\xe9?\x9a\x99\x99\x99\x99\x99\xf9?\x00\x00\x00\x00\x00\x00\x04@'
p527
tp528
bsg81
g7
(g8
(I0
tp529
g10
tp530
Rp531
(I1
(I3
tp532
g17
I00
S'\x00\x00\x00\x00\x00\x00\x00\x00\x9a\x99\x99\x99\x99\x99\xe9?\x9a\x99\x99\x99\x99\x99\xf9?'
p533
tp534
bs(F1.6
F2.5
tp535
(dp536
g6
g7
(g8
(I0
tp537
g10
tp538
Rp539
(I1
(I14
tp540
g17
I00
S'\x00\x00\x00\x00\x00\x00.\xc0\x00\x00\x00\x00\x00\x00\x00\x00\xfa~j\xbct\x93h?\x9c\xc4 \xb0rh\x81?x\xe9&1\x08\xac\x8c?\xcb\xa1E\xb6\xf3\xfd\x94?x\xe9&1\x08\xac\x9c?\xe3\xa5\x9b\xc4 \xb0\xa2?\x02+\x87\x16\xd9\xce\xa7?\x10X9\xb4\xc8v\xae?\xfe\xd4x\xe9&1\xb8?!\xb0rh\x91\xed\xc4?Zd;\xdfO\x8d\xcf?\xf8S\xe3\xa5\x9b\xc4\xe4?'
p541
tp542
bs(F0.2465
F0.649
tp543
(dp544
g31
S' -0.254575734694*(x-0.2465)*(x-0.2465)*(x-0.2465)+0.0*(x-0.2465)*(x-0.2465)+0.0*(x-0.2465)+1.0498440265655518'
p545
ss(F0.0595
F0.0945
tp546
(dp547
g31
S' -2309.51559439*(x-0.0595)*(x-0.0595)*(x-0.0595)+121.249568706*(x-0.0595)*(x-0.0595)+0.0*(x-0.0595)+1.034368872642517'
p548
ss(F0.0205
F0.027999999999999997
tp549
(dp550
g31
S' -319455.464681*(x-0.0205)*(x-0.0205)*(x-0.0205)+3593.87397766*(x-0.0205)*(x-0.0205)+0.0*(x-0.0205)+0.9924378991127014'
p551
ssg22
g7
(g8
(I0
tp552
g10
tp553
Rp554
(I1
(I14
tp555
g17
I00
S'\x00\x00\x00\x00\x00\x00\x00\x00\xfa~j\xbct\x93h?\x9c\xc4 \xb0rh\x81?x\xe9&1\x08\xac\x8c?\xcb\xa1E\xb6\xf3\xfd\x94?x\xe9&1\x08\xac\x9c?\xe3\xa5\x9b\xc4 \xb0\xa2?\x02+\x87\x16\xd9\xce\xa7?\x10X9\xb4\xc8v\xae?\xfe\xd4x\xe9&1\xb8?!\xb0rh\x91\xed\xc4?Zd;\xdfO\x8d\xcf?\xf8S\xe3\xa5\x9b\xc4\xe4?\x9a\x99\x99\x99\x99\x99\xf1?'
p556
tp557
bs(F0.027999999999999997
F0.0365
tp558
(dp559
g31
S' 14584.5534202*(x-0.028)*(x-0.028)*(x-0.028)-235.677295625*(x-0.028)*(x-0.028)+0.0*(x-0.028)+1.0598230361938477'
p560
ss(F-15.0
F0.0
tp561
(dp562
g31
g44
ss(F0.0365
F0.0465
tp563
(dp564
g31
S' -862.691996984*(x-0.0365)*(x-0.0365)*(x-0.0365)+17.4030078262*(x-0.0365)*(x-0.0365)-0.845312071801*(x-0.0365)+1.0517520904541016'
p565
ss(F0.0
F0.003
tp566
(dp567
g31
S' 0.933991312981'
p568
ss(F0.0945
F0.1635
tp569
(dp570
g31
S' 550.656350177*(x-0.0945)*(x-0.0945)*(x-0.0945)-56.9929322433*(x-0.0945)*(x-0.0945)+0.0*(x-0.0945)+1.0838791131973267'
p571
ss(F0.013999999999999999
F0.0205
tp572
(dp573
g31
S' 185370.933592*(x-0.014)*(x-0.014)*(x-0.014)-1807.36660252*(x-0.014)*(x-0.014)+0.0*(x-0.014)+1.0178916454315186'
p574
ss(F0.1635
F0.2465
tp575
(dp576
g31
S' -197.320669544*(x-0.1635)*(x-0.1635)*(x-0.1635)+24.5664233583*(x-0.1635)*(x-0.1635)+0.0*(x-0.1635)+0.9934313297271729'
p577
ss(F0.0085
F0.013999999999999999
tp578
(dp579
g31
S' -170943.003224*(x-0.0085)*(x-0.0085)*(x-0.0085)+738.517496098*(x-0.0085)*(x-0.0085)+7.38938508553*(x-0.0085)+0.9833505153656006'
p580
ss(F0.0465
F0.0595
tp581
(dp582
g31
S' 4454.54623194*(x-0.0465)*(x-0.0465)*(x-0.0465)-57.7844394317*(x-0.0465)*(x-0.0465)-0.756059514372*(x-0.0465)+1.0441765785217285'
p583
ss(F0.649
F1.1
tp584
(dp585
g31
S' 1.03324377537'
p586
ss(F0.003
F0.0085
tp587
(dp588
g31
S' -7865.05337366*(x-0.003)*(x-0.003)*(x-0.003)-201.669021635*(x-0.003)*(x-0.003)+10.3214979172*(x-0.003)+0.9339913129806519'
p589
sss(F0.8
F1.6
tp590
(dp591
g6
g7
(g8
(I0
tp592
g10
tp593
Rp594
(I1
(I14
tp595
g17
I00
S'\x00\x00\x00\x00\x00\x00.\xc0\x00\x00\x00\x00\x00\x00\x00\x00\xfc\xa9\xf1\xd2Mb`?\xfa~j\xbct\x93x?{\x14\xaeG\xe1z\x84?x\xe9&1\x08\xac\x8c?\x8bl\xe7\xfb\xa9\xf1\x92?\xaa\xf1\xd2Mb\x10\x98?\x18\x04V\x0e-\xb2\x9d?\x93\x18\x04V\x0e-\xa2?\xbbI\x0c\x02+\x87\xa6?333333\xb3?=\n\xd7\xa3p=\xc2?\xb4\xc8v\xbe\x9f\x1a\xe3?'
p596
tp597
bs(F0.075
F0.1425
tp598
(dp599
g31
S' 119.312856294*(x-0.075)*(x-0.075)*(x-0.075)-9.10102624781*(x-0.075)*(x-0.075)-0.915641123634*(x-0.075)+1.077014684677124'
p600
ss(F0.002
F0.006
tp601
(dp602
g31
S' -132596.413085*(x-0.002)*(x-0.002)*(x-0.002)+1751.07201353*(x-0.002)*(x-0.002)+1.47218257189*(x-0.002)+0.9319552779197693'
p603
ss(F0.0185
F0.0235
tp604
(dp605
g31
S' 791687.011719*(x-0.0185)*(x-0.0185)*(x-0.0185)-5937.65258789*(x-0.0185)*(x-0.0185)+0.0*(x-0.0185)+1.0594325065612793'
p606
ss(F0.044000000000000004
F0.075
tp607
(dp608
g31
S' -789.779264864*(x-0.044)*(x-0.044)*(x-0.044)+47.4021312385*(x-0.044)*(x-0.044)-1.57763963982*(x-0.044)+1.1038963794708252'
p609
ss(F0.028999999999999998
F0.0355
tp610
(dp611
g31
S' -873885.752774*(x-0.029)*(x-0.029)*(x-0.029)+8466.69446923*(x-0.029)*(x-0.029)+0.697991064118*(x-0.029)+1.0119611024856567'
p612
ss(F0.597
F1.1
tp613
(dp614
g31
S' 0.880380928516'
p615
ss(F-15.0
F0.0
tp616
(dp617
g31
g44
ss(F0.1425
F0.597
tp618
(dp619
g31
S' 0.285037947889*(x-0.1425)*(x-0.1425)*(x-0.1425)+0.370496129979*(x-0.1425)*(x-0.1425)-0.513422062615*(x-0.1425)+1.0104366540908813'
p620
ss(F0.006
F0.01
tp621
(dp622
g31
S' -1031446.72511*(x-0.006)*(x-0.006)*(x-0.006)+5876.85891398*(x-0.006)*(x-0.006)+9.11613085208*(x-0.006)+0.9573749899864197'
p623
ss(F0.0
F0.002
tp624
(dp625
g31
S' 0.93195527792'
p626
ss(F0.0355
F0.044000000000000004
tp627
(dp628
g31
S' 76934.3795867*(x-0.0355)*(x-0.0355)*(x-0.0355)-1073.71567148*(x-0.0355)*(x-0.0355)+0.0*(x-0.0355)+1.1342250108718872'
p629
ssg22
g7
(g8
(I0
tp630
g10
tp631
Rp632
(I1
(I14
tp633
g17
I00
S'\x00\x00\x00\x00\x00\x00\x00\x00\xfc\xa9\xf1\xd2Mb`?\xfa~j\xbct\x93x?{\x14\xaeG\xe1z\x84?x\xe9&1\x08\xac\x8c?\x8bl\xe7\xfb\xa9\xf1\x92?\xaa\xf1\xd2Mb\x10\x98?\x18\x04V\x0e-\xb2\x9d?\x93\x18\x04V\x0e-\xa2?\xbbI\x0c\x02+\x87\xa6?333333\xb3?=\n\xd7\xa3p=\xc2?\xb4\xc8v\xbe\x9f\x1a\xe3?\x9a\x99\x99\x99\x99\x99\xf1?'
p634
tp635
bs(F0.01
F0.013999999999999999
tp636
(dp637
g31
S' 167336.728787*(x-0.01)*(x-0.01)*(x-0.01)-1283.11578501*(x-0.01)*(x-0.01)+6.62155935854*(x-0.01)+1.021856665611267'
p638
ss(F0.013999999999999999
F0.0185
tp639
(dp640
g31
S' -242197.295981*(x-0.014)*(x-0.014)*(x-0.014)+1147.18774118*(x-0.014)*(x-0.014)+4.38879606023*(x-0.014)+1.0385226011276245'
p641
ss(F0.0235
F0.028999999999999998
tp642
(dp643
g31
S' -1076.58879608*(x-0.0235)*(x-0.0235)*(x-0.0235)+72.3355906693*(x-0.0235)*(x-0.0235)+0.0*(x-0.0235)+1.0099520683288574'
p644
ssss(F20.0
F30.0
tp645
(dp646
(F0.0
F0.8
tp647
(dp648
g6
g7
(g8
(I0
tp649
g10
tp650
Rp651
(I1
(I14
tp652
g17
I00
S'\x00\x00\x00\x00\x00\x00.\xc0\x00\x00\x00\x00\x00\x00\x00\x00\xb8\x1e\x85\xebQ\xb8~?\x1b/\xdd$\x06\x81\x95?L7\x89A`\xe5\xa0?Zd;\xdfO\x8d\xa7?\x08\xac\x1cZd;\xaf?+\x87\x16\xd9\xce\xf7\xb3?J\x0c\x02+\x87\x16\xb9?X9\xb4\xc8v\xbe\xbf?\xcf\xf7S\xe3\xa5\x9b\xc4?\x85\xebQ\xb8\x1e\x85\xcb?333333\xd3?\x02+\x87\x16\xd9\xce\xe5?'
p653
tp654
bs(F0.098
F0.124
tp655
(dp656
g31
S' 2.41292131697*(x-0.098)*(x-0.098)*(x-0.098)-1.65015166803*(x-0.098)*(x-0.098)+0.0809144823069*(x-0.098)+1.0817118883132935'
p657
ss(F0.215
F0.3
tp658
(dp659
g31
S' 77.3638305742*(x-0.215)*(x-0.215)*(x-0.215)-8.74717932072*(x-0.215)*(x-0.215)-0.189840543174*(x-0.215)+1.0737675428390503'
p660
ss(F0.021
F0.033
tp661
(dp662
g31
S' 478.830821334*(x-0.021)*(x-0.021)*(x-0.021)-155.869991364*(x-0.021)*(x-0.021)+6.36315093205*(x-0.021)+1.0046824216842651'
p663
ss(F0.161
F0.215
tp664
(dp665
g31
S' 2.73610814818*(x-0.161)*(x-0.161)*(x-0.161)-1.34352293906*(x-0.161)*(x-0.161)-0.0686755398359*(x-0.161)+1.080962896347046'
p666
ss(F0.0075
F0.021
tp667
(dp668
g31
S' -6218.42721462*(x-0.0075)*(x-0.0075)*(x-0.0075)-160.617617433*(x-0.0075)*(x-0.0075)+14.0997516823*(x-0.0075)+0.8589079976081848'
p669
ss(F0.0
F0.0075
tp670
(dp671
g31
S' 0.858907997608'
p672
ss(F-15.0
F0.0
tp673
(dp674
g31
g44
ss(F0.3
F0.6815
tp675
(dp676
g31
S' 1.66065391931*(x-0.3)*(x-0.3)*(x-0.3)+0.294118726033*(x-0.3)*(x-0.3)+0.0*(x-0.3)+1.0419437885284424'
p677
ss(F0.046
F0.061
tp678
(dp679
g31
S' 956.907013619*(x-0.046)*(x-0.046)*(x-0.046)-47.4206726685*(x-0.046)*(x-0.046)+0.0*(x-0.046)+1.0858805179595947'
p680
ss(F0.124
F0.161
tp681
(dp682
g31
S' 20.1045543893*(x-0.124)*(x-0.124)*(x-0.124)-2.04385060422*(x-0.124)*(x-0.124)+0.0*(x-0.124)+1.0827425718307495'
p683
ss(F0.078
F0.098
tp684
(dp685
g31
S' -8666.94454146*(x-0.078)*(x-0.078)*(x-0.078)+262.031198301*(x-0.078)*(x-0.078)+0.0*(x-0.078)+1.0462349653244019'
p686
ssg22
g7
(g8
(I0
tp687
g10
tp688
Rp689
(I1
(I14
tp690
g17
I00
S'\x00\x00\x00\x00\x00\x00\x00\x00\xb8\x1e\x85\xebQ\xb8~?\x1b/\xdd$\x06\x81\x95?L7\x89A`\xe5\xa0?Zd;\xdfO\x8d\xa7?\x08\xac\x1cZd;\xaf?+\x87\x16\xd9\xce\xf7\xb3?J\x0c\x02+\x87\x16\xb9?X9\xb4\xc8v\xbe\xbf?\xcf\xf7S\xe3\xa5\x9b\xc4?\x85\xebQ\xb8\x1e\x85\xcb?333333\xd3?\x02+\x87\x16\xd9\xce\xe5?\x9a\x99\x99\x99\x99\x99\xf1?'
p691
tp692
bs(F0.033
F0.046
tp693
(dp694
g31
S' -7345.31163961*(x-0.033)*(x-0.033)*(x-0.033)+34.4210364292*(x-0.033)*(x-0.033)+2.82912605412*(x-0.033)+1.0594223737716675'
p695
ss(F0.6815
F1.1
tp696
(dp697
g31
S' 1.17695724964'
p698
ss(F0.061
F0.078
tp699
(dp700
g31
S' 10422.7335298*(x-0.061)*(x-0.061)*(x-0.061)-242.935353661*(x-0.061)*(x-0.061)-0.776707945861*(x-0.061)+1.0784404277801514'
p701
sssg88
g7
(g8
(I0
tp702
g10
tp703
Rp704
(I1
(I3
tp705
g17
I00
S'\x9a\x99\x99\x99\x99\x99\xe9?\x9a\x99\x99\x99\x99\x99\xf9?\x00\x00\x00\x00\x00\x00\x04@'
p706
tp707
bsg81
g7
(g8
(I0
tp708
g10
tp709
Rp710
(I1
(I3
tp711
g17
I00
S'\x00\x00\x00\x00\x00\x00\x00\x00\x9a\x99\x99\x99\x99\x99\xe9?\x9a\x99\x99\x99\x99\x99\xf9?'
p712
tp713
bs(F1.6
F2.5
tp714
(dp715
g6
g7
(g8
(I0
tp716
g10
tp717
Rp718
(I1
(I14
tp719
g17
I00
S'\x00\x00\x00\x00\x00\x00.\xc0\x00\x00\x00\x00\x00\x00\x00\x00<\xdfO\x8d\x97n\x82?\xe9&1\x08\xac\x1c\x9a?\xca\xa1E\xb6\xf3\xfd\xa4?q=\n\xd7\xa3p\xad?\x87\x16\xd9\xce\xf7S\xb3?\xfa~j\xbct\x93\xb8?`\xe5\xd0"\xdb\xf9\xbe?-\xb2\x9d\xef\xa7\xc6\xc3?D\x8bl\xe7\xfb\xa9\xc9?\xa0\x1a/\xdd$\x06\xd1?\xdd$\x06\x81\x95C\xd7?\xb6\xf3\xfd\xd4x\xe9\xe6?'
p720
tp721
bs(F0.0
F0.009000000000000001
tp722
(dp723
g31
S' 1.04343080521'
p724
ss(F0.121
F0.1545
tp725
(dp726
g31
S' -1649.36488096*(x-0.121)*(x-0.121)*(x-0.121)+71.9304817604*(x-0.121)*(x-0.121)+0.733656935032*(x-0.121)+0.8698921799659729'
p727
ss(F0.009000000000000001
F0.0255
tp728
(dp729
g31
S' 208.06275677*(x-0.009)*(x-0.009)*(x-0.009)-130.124754499*(x-0.009)*(x-0.009)+4.12418164189*(x-0.009)+1.0434308052062988'
p730
ssg22
g7
(g8
(I0
tp731
g10
tp732
Rp733
(I1
(I14
tp734
g17
I00
S'\x00\x00\x00\x00\x00\x00\x00\x00<\xdfO\x8d\x97n\x82?\xe9&1\x08\xac\x1c\x9a?\xca\xa1E\xb6\xf3\xfd\xa4?q=\n\xd7\xa3p\xad?\x87\x16\xd9\xce\xf7S\xb3?\xfa~j\xbct\x93\xb8?`\xe5\xd0"\xdb\xf9\xbe?-\xb2\x9d\xef\xa7\xc6\xc3?D\x8bl\xe7\xfb\xa9\xc9?\xa0\x1a/\xdd$\x06\xd1?\xdd$\x06\x81\x95C\xd7?\xb6\xf3\xfd\xd4x\xe9\xe6?\x9a\x99\x99\x99\x99\x99\xf1?'
p735
tp736
bs(F0.0255
F0.040999999999999995
tp737
(dp738
g31
S' 5968.272587*(x-0.0255)*(x-0.0255)*(x-0.0255)-222.854465758*(x-0.0255)*(x-0.0255)+0.0*(x-0.0255)+1.0769879817962646'
p739
ss(F0.3635
F0.716
tp740
(dp741
g31
S' 0.0890636484812*(x-0.3635)*(x-0.3635)*(x-0.3635)-0.42660024243*(x-0.3635)*(x-0.3635)+0.267553025998*(x-0.3635)+0.9917019605636597'
p742
ss(F-15.0
F0.0
tp743
(dp744
g31
g44
ss(F0.096
F0.121
tp745
(dp746
g31
S' -512.283242328*(x-0.096)*(x-0.096)*(x-0.096)+33.8837602879*(x-0.096)*(x-0.096)+0.0*(x-0.096)+0.8567192554473877'
p747
ss(F0.1545
F0.2005
tp748
(dp749
g31
S' 197.926670784*(x-0.1545)*(x-0.1545)*(x-0.1545)-15.6571096792*(x-0.1545)*(x-0.1545)+0.0*(x-0.1545)+0.913185179233551'
p750
ss(F0.716
F1.1
tp751
(dp752
g31
S' 1.03690767288'
p753
ss(F0.0755
F0.096
tp754
(dp755
g31
S' 527.974431135*(x-0.0755)*(x-0.0755)*(x-0.0755)+23.6972552429*(x-0.0755)*(x-0.0755)-1.63723122901*(x-0.0755)+0.875775158405304'
p756
ss(F0.0575
F0.0755
tp757
(dp758
g31
S' 18117.6158013*(x-0.0575)*(x-0.0575)*(x-0.0575)-407.499387727*(x-0.0575)*(x-0.0575)-4.5775758297*(x-0.0575)+0.9845393896102905'
p759
ss(F0.266
F0.3635
tp760
(dp761
g31
S' -189.288861341*(x-0.266)*(x-0.266)*(x-0.266)+29.0555627712*(x-0.266)*(x-0.266)+0.0*(x-0.266)+0.8909366726875305'
p762
ss(F0.2005
F0.266
tp763
(dp764
g31
S' 16.7747124465*(x-0.2005)*(x-0.2005)*(x-0.2005)-0.243416380716*(x-0.2005)*(x-0.2005)-0.184015584348*(x-0.2005)+0.899320125579834'
p765
ss(F0.040999999999999995
F0.0575
tp766
(dp767
g31
S' 828.714921388*(x-0.041)*(x-0.041)*(x-0.041)-80.2294778882*(x-0.041)*(x-0.041)-2.60685597143*(x-0.041)+1.0456722974777222'
p768
sss(F0.8
F1.6
tp769
(dp770
g6
g7
(g8
(I0
tp771
g10
tp772
Rp773
(I1
(I14
tp774
g17
I00
S'\x00\x00\x00\x00\x00\x00.\xc0\x00\x00\x00\x00\x00\x00\x00\x00\xfc\xa9\xf1\xd2Mb\x80?\n\xd7\xa3p=\n\x97?<\xdfO\x8d\x97n\xa2?\xe9&1\x08\xac\x1c\xaa?\x9c\xc4 \xb0rh\xb1?ffffff\xb6?\xd1"\xdb\xf9~j\xbc?\xe9&1\x08\xac\x1c\xc2?\xb2\x9d\xef\xa7\xc6K\xc7?\xb8\x1e\x85\xebQ\xb8\xce?\xa0\x1a/\xdd$\x06\xd5?\x12\x83\xc0\xca\xa1E\xe6?'
p775
tp776
bs(F0.051
F0.068
tp777
(dp778
g31
S' 10863.5838985*(x-0.051)*(x-0.051)*(x-0.051)-315.527764912*(x-0.051)*(x-0.051)+0.0*(x-0.051)+1.0503156185150146'
p779
ss(F0.111
F0.1415
tp780
(dp781
g31
S' 159.431800519*(x-0.111)*(x-0.111)*(x-0.111)-10.1206244891*(x-0.111)*(x-0.111)-0.471232515315*(x-0.111)+0.9856738448143005'
p782
ss(F0.036000000000000004
F0.051
tp783
(dp784
g31
S' -781.883838013*(x-0.036)*(x-0.036)*(x-0.036)-6.59164329331*(x-0.036)*(x-0.036)+0.725520889458*(x-0.036)+1.0435547828674316'
p785
ssg22
g7
(g8
(I0
tp786
g10
tp787
Rp788
(I1
(I14
tp789
g17
I00
S'\x00\x00\x00\x00\x00\x00\x00\x00\xfc\xa9\xf1\xd2Mb\x80?\n\xd7\xa3p=\n\x97?<\xdfO\x8d\x97n\xa2?\xe9&1\x08\xac\x1c\xaa?\x9c\xc4 \xb0rh\xb1?ffffff\xb6?\xd1"\xdb\xf9~j\xbc?\xe9&1\x08\xac\x1c\xc2?\xb2\x9d\xef\xa7\xc6K\xc7?\xb8\x1e\x85\xebQ\xb8\xce?\xa0\x1a/\xdd$\x06\xd5?\x12\x83\xc0\xca\xa1E\xe6?\x9a\x99\x99\x99\x99\x99\xf1?'
p790
tp791
bs(F0.068
F0.0875
tp792
(dp793
g31
S' -66.1735462121*(x-0.068)*(x-0.068)*(x-0.068)+21.5005900057*(x-0.068)*(x-0.068)-1.30921676702*(x-0.068)+1.0125008821487427'
p794
ss(F-15.0
F0.0
tp795
(dp796
g31
g44
ss(F0.3285
F0.696
tp797
(dp798
g31
S' -0.255412287103*(x-0.3285)*(x-0.3285)*(x-0.3285)-0.085631445755*(x-0.3285)*(x-0.3285)+0.0*(x-0.3285)+0.924521803855896'
p799
ss(F0.0875
F0.111
tp800
(dp801
g31
S' -458.067341458*(x-0.0875)*(x-0.0875)*(x-0.0875)+17.7415272827*(x-0.0875)*(x-0.0875)-0.546181229641*(x-0.0875)+0.9946560859680176'
p802
ss(F0.0
F0.008
tp803
(dp804
g31
S' 0.935424208641'
p805
ss(F0.182
F0.24
tp806
(dp807
g31
S' 70.7270892522*(x-0.182)*(x-0.182)*(x-0.182)-2.12358776472*(x-0.182)*(x-0.182)-0.467441604025*(x-0.182)+0.9397836327552795'
p808
ss(F0.1415
F0.182
tp809
(dp810
g31
S' 124.241081998*(x-0.1415)*(x-0.1415)*(x-0.1415)-5.37215551127*(x-0.1415)*(x-0.1415)-0.643656311852*(x-0.1415)+0.9664100408554077'
p811
ss(F0.24
F0.3285
tp812
(dp813
g31
S' -14.9860740898*(x-0.24)*(x-0.24)*(x-0.24)+1.98940133542*(x-0.24)*(x-0.24)+0.0*(x-0.24)+0.919327974319458'
p814
ss(F0.0225
F0.036000000000000004
tp815
(dp816
g31
S' -617.589772369*(x-0.0225)*(x-0.0225)*(x-0.0225)-60.2348611905*(x-0.0225)*(x-0.0225)+2.68952934964*(x-0.0225)+1.0197434425354004'
p817
ss(F0.008
F0.0225
tp818
(dp819
g31
S' -4887.45300578*(x-0.008)*(x-0.008)*(x-0.008)-73.8218096792*(x-0.008)*(x-0.008)+7.91312281373*(x-0.008)+0.9354242086410522'
p820
ss(F0.696
F1.1
tp821
(dp822
g31
S' 0.900279819965'
p823
ssss(F30.0
F40.0
tp824
(dp825
(F0.0
F0.8
tp826
(dp827
(F0.605
F1.1
tp828
(dp829
g31
S' 1.0903429985'
p830
ss(F0.09300000000000001
F0.1585
tp831
(dp832
g31
S' 19.8097751123*(x-0.093)*(x-0.093)*(x-0.093)+2.22316708095*(x-0.093)*(x-0.093)-0.546201550631*(x-0.093)+1.0789544582366943'
p833
ss(F0.0505
F0.062
tp834
(dp835
g31
S' -10940.8790812*(x-0.0505)*(x-0.0505)*(x-0.0505)+188.730164151*(x-0.0505)*(x-0.0505)+0.0*(x-0.0505)+1.1104836463928223'
p836
ss(F0.0095
F0.015
tp837
(dp838
g31
S' 79643.0269243*(x-0.0095)*(x-0.0095)*(x-0.0095)-1047.14906159*(x-0.0095)*(x-0.0095)+13.8077857118*(x-0.0095)+0.9608503580093384'
p839
ss(F0.0345
F0.042
tp840
(dp841
g31
S' -237461.796513*(x-0.0345)*(x-0.0345)*(x-0.0345)+2671.44521077*(x-0.0345)*(x-0.0345)+0.0*(x-0.0345)+1.0750782489776611'
p842
ss(F0.015
F0.021
tp843
(dp844
g31
S' 296.640595334*(x-0.015)*(x-0.015)*(x-0.015)-136.233841338*(x-0.015)*(x-0.015)+9.51675072763*(x-0.015)+1.0183675289154053'
p845
ss(F-15.0
F0.0
tp846
(dp847
g31
g44
ssg22
g7
(g8
(I0
tp848
g10
tp849
Rp850
(I1
(I14
tp851
g17
I00
S'\x00\x00\x00\x00\x00\x00\x00\x00y\xe9&1\x08\xacl?\xdb\xf9~j\xbct\x83?\xb8\x1e\x85\xebQ\xb8\x8e?\x1b/\xdd$\x06\x81\x95?)\\\x8f\xc2\xf5(\x9c?D\x8bl\xe7\xfb\xa9\xa1?\x1b/\xdd$\x06\x81\xa5?B`\xe5\xd0"\xdb\xa9?X9\xb4\xc8v\xbe\xaf?\x03+\x87\x16\xd9\xce\xb7?}?5^\xbaI\xc4?\\\x8f\xc2\xf5(\\\xe3?\x9a\x99\x99\x99\x99\x99\xf1?'
p852
tp853
bsg6
g7
(g8
(I0
tp854
g10
tp855
Rp856
(I1
(I14
tp857
g17
I00
S'\x00\x00\x00\x00\x00\x00.\xc0\x00\x00\x00\x00\x00\x00\x00\x00y\xe9&1\x08\xacl?\xdb\xf9~j\xbct\x83?\xb8\x1e\x85\xebQ\xb8\x8e?\x1b/\xdd$\x06\x81\x95?)\\\x8f\xc2\xf5(\x9c?D\x8bl\xe7\xfb\xa9\xa1?\x1b/\xdd$\x06\x81\xa5?B`\xe5\xd0"\xdb\xa9?X9\xb4\xc8v\xbe\xaf?\x03+\x87\x16\xd9\xce\xb7?}?5^\xbaI\xc4?\\\x8f\xc2\xf5(\\\xe3?'
p858
tp859
bs(F0.042
F0.0505
tp860
(dp861
g31
S' 47821.5356381*(x-0.042)*(x-0.042)*(x-0.042)-609.724579385*(x-0.042)*(x-0.042)+0.0*(x-0.042)+1.1251678466796875'
p862
ss(F0.1585
F0.605
tp863
(dp864
g31
S' 0.36016333222*(x-0.1585)*(x-0.1585)*(x-0.1585)+0.0*(x-0.1585)*(x-0.1585)+0.0*(x-0.1585)+1.0582829713821411'
p865
ss(F0.0
F0.0035
tp866
(dp867
g31
S' 0.837240517139'
p868
ss(F0.0035
F0.0095
tp869
(dp870
g31
S' -41704.0814901*(x-0.0035)*(x-0.0035)*(x-0.0035)-631.860094322*(x-0.0035)*(x-0.0035)+25.8941476446*(x-0.0035)+0.8372405171394348'
p871
ss(F0.021
F0.0275
tp872
(dp873
g31
S' -155166.590981*(x-0.021)*(x-0.021)*(x-0.021)+904.106430073*(x-0.021)*(x-0.021)+7.91398181586*(x-0.021)+1.0706276893615723'
p874
ss(F0.0275
F0.0345
tp875
(dp876
g31
S' 248257.689851*(x-0.0275)*(x-0.0275)*(x-0.0275)-2606.70574344*(x-0.0275)*(x-0.0275)+0.0*(x-0.0275)+1.1176544427871704'
p877
ss(F0.062
F0.09300000000000001
tp878
(dp879
g31
S' 2106.87246871*(x-0.062)*(x-0.062)*(x-0.062)-106.779272225*(x-0.062)*(x-0.062)+0.0*(x-0.062)+1.1188035011291504'
p880
sssg88
g7
(g8
(I0
tp881
g10
tp882
Rp883
(I1
(I3
tp884
g17
I00
S'\x9a\x99\x99\x99\x99\x99\xe9?\x9a\x99\x99\x99\x99\x99\xf9?\x00\x00\x00\x00\x00\x00\x04@'
p885
tp886
bsg81
g7
(g8
(I0
tp887
g10
tp888
Rp889
(I1
(I3
tp890
g17
I00
S'\x00\x00\x00\x00\x00\x00\x00\x00\x9a\x99\x99\x99\x99\x99\xe9?\x9a\x99\x99\x99\x99\x99\xf9?'
p891
tp892
bs(F1.6
F2.5
tp893
(dp894
g6
g7
(g8
(I0
tp895
g10
tp896
Rp897
(I1
(I14
tp898
g17
I00
S'\x00\x00\x00\x00\x00\x00.\xc0\x00\x00\x00\x00\x00\x00\x00\x00\xbaI\x0c\x02+\x87v?X9\xb4\xc8v\xbe\x8f?\x9a\x99\x99\x99\x99\x99\x99?<\xdfO\x8d\x97n\xa2?J\x0c\x02+\x87\x16\xa9?\xfc\xa9\xf1\xd2Mb\xb0?w\xbe\x9f\x1a/\xdd\xb4?\xd1"\xdb\xf9~j\xbc?\xcf\xf7S\xe3\xa5\x9b\xc4?\xc3\xf5(\\\x8f\xc2\xcd?\xfe\xd4x\xe9&1\xd4?\xac\x1cZd;\xdf\xe5?'
p899
tp900
bs(F0.064
F0.0815
tp901
(dp902
g31
S' 10147.2799158*(x-0.064)*(x-0.064)*(x-0.064)-226.512111493*(x-0.064)*(x-0.064)-1.39488952037*(x-0.064)+0.9780258536338806'
p903
ss(F0.0155
F0.025
tp904
(dp905
g31
S' -38574.5102805*(x-0.0155)*(x-0.0155)*(x-0.0155)+402.24299534*(x-0.0155)*(x-0.0155)+2.80143174698*(x-0.0155)+1.0171114206314087'
p906
ss(F0.2325
F0.3155
tp907
(dp908
g31
S' -3.72723960068*(x-0.2325)*(x-0.2325)*(x-0.2325)+0.915686085952*(x-0.2325)*(x-0.2325)+0.0*(x-0.2325)+0.8811743259429932'
p909
ss(F0.0055
F0.0155
tp910
(dp911
g31
S' -389.931964105*(x-0.0055)*(x-0.0055)*(x-0.0055)+35.579920326*(x-0.0055)*(x-0.0055)+2.20681292969*(x-0.0055)+0.9918752312660217'
p912
ssg22
g7
(g8
(I0
tp913
g10
tp914
Rp915
(I1
(I14
tp916
g17
I00
S'\x00\x00\x00\x00\x00\x00\x00\x00\xbaI\x0c\x02+\x87v?X9\xb4\xc8v\xbe\x8f?\x9a\x99\x99\x99\x99\x99\x99?<\xdfO\x8d\x97n\xa2?J\x0c\x02+\x87\x16\xa9?\xfc\xa9\xf1\xd2Mb\xb0?w\xbe\x9f\x1a/\xdd\xb4?\xd1"\xdb\xf9~j\xbc?\xcf\xf7S\xe3\xa5\x9b\xc4?\xc3\xf5(\\\x8f\xc2\xcd?\xfe\xd4x\xe9&1\xd4?\xac\x1cZd;\xdf\xe5?\x9a\x99\x99\x99\x99\x99\xf1?'
p917
tp918
bs(F0.0815
F0.111
tp919
(dp920
g31
S' -2200.04606955*(x-0.0815)*(x-0.0815)*(x-0.0815)+97.3520385777*(x-0.0815)*(x-0.0815)+0.0*(x-0.0815)+0.9386290311813354'
p921
ss(F0.3155
F0.6835
tp922
(dp923
g31
S' -0.159069671692*(x-0.3155)*(x-0.3155)*(x-0.3155)+0.67357996674*(x-0.3155)*(x-0.3155)+0.0749730294408*(x-0.3155)+0.885351300239563'
p924
ss(F-15.0
F0.0
tp925
(dp926
g31
g44
ss(F0.111
F0.161
tp927
(dp928
g31
S' 495.593242719*(x-0.111)*(x-0.111)*(x-0.111)-44.0797653235*(x-0.111)*(x-0.111)+0.0*(x-0.111)+0.9668692350387573'
p929
ss(F0.025
F0.036000000000000004
tp930
(dp931
g31
S' 22323.4117513*(x-0.025)*(x-0.025)*(x-0.025)-469.913353001*(x-0.025)*(x-0.025)+0.0*(x-0.025)+1.04695463180542'
p932
ss(F0.161
F0.2325
tp933
(dp934
g31
S' 69.7101309137*(x-0.161)*(x-0.161)*(x-0.161)-2.64405341491*(x-0.161)*(x-0.161)-0.69102721196*(x-0.161)+0.9186189770698547'
p935
ss(F0.049
F0.064
tp936
(dp937
g31
S' -3194.07733692*(x-0.049)*(x-0.049)*(x-0.049)+71.1376679668*(x-0.049)*(x-0.049)-1.37301735696*(x-0.049)+0.9933951497077942'
p938
ss(F0.6835
F1.1
tp939
(dp940
g31
S' 0.996232867241'
p941
ss(F0.036000000000000004
F0.049
tp942
(dp943
g31
S' 2696.67287489*(x-0.036)*(x-0.036)*(x-0.036)-19.4436617001*(x-0.036)*(x-0.036)-2.23469530032*(x-0.036)+1.0198075771331787'
p944
ss(F0.0
F0.0055
tp945
(dp946
g31
S' 0.991875231266'
p947
sss(F0.8
F1.6
tp948
(dp949
g6
g7
(g8
(I0
tp950
g10
tp951
Rp952
(I1
(I14
tp953
g17
I00
S'\x00\x00\x00\x00\x00\x00.\xc0\x00\x00\x00\x00\x00\x00\x00\x00y\xe9&1\x08\xacl?{\x14\xaeG\xe1z\x84?L7\x89A`\xe5\x90?\xaa\xf1\xd2Mb\x10\x98?X9\xb4\xc8v\xbe\x9f?\xd3Mb\x10X9\xa4?J\x0c\x02+\x87\x16\xa9?X9\xb4\xc8v\xbe\xaf?c\x10X9\xb4\xc8\xb6?\xecQ\xb8\x1e\x85\xeb\xc1?\x87\x16\xd9\xce\xf7S\xcb?=\n\xd7\xa3p=\xe4?'
p954
tp955
bs(F0.049
F0.062
tp956
(dp957
g31
S' -3851.59408715*(x-0.049)*(x-0.049)*(x-0.049)+75.1060846995*(x-0.049)*(x-0.049)+0.0*(x-0.049)+1.026304006576538'
p958
ss(F0.14
F0.2135
tp959
(dp960
g31
S' 243.259795983*(x-0.14)*(x-0.14)*(x-0.14)-26.8193925071*(x-0.14)*(x-0.14)+0.0*(x-0.14)+0.9609096050262451'
p961
ss(F0.0395
F0.049
tp962
(dp963
g31
S' 70007.5847941*(x-0.0395)*(x-0.0395)*(x-0.0395)-862.390634704*(x-0.0395)*(x-0.0395)-2.56913152362*(x-0.0395)+1.0685187578201294'
p964
ssg22
g7
(g8
(I0
tp965
g10
tp966
Rp967
(I1
(I14
tp968
g17
I00
S'\x00\x00\x00\x00\x00\x00\x00\x00y\xe9&1\x08\xacl?{\x14\xaeG\xe1z\x84?L7\x89A`\xe5\x90?\xaa\xf1\xd2Mb\x10\x98?X9\xb4\xc8v\xbe\x9f?\xd3Mb\x10X9\xa4?J\x0c\x02+\x87\x16\xa9?X9\xb4\xc8v\xbe\xaf?c\x10X9\xb4\xc8\xb6?\xecQ\xb8\x1e\x85\xeb\xc1?\x87\x16\xd9\xce\xf7S\xcb?=\n\xd7\xa3p=\xe4?\x9a\x99\x99\x99\x99\x99\xf1?'
p969
tp970
bs(F0.2135
F0.6325
tp971
(dp972
g31
S' 0.0321853479634*(x-0.2135)*(x-0.2135)*(x-0.2135)+0.0*(x-0.2135)*(x-0.2135)+0.0*(x-0.2135)+0.9126145839691162'
p973
ss(F-15.0
F0.0
tp974
(dp975
g31
g44
ss(F0.0235
F0.031
tp976
(dp977
g31
S' -35979.2841025*(x-0.0235)*(x-0.0235)*(x-0.0235)+168.267023717*(x-0.0235)*(x-0.0235)+3.54749883654*(x-0.0235)+1.0631524324417114'
p978
ss(F0.6325
F1.1
tp979
(dp980
g31
S' 0.914982140064'
p981
ss(F0.0165
F0.0235
tp982
(dp983
g31
S' -7515.689617*(x-0.0165)*(x-0.0165)*(x-0.0165)-79.6324982029*(x-0.0165)*(x-0.0165)+5.76716018508*(x-0.0165)+1.0292621850967407'
p984
ss(F0.031
F0.0395
tp985
(dp986
g31
S' 15004.6538525*(x-0.031)*(x-0.031)*(x-0.031)-342.434720362*(x-0.031)*(x-0.031)+0.0*(x-0.031)+1.0840449333190918'
p987
ss(F0.0
F0.0035
tp988
(dp989
g31
S' 0.904333055019'
p990
ss(F0.08900000000000001
F0.14
tp991
(dp992
g31
S' -8.87614984352*(x-0.089)*(x-0.089)*(x-0.089)+0.679025463029*(x-0.089)*(x-0.089)+0.0*(x-0.089)+0.9603208899497986'
p993
ss(F0.062
F0.08900000000000001
tp994
(dp995
g31
S' 7134.49095478*(x-0.062)*(x-0.062)*(x-0.062)-288.946883669*(x-0.062)*(x-0.062)+0.0*(x-0.062)+1.0305349826812744'
p996
ss(F0.0035
F0.01
tp997
(dp998
g31
S' -15644.1163854*(x-0.0035)*(x-0.0035)*(x-0.0035)-286.048864253*(x-0.0035)*(x-0.0035)+14.6504961527*(x-0.0035)+0.9043330550193787'
p999
ss(F0.01
F0.0165
tp1000
(dp1001
g31
S' 12705.9468586*(x-0.01)*(x-0.01)*(x-0.01)-368.637518834*(x-0.01)*(x-0.01)+8.94896916559*(x-0.01)+0.9831794500350952'
p1002
ssssg414
g7
(g8
(I0
tp1003
g10
tp1004
Rp1005
(I1
(I4
tp1006
g17
I00
S'\x00\x00\x00\x00\x00\x004@\x00\x00\x00\x00\x00\x00>@\x00\x00\x00\x00\x00\x00D@\x00\x00\x00\x00\x00\x00N@'
p1007
tp1008
bs(F40.0
F60.0
tp1009
(dp1010
(F0.0
F0.8
tp1011
(dp1012
g6
g7
(g8
(I0
tp1013
g10
tp1014
Rp1015
(I1
(I14
tp1016
g17
I00
S'\x00\x00\x00\x00\x00\x00.\xc0\x00\x00\x00\x00\x00\x00\x00\x00{\x14\xaeG\xe1zd?\xfa~j\xbct\x93x?\xfc\xa9\xf1\xd2Mb\x80?{\x14\xaeG\xe1z\x84?\x9a\x99\x99\x99\x99\x99\x89?X9\xb4\xc8v\xbe\x8f?\xdb\xf9~j\xbct\x93?\xaa\xf1\xd2Mb\x10\x98?\x08\xac\x1cZd;\x9f?\xf2\xd2Mb\x10X\xa9?\x8d\x97n\x12\x83\xc0\xba?{\x14\xaeG\xe1z\xe2?'
p1017
tp1018
bs(F0.0155
F0.019
tp1019
(dp1020
g31
S' -1511996.48537*(x-0.0155)*(x-0.0155)*(x-0.0155)+6418.94660562*(x-0.0155)*(x-0.0155)+15.7745292479*(x-0.0155)+1.071304440498352'
p1021
ss(F0.008
F0.01
tp1022
(dp1023
g31
S' -815941.94881*(x-0.008)*(x-0.008)*(x-0.008)-749.881573125*(x-0.008)*(x-0.008)+24.9647073464*(x-0.008)+0.9698215126991272'
p1024
ssg22
g7
(g8
(I0
tp1025
g10
tp1026
Rp1027
(I1
(I14
tp1028
g17
I00
S'\x00\x00\x00\x00\x00\x00\x00\x00{\x14\xaeG\xe1zd?\xfa~j\xbct\x93x?\xfc\xa9\xf1\xd2Mb\x80?{\x14\xaeG\xe1z\x84?\x9a\x99\x99\x99\x99\x99\x89?X9\xb4\xc8v\xbe\x8f?\xdb\xf9~j\xbct\x93?\xaa\xf1\xd2Mb\x10\x98?\x08\xac\x1cZd;\x9f?\xf2\xd2Mb\x10X\xa9?\x8d\x97n\x12\x83\xc0\xba?{\x14\xaeG\xe1z\xe2?\x9a\x99\x99\x99\x99\x99\xf1?'
p1029
tp1030
bs(F-15.0
F0.0
tp1031
(dp1032
g31
g44
ss(F0.006
F0.008
tp1033
(dp1034
g31
S' -4861567.60904*(x-0.006)*(x-0.006)*(x-0.006)+15594.6417609*(x-0.006)*(x-0.006)+20.9249516112*(x-0.006)+0.9044855833053589'
p1035
ss(F0.0235
F0.0305
tp1036
(dp1037
g31
S' 217465.548057*(x-0.0235)*(x-0.0235)*(x-0.0235)-2283.38825459*(x-0.0235)*(x-0.0235)+0.0*(x-0.0235)+1.1531484127044678'
p1038
ss(F0.0495
F0.1045
tp1039
(dp1040
g31
S' 225.764482015*(x-0.0495)*(x-0.0495)*(x-0.0495)-22.1640709209*(x-0.0495)*(x-0.0495)+0.0*(x-0.0495)+1.170346736907959'
p1041
ss(F0.019
F0.0235
tp1042
(dp1043
g31
S' -27653.9427792*(x-0.019)*(x-0.019)*(x-0.019)-384.589736221*(x-0.019)*(x-0.019)+5.14128464982*(x-0.019)+1.1403205394744873'
p1044
ss(F0.0305
F0.0495
tp1045
(dp1046
g31
S' -15889.6823721*(x-0.0305)*(x-0.0305)*(x-0.0305)+452.855947605*(x-0.0305)*(x-0.0305)+0.0*(x-0.0305)+1.1158530712127686'
p1047
ss(F0.0025
F0.006
tp1048
(dp1049
g31
S' -422835.265442*(x-0.0025)*(x-0.0025)*(x-0.0025)+4761.56397106*(x-0.0025)*(x-0.0025)+3.13319981872*(x-0.0025)+0.8533192873001099'
p1050
ss(F0.0125
F0.0155
tp1051
(dp1052
g31
S' -47505.7657835*(x-0.0125)*(x-0.0125)*(x-0.0125)+1124.67895703*(x-0.0125)*(x-0.0125)+10.3091111818*(x-0.0125)+1.031537652015686'
p1053
ss(F0.1045
F0.5775
tp1054
(dp1055
g31
S' 0.530036058541*(x-0.1045)*(x-0.1045)*(x-0.1045)+0.0125273105103*(x-0.1045)*(x-0.1045)-0.389235127006*(x-0.1045)+1.140861988067627'
p1056
ss(F0.0
F0.0025
tp1057
(dp1058
g31
S' 0.8533192873'
p1059
ss(F0.5775
F1.1
tp1060
(dp1061
g31
S' 1.01564693451'
p1062
ss(F0.01
F0.0125
tp1063
(dp1064
g31
S' 869113.543158*(x-0.01)*(x-0.01)*(x-0.01)-3632.12908412*(x-0.01)*(x-0.01)+12.1738776682*(x-0.01)+1.0102238655090332'
p1065
sssg88
g7
(g8
(I0
tp1066
g10
tp1067
Rp1068
(I1
(I3
tp1069
g17
I00
S'\x9a\x99\x99\x99\x99\x99\xe9?\x9a\x99\x99\x99\x99\x99\xf9?\x00\x00\x00\x00\x00\x00\x04@'
p1070
tp1071
bsg81
g7
(g8
(I0
tp1072
g10
tp1073
Rp1074
(I1
(I3
tp1075
g17
I00
S'\x00\x00\x00\x00\x00\x00\x00\x00\x9a\x99\x99\x99\x99\x99\xe9?\x9a\x99\x99\x99\x99\x99\xf9?'
p1076
tp1077
bs(F1.6
F2.5
tp1078
(dp1079
g6
g7
(g8
(I0
tp1080
g10
tp1081
Rp1082
(I1
(I14
tp1083
g17
I00
S'\x00\x00\x00\x00\x00\x00.\xc0\x00\x00\x00\x00\x00\x00\x00\x00y\xe9&1\x08\xacl?\xdb\xf9~j\xbct\x83?\xb8\x1e\x85\xebQ\xb8\x8e?j\xbct\x93\x18\x04\x96?\x18\x04V\x0e-\xb2\x9d?333333\xa3?R\xb8\x1e\x85\xebQ\xa8?\xb0rh\x91\xed|\xaf?\xaeG\xe1z\x14\xae\xb7?\xd7\xa3p=\n\xd7\xc3?\x12\x83\xc0\xca\xa1E\xce?\xcf\xf7S\xe3\xa5\x9b\xe4?'
p1084
tp1085
bs(F0.644
F1.1
tp1086
(dp1087
g31
S' 0.88374710083'
p1088
ss(F0.0375
F0.0475
tp1089
(dp1090
g31
S' -91443.3002472*(x-0.0375)*(x-0.0375)*(x-0.0375)+1371.64950371*(x-0.0375)*(x-0.0375)+0.0*(x-0.0375)+1.0217747688293457'
p1091
ss(F0.0095
F0.015
tp1092
(dp1093
g31
S' -158112.222516*(x-0.0095)*(x-0.0095)*(x-0.0095)+1209.01176703*(x-0.0095)*(x-0.0095)+6.6522534251*(x-0.0095)+0.9721881747245789'
p1094
ss(F0.0615
F0.0925
tp1095
(dp1096
g31
S' -2797.96699323*(x-0.0615)*(x-0.0615)*(x-0.0615)+130.105465185*(x-0.0615)*(x-0.0615)+0.0*(x-0.0615)+0.981817364692688'
p1097
ss(F0.0215
F0.028999999999999998
tp1098
(dp1099
g31
S' -1734.02247442*(x-0.0215)*(x-0.0215)*(x-0.0215)-42.7262690577*(x-0.0215)*(x-0.0215)+0.933510328424*(x-0.0215)+1.0457828044891357'
p1100
ss(F-15.0
F0.0
tp1101
(dp1102
g31
g44
ss(F0.0925
F0.155
tp1103
(dp1104
g31
S' 230.546386719*(x-0.0925)*(x-0.0925)*(x-0.0925)-21.6137237549*(x-0.0925)*(x-0.0925)+0.0*(x-0.0925)+1.0234944820404053'
p1105
ss(F0.015
F0.0215
tp1106
(dp1107
g31
S' -40039.1206399*(x-0.015)*(x-0.015)*(x-0.015)+31.2130923393*(x-0.015)*(x-0.015)+5.60269866912*(x-0.015)+1.0190422534942627'
p1108
ss(F0.155
F0.2365
tp1109
(dp1110
g31
S' -108.74173913*(x-0.155)*(x-0.155)*(x-0.155)+13.2936776086*(x-0.155)*(x-0.155)+0.0*(x-0.155)+0.9953516125679016'
p1111
ss(F0.028999999999999998
F0.0375
tp1112
(dp1113
g31
S' 90777.8375968*(x-0.029)*(x-0.029)*(x-0.029)-1157.41742936*(x-0.029)*(x-0.029)+0.0*(x-0.029)+1.0496492385864258'
p1114
ssg22
g7
(g8
(I0
tp1115
g10
tp1116
Rp1117
(I1
(I14
tp1118
g17
I00
S'\x00\x00\x00\x00\x00\x00\x00\x00y\xe9&1\x08\xacl?\xdb\xf9~j\xbct\x83?\xb8\x1e\x85\xebQ\xb8\x8e?j\xbct\x93\x18\x04\x96?\x18\x04V\x0e-\xb2\x9d?333333\xa3?R\xb8\x1e\x85\xebQ\xa8?\xb0rh\x91\xed|\xaf?\xaeG\xe1z\x14\xae\xb7?\xd7\xa3p=\n\xd7\xc3?\x12\x83\xc0\xca\xa1E\xce?\xcf\xf7S\xe3\xa5\x9b\xe4?\x9a\x99\x99\x99\x99\x99\xf1?'
p1119
tp1120
bs(F0.0
F0.0035
tp1121
(dp1122
g31
S' 0.939620733261'
p1123
ss(F0.0475
F0.0615
tp1124
(dp1125
g31
S' 62448.2902772*(x-0.0475)*(x-0.0475)*(x-0.0475)-1311.41409582*(x-0.0475)*(x-0.0475)+0.0*(x-0.0475)+1.067496418952942'
p1126
ss(F0.0035
F0.0095
tp1127
(dp1128
g31
S' -10787.7152066*(x-0.0035)*(x-0.0035)*(x-0.0035)+333.5103349*(x-0.0035)*(x-0.0035)+3.81520264862*(x-0.0035)+0.9396207332611084'
p1129
ss(F0.2365
F0.644
tp1130
(dp1131
g31
S' -1.46498496517*(x-0.2365)*(x-0.2365)*(x-0.2365)-0.25235625638*(x-0.2365)*(x-0.2365)+0.0*(x-0.2365)+1.0247849225997925'
p1132
sss(F0.8
F1.6
tp1133
(dp1134
g6
g7
(g8
(I0
tp1135
g10
tp1136
Rp1137
(I1
(I14
tp1138
g17
I00
S'\x00\x00\x00\x00\x00\x00.\xc0\x00\x00\x00\x00\x00\x00\x00\x00\xfa~j\xbct\x93h?\xfc\xa9\xf1\xd2Mb\x80?\x9a\x99\x99\x99\x99\x99\x89?\xecQ\xb8\x1e\x85\xeb\x91?Zd;\xdfO\x8d\x97?h\x91\xed|?5\x9e?\x8cl\xe7\xfb\xa9\xf1\xa2?\n\xd7\xa3p=\n\xa7?)\\\x8f\xc2\xf5(\xac?\xbbI\x0c\x02+\x87\xb6?\xd5x\xe9&1\x08\xc4?\x87\x16\xd9\xce\xf7S\xe3?'
p1139
tp1140
bs(F0.055
F0.08800000000000001
tp1141
(dp1142
g31
S' -113.857238958*(x-0.055)*(x-0.055)*(x-0.055)+34.3509130413*(x-0.055)*(x-0.055)-2.64559621251*(x-0.055)+1.0586622953414917'
p1143
ss(F0.1565
F0.604
tp1144
(dp1145
g31
S' -0.0421858630193*(x-0.1565)*(x-0.1565)*(x-0.1565)+0.185572741206*(x-0.1565)*(x-0.1565)-0.140743655185*(x-0.1565)+0.9741532802581787'
p1146
ss(F0.037000000000000005
F0.045
tp1147
(dp1148
g31
S' -217493.157834*(x-0.037)*(x-0.037)*(x-0.037)+2609.91789401*(x-0.037)*(x-0.037)+0.0*(x-0.037)+1.049426555633545'
p1149
ssg22
g7
(g8
(I0
tp1150
g10
tp1151
Rp1152
(I1
(I14
tp1153
g17
I00
S'\x00\x00\x00\x00\x00\x00\x00\x00\xfa~j\xbct\x93h?\xfc\xa9\xf1\xd2Mb\x80?\x9a\x99\x99\x99\x99\x99\x89?\xecQ\xb8\x1e\x85\xeb\x91?Zd;\xdfO\x8d\x97?h\x91\xed|?5\x9e?\x8cl\xe7\xfb\xa9\xf1\xa2?\n\xd7\xa3p=\n\xa7?)\\\x8f\xc2\xf5(\xac?\xbbI\x0c\x02+\x87\xb6?\xd5x\xe9&1\x08\xc4?\x87\x16\xd9\xce\xf7S\xe3?\x9a\x99\x99\x99\x99\x99\xf1?'
p1154
tp1155
bs(F-15.0
F0.0
tp1156
(dp1157
g31
g44
ss(F0.003
F0.008
tp1158
(dp1159
g31
S' -74306.6309533*(x-0.003)*(x-0.003)*(x-0.003)-695.926637655*(x-0.003)*(x-0.003)+22.9448805776*(x-0.003)+0.8985859751701355'
p1160
ss(F0.0175
F0.023
tp1161
(dp1162
g31
S' -447447.983317*(x-0.0175)*(x-0.0175)*(x-0.0175)+3244.87576787*(x-0.0175)*(x-0.0175)+4.9122710394*(x-0.0175)+1.0371299982070923'
p1163
ss(F0.604
F1.1
tp1164
(dp1165
g31
S' 0.944552123547'
p1166
ss(F0.045
F0.055
tp1167
(dp1168
g31
S' 66429.0552699*(x-0.045)*(x-0.045)*(x-0.045)-1128.71563967*(x-0.045)*(x-0.045)+0.0*(x-0.045)+1.1051048040390015'
p1169
ss(F0.0
F0.003
tp1170
(dp1171
g31
S' 0.89858597517'
p1172
ss(F0.0295
F0.037000000000000005
tp1173
(dp1174
g31
S' 99721.0951302*(x-0.0295)*(x-0.0295)*(x-0.0295)-981.821998107*(x-0.0295)*(x-0.0295)-2.10060483162*(x-0.0295)+1.0783387422561646'
p1175
ss(F0.023
F0.0295
tp1176
(dp1177
g31
S' 19627.5992256*(x-0.023)*(x-0.023)*(x-0.023)-352.954079498*(x-0.023)*(x-0.023)+0.0*(x-0.023)+1.0878608226776123'
p1178
ss(F0.08800000000000001
F0.1565
tp1179
(dp1180
g31
S' -0.00704408652609*(x-0.088)*(x-0.088)*(x-0.088)+4.45082521261*(x-0.088)*(x-0.088)-0.750407551468*(x-0.088)+1.0046740770339966'
p1181
ss(F0.0125
F0.0175
tp1182
(dp1183
g31
S' 113418.777196*(x-0.0125)*(x-0.0125)*(x-0.0125)-827.969716732*(x-0.0125)*(x-0.0125)+4.685559917*(x-0.0125)+1.0202240943908691'
p1184
ss(F0.008
F0.0125
tp1185
(dp1186
g31
S' 8135.78378359*(x-0.008)*(x-0.008)*(x-0.008)-691.25620304*(x-0.008)*(x-0.008)+10.4126168795*(x-0.008)+0.9866238832473755'
p1187
ssssg329
g7
(g8
(I0
tp1188
g10
tp1189
Rp1190
(I1
(I4
tp1191
g17
I00
S'\x00\x00\x00\x00\x00\x00>@\x00\x00\x00\x00\x00\x00D@\x00\x00\x00\x00\x00\x00N@\x00\x00\x00\x00\x00\x88\xc3@'
p1192
tp1193
bss.