(dp0
I0
(dp1
S'pt_lis_UB'
p2
cnumpy.core.multiarray
_reconstruct
p3
(cnumpy
ndarray
p4
(I0
tp5
S'b'
p6
tp7
Rp8
(I1
(I1
tp9
cnumpy
dtype
p10
(S'i8'
p11
I0
I1
tp12
Rp13
(I3
S'<'
p14
NNNI-1
I-1
I0
tp15
bI00
S'\xe8\x03\x00\x00\x00\x00\x00\x00'
p16
tp17
bsS'pt_lis_LB'
p18
g3
(g4
(I0
tp19
g6
tp20
Rp21
(I1
(I1
tp22
g13
I00
S'\x14\x00\x00\x00\x00\x00\x00\x00'
p23
tp24
bs(I20
I1000
tp25
(dp26
(F0.0
F2.5
tp27
(dp28
(I0
I1
tp29
(dp30
S'formula'
p31
S'1.41865+92.0563/(pow(x,1.5))+-9.85825/x '
p32
ssS'disc_lis_LB'
p33
g3
(g4
(I0
tp34
g6
tp35
Rp36
(I1
(I1
tp37
g13
I00
S'\x00\x00\x00\x00\x00\x00\x00\x00'
p38
tp39
bsS'disc_lis_UB'
p40
g3
(g4
(I0
tp41
g6
tp42
Rp43
(I1
(I1
tp44
g13
I00
S'\x01\x00\x00\x00\x00\x00\x00\x00'
p45
tp46
bssS'eta_lis_LB'
p47
g3
(g4
(I0
tp48
g6
tp49
Rp50
(I1
(I1
tp51
g10
(S'f8'
p52
I0
I1
tp53
Rp54
(I3
S'<'
p55
NNNI-1
I-1
I0
tp56
bI00
S'\x00\x00\x00\x00\x00\x00\x00\x00'
p57
tp58
bsS'eta_lis_UB'
p59
g3
(g4
(I0
tp60
g6
tp61
Rp62
(I1
(I1
tp63
g54
I00
S'\x00\x00\x00\x00\x00\x00\x04@'
p64
tp65
bsssI4
(dp66
g2
g3
(g4
(I0
tp67
g6
tp68
Rp69
(I1
(I1
tp70
g13
I00
S'\xe8\x03\x00\x00\x00\x00\x00\x00'
p71
tp72
bsg18
g3
(g4
(I0
tp73
g6
tp74
Rp75
(I1
(I1
tp76
g13
I00
S'\x14\x00\x00\x00\x00\x00\x00\x00'
p77
tp78
bs(I20
I1000
tp79
(dp80
(F0.0
F2.5
tp81
(dp82
(I0
I1
tp83
(dp84
g31
S'1.01737*(1.+0.00646729*x)/(1.+0.00676393*x) '
p85
ssg33
g3
(g4
(I0
tp86
g6
tp87
Rp88
(I1
(I1
tp89
g13
I00
S'\x00\x00\x00\x00\x00\x00\x00\x00'
p90
tp91
bsg40
g3
(g4
(I0
tp92
g6
tp93
Rp94
(I1
(I1
tp95
g13
I00
S'\x01\x00\x00\x00\x00\x00\x00\x00'
p96
tp97
bssg47
g3
(g4
(I0
tp98
g6
tp99
Rp100
(I1
(I1
tp101
g54
I00
S'\x00\x00\x00\x00\x00\x00\x00\x00'
p102
tp103
bsg59
g3
(g4
(I0
tp104
g6
tp105
Rp106
(I1
(I1
tp107
g54
I00
S'\x00\x00\x00\x00\x00\x00\x04@'
p108
tp109
bsssI5
(dp110
g2
g3
(g4
(I0
tp111
g6
tp112
Rp113
(I1
(I1
tp114
g13
I00
S'\xe8\x03\x00\x00\x00\x00\x00\x00'
p115
tp116
bsg18
g3
(g4
(I0
tp117
g6
tp118
Rp119
(I1
(I1
tp120
g13
I00
S'\x14\x00\x00\x00\x00\x00\x00\x00'
p121
tp122
bs(I20
I1000
tp123
(dp124
(F0.0
F2.5
tp125
(dp126
(I0
I1
tp127
(dp128
g31
g85
ssg33
g3
(g4
(I0
tp129
g6
tp130
Rp131
(I1
(I1
tp132
g13
I00
S'\x00\x00\x00\x00\x00\x00\x00\x00'
p133
tp134
bsg40
g3
(g4
(I0
tp135
g6
tp136
Rp137
(I1
(I1
tp138
g13
I00
S'\x01\x00\x00\x00\x00\x00\x00\x00'
p139
tp140
bssg47
g3
(g4
(I0
tp141
g6
tp142
Rp143
(I1
(I1
tp144
g54
I00
S'\x00\x00\x00\x00\x00\x00\x00\x00'
p145
tp146
bsg59
g3
(g4
(I0
tp147
g6
tp148
Rp149
(I1
(I1
tp150
g54
I00
S'\x00\x00\x00\x00\x00\x00\x04@'
p151
tp152
bsss.