(dp0
I2016
(dp1
S'signal'
p2
(dp3
S'GJets'
p4
(dp5
S'xsec'
p6
F365400.0
sS'fraction_negative_weight'
p7
F0.0
sS'xsec_unc'
p8
F382.7
sS'nevents'
p9
I19794775
sS'das_path'
p10
S'/GJet_Pt-15To6000_TuneCUETP8M1-Flat_13TeV_pythia8_20M/RunIISummer16NanoAODv7-PUMoriond17_Nano02Apr2020_102X_mcRun2_asymptotic_v8-v1/NANOAODSIM'
p11
sS'equivalent_lumi'
p12
F0.002737
sS'dir'
p13
S'/eos/cms/store/group/phys_smp/AnalysisFramework/Baobab/Metin/gammaplusb/2016/MC/GJet_Pt-15To6000_TuneCUETP8M1-Flat_13TeV_pythia8_20M/'
p14
sssS'bkg'
p15
(dp16
S'QCD'
p17
(dp18
g6
F1370000000.0
sg7
F0.0
sg8
F2159000.0
sg9
I9879256
sg10
S'/QCD_Pt-15to7000_TuneCUETP8M1_FlatP6_13TeV_pythia8/RunIISummer16NanoAODv7-PUMoriond17_Nano02Apr2020_102X_mcRun2_asymptotic_v8-v1/NANOAODSIM'
p19
sg12
F7.301e-07
sg13
S'/eos/cms/store/group/phys_smp/AnalysisFramework/Baobab/Metin/gammaplusb/2016/MC/QCD_Pt-15to7000_TuneCUETP8M1_FlatP6_13TeV_pythia8/'
p20
ssS'TTGJets'
p21
(dp22
g6
F3.795
sg7
F0.3381
sg8
F0.02629
sg9
I9877942
sg10
S'/TTGJets_TuneCP5_13TeV-amcatnloFXFX-madspin-pythia8/RunIIFall17NanoAODv7-PU2017_12Apr2018_Nano02Apr2020_102X_mc2017_realistic_v8_ext1-v1/NANOAODSIM'
p23
sg12
F27.63
sg13
S'/eos/cms/store/group/phys_smp/AnalysisFramework/Baobab/Metin/gammaplusb/2016/MC/TTGJets_TuneCUETP8M1_13TeV-amcatnloFXFX-madspin-pythia8/'
p24
ssS'ST_t_channel_top'
p25
(dp26
g6
F136.82
sg7
F0.0
sg8
F0.0
sg9
I58403420
sg10
S'/ST_t-channel_top_4f_inclusiveDecays_13TeV-powhegV2-madspin-pythia8_TuneCUETP8M1/RunIISummer16NanoAODv7-PUMoriond17_Nano02Apr2020_102X_mcRun2_asymptotic_v8-v2/NANOAODSIM'
p27
sg12
F0.0
sg13
S'/eos/cms/store/group/phys_smp/AnalysisFramework/Baobab/Metin/gammaplusb/2016/MC/ST_t-channel_top_4f_inclusiveDecays_13TeV-powhegV2-madspin-pythia8_TuneCUETP8M1/'
p28
ssS'ST_t_channel_antitop'
p29
(dp30
g6
F81.42
sg7
F0.0
sg8
F0.0
sg9
I38811017
sg10
S'/ST_t-channel_antitop_4f_inclusiveDecays_13TeV-powhegV2-madspin-pythia8_TuneCUETP8M1/RunIISummer16NanoAODv7-PUMoriond17_Nano02Apr2020_102X_mcRun2_asymptotic_v8-v1/NANOAODSIM'
p31
sg12
F0.0
sg13
S'/eos/cms/store/group/phys_smp/AnalysisFramework/Baobab/Metin/gammaplusb/2016/MC/ST_t-channel_antitop_4f_inclusiveDecays_13TeV-powhegV2-madspin-pythia8_TuneCUETP8M1/'
p32
ssS'TGJets'
p33
(dp34
g6
F2.967
sg7
F0.4008
sg8
F0.01052
sg9
I1556996
sg10
S'/TGJets_TuneCP5_13TeV_amcatnlo_madspin_pythia8/RunIIFall17NanoAODv7-PU2017_12Apr2018_Nano02Apr2020_102X_mc2017_realistic_v8-v1/NANOAODSIM'
p35
sg12
F13.27
sg13
S'/eos/cms/store/group/phys_smp/AnalysisFramework/Baobab/Metin/gammaplusb/2016/MC/TGJets_TuneCUETP8M1_13TeV_amcatnlo_madspin_pythia8/'
p36
ssS'ST_tW_antitop'
p37
(dp38
g6
F38.06
sg7
F0.0
sg8
F0.03055
sg9
I6933094
sg10
S'/ST_tW_antitop_5f_inclusiveDecays_13TeV-powheg-pythia8_TuneCUETP8M1/RunIISummer16NanoAODv7-PUMoriond17_Nano02Apr2020_102X_mcRun2_asymptotic_v8_ext1-v1/NANOAODSIM'
p39
sg12
F26.27
sg13
S'/eos/cms/store/group/phys_smp/AnalysisFramework/Baobab/Metin/gammaplusb/2016/MC/ST_tW_antitop_5f_inclusiveDecays_13TeV-powheg-pythia8_TuneCUETP8M1/'
p40
ssS'QCD_HT'
p41
(dp42
S'QCD_HT_1500To2000'
p43
(dp44
g6
F119.9
sg7
F0.0
sg8
F0.1159
sg9
I7868538
sg10
S'/QCD_HT1500to2000_TuneCUETP8M1_13TeV-madgraphMLM-pythia8/RunIISummer16NanoAODv7-PUMoriond17_Nano02Apr2020_102X_mcRun2_asymptotic_v8_ext1-v1/NANOAODSIM'
p45
sg12
F8.335
sg13
S'/eos/cms/store/group/phys_smp/AnalysisFramework/Baobab/Metin/gammaplusb/2016/MC/QCD_HT1500to2000_TuneCUETP8M1_13TeV-madgraphMLM-pythia8/'
p46
ssS'QCD_HT_200To300'
p47
(dp48
g6
F1712000.0
sg7
F0.0
sg8
F1626.0
sg9
I38857977
sg10
S'/QCD_HT200to300_TuneCUETP8M1_13TeV-madgraphMLM-pythia8/RunIISummer16NanoAODv7-PUMoriond17_Nano02Apr2020_102X_mcRun2_asymptotic_v8_ext1-v1/NANOAODSIM'
p49
sg12
F0.0005846
sg13
S'/eos/cms/store/group/phys_smp/AnalysisFramework/Baobab/Metin/gammaplusb/2016/MC/QCD_HT200to300_TuneCUETP8M1_13TeV-madgraphMLM-pythia8/'
p50
ssS'QCD_HT_2000ToInf'
p51
(dp52
g6
F25.24
sg7
F0.0
sg8
F0.02437
sg9
I3812534
sg10
S'/QCD_HT2000toInf_TuneCUETP8M1_13TeV-madgraphMLM-pythia8/RunIISummer16NanoAODv7-PUMoriond17_Nano02Apr2020_102X_mcRun2_asymptotic_v8_ext1-v1/NANOAODSIM'
p53
sg12
F39.6
sg13
S'/eos/cms/store/group/phys_smp/AnalysisFramework/Baobab/Metin/gammaplusb/2016/MC/QCD_HT2000toInf_TuneCUETP8M1_13TeV-madgraphMLM-pythia8/'
p54
ssS'QCD_HT_700To1000'
p55
(dp56
g6
F6831.0
sg7
F0.0
sg8
F6.593
sg9
I21604533
sg10
S'/QCD_HT700to1000_TuneCUETP8M1_13TeV-madgraphMLM-pythia8/RunIISummer16NanoAODv7-PUMoriond17_Nano02Apr2020_102X_mcRun2_asymptotic_v8_ext1-v1/NANOAODSIM'
p57
sg12
F0.1464
sg13
S'/eos/cms/store/group/phys_smp/AnalysisFramework/Baobab/Metin/gammaplusb/2016/MC/QCD_HT700to1000_TuneCUETP8M1_13TeV-madgraphMLM-pythia8/'
p58
ssS'QCD_HT_100To200'
p59
(dp60
g6
F27990000.0
sg7
F0.0
sg8
F26130.0
sg9
I82293477
sg10
S'/QCD_HT100to200_TuneCUETP8M1_13TeV-madgraphMLM-pythia8/RunIISummer16NanoAODv7-PUMoriond17_Nano02Apr2020_102X_mcRun2_asymptotic_v8-v1/NANOAODSIM'
p61
sg12
F3.564e-05
sg13
S'/eos/cms/store/group/phys_smp/AnalysisFramework/Baobab/Metin/gammaplusb/2016/MC/QCD_HT100to200_TuneCUETP8M1_13TeV-madgraphMLM-pythia8/'
p62
ssS'QCD_HT_300To500'
p63
(dp64
g6
F347700.0
sg7
F0.0
sg8
F332.9
sg9
I37516961
sg10
S'/QCD_HT300to500_TuneCUETP8M1_13TeV-madgraphMLM-pythia8/RunIISummer16NanoAODv7-PUMoriond17_Nano02Apr2020_102X_mcRun2_asymptotic_v8_ext1-v1/NANOAODSIM'
p65
sg12
F0.002878
sg13
S'/eos/cms/store/group/phys_smp/AnalysisFramework/Baobab/Metin/gammaplusb/2016/MC/QCD_HT300to500_TuneCUETP8M1_13TeV-madgraphMLM-pythia8/'
p66
ssS'QCD_HT_50To100'
p67
(dp68
g6
F246400000.0
sg7
F0.0
sg8
F218700.0
sg9
I4180469
sg10
S'/QCD_HT50to100_TuneCUETP8M1_13TeV-madgraphMLM-pythia8/RunIISummer16NanoAODv7-PUMoriond17_Nano02Apr2020_102X_mcRun2_asymptotic_v8-v1/NANOAODSIM'
p69
sg12
F4.061e-06
sg13
S'/eos/cms/store/group/phys_smp/AnalysisFramework/Baobab/Metin/gammaplusb/2016/MC/QCD_HT50to100_TuneCUETP8M1_13TeV-madgraphMLM-pythia8/'
p70
ssS'QCD_HT_500To700'
p71
(dp72
g6
F32100.0
sg7
F0.0
sg8
F30.88
sg9
I44061488
sg10
S'/QCD_HT500to700_TuneCUETP8M1_13TeV-madgraphMLM-pythia8/RunIISummer16NanoAODv7-PUMoriond17_Nano02Apr2020_102X_mcRun2_asymptotic_v8_ext1-v1/NANOAODSIM'
p73
sg12
F0.03119
sg13
S'/eos/cms/store/group/phys_smp/AnalysisFramework/Baobab/Metin/gammaplusb/2016/MC/QCD_HT500to700_TuneCUETP8M1_13TeV-madgraphMLM-pythia8/'
p74
ssS'QCD_HT_1000To1500'
p75
(dp76
g6
F1207.0
sg7
F0.0
sg8
F1.166
sg9
I10360193
sg10
S'/QCD_HT1000to1500_TuneCUETP8M1_13TeV-madgraphMLM-pythia8/RunIISummer16NanoAODv7-PUMoriond17_Nano02Apr2020_102X_mcRun2_asymptotic_v8_ext1-v1/NANOAODSIM'
p77
sg12
F0.8285
sg13
S'/eos/cms/store/group/phys_smp/AnalysisFramework/Baobab/Metin/gammaplusb/2016/MC/QCD_HT1000to1500_TuneCUETP8M1_13TeV-madgraphMLM-pythia8/'
p78
sssS'TTJets'
p79
(dp80
g6
F511.3
sg7
F0.0
sg8
F1.412
sg9
I10199051
sg10
S'/TTJets_TuneCUETP8M1_13TeV-madgraphMLM-pythia8/RunIISummer16NanoAODv7-PUMoriond17_Nano02Apr2020_102X_mcRun2_asymptotic_v8-v1/NANOAODSIM'
p81
sg12
F1.956
sg13
S'/eos/cms/store/group/phys_smp/AnalysisFramework/Baobab/Metin/gammaplusb/2016/MC/TTJets_TuneCUETP8M1_13TeV-madgraphMLM-pythia8/'
p82
ssS'ST_s_channel'
p83
(dp84
g6
F10.12
sg7
F0.1857
sg8
F0.01334
sg9
I2917199
sg10
S'/ST_s-channel_4f_InclusiveDecays_13TeV-amcatnlo-pythia8/RunIISummer16NanoAODv7-PUMoriond17_Nano02Apr2020_102X_mcRun2_asymptotic_v8-v1/NANOAODSIM'
p85
sg12
F39.05
sg13
S'/eos/cms/store/group/phys_smp/AnalysisFramework/Baobab/Metin/gammaplusb/2016/MC/ST_s-channel_4f_InclusiveDecays_13TeV-amcatnlo-pythia8/'
p86
ssS'QCD_h1'
p87
(dp88
g6
F964800.0
sg7
F0.0
sg8
F92360.0
sg9
I9497268
sg10
S'/QCD_Pt-15to7000_TuneCUETHS1_FlatP6_13TeV_herwigpp/RunIISummer16NanoAODv7-PUMoriond17_Nano02Apr2020_102X_mcRun2_asymptotic_v8-v1/NANOAODSIM'
p89
sg12
F7.301e-07
sg13
S'/eos/cms/store/group/phys_smp/AnalysisFramework/Baobab/Metin/gammaplusb/2016/MC/QCD_Pt-15to7000_TuneCUETHS1_FlatP6_13TeV_herwigpp/'
p90
ssS'QCD_h2'
p91
(dp92
g6
F309800000.0
sg7
F0.0
sg8
F7932000.0
sg9
I9865688
sg10
S'/QCD_Pt-15to7000_TuneCUETHS1_Flat_13TeV_herwigpp/RunIISummer16NanoAODv7-PUMoriond17_Nano02Apr2020_102X_mcRun2_asymptotic_v8-v1/NANOAODSIM'
p93
sg12
F7.301e-07
sg13
S'/eos/cms/store/group/phys_smp/AnalysisFramework/Baobab/Metin/gammaplusb/2016/MC/QCD_Pt-15to7000_TuneCUETHS1_Flat_13TeV_herwigpp/'
p94
ssS'ST_tW_top'
p95
(dp96
g6
F38.09
sg7
F0.0
sg8
F0.0305
sg9
I6952830
sg10
S'/ST_tW_top_5f_inclusiveDecays_13TeV-powheg-pythia8_TuneCUETP8M1/RunIISummer16NanoAODv7-PUMoriond17_Nano02Apr2020_102X_mcRun2_asymptotic_v8_ext1-v1/NANOAODSIM'
p97
sg12
F26.25
sg13
S'/eos/cms/store/group/phys_smp/AnalysisFramework/Baobab/Metin/gammaplusb/2016/MC/ST_tW_top_5f_inclusiveDecays_13TeV-powheg-pythia8_TuneCUETP8M1/'
p98
sssS'data'
p99
(dp100
S'SinglePhoton'
p101
(dp102
S'C'
p103
(dp104
g6
I1
sg7
F0.0
sg8
I1
sg13
S'/eos/user/e/ecasilar/SMPVJ_Gamma_BJETS/data_lumiapplied_loose/SinglePhoton/Run2016C_02Apr2020-v1'
p105
sg12
I1
sg10
S'/SinglePhoton/Run2016C-02Apr2020-v1/NANOAOD'
p106
ssS'B'
p107
(dp108
g6
I1
sg7
F0.0
sg8
I1
sg13
S'/eos/user/e/ecasilar/SMPVJ_Gamma_BJETS/data_lumiapplied_loose/SinglePhoton/Run2016B_02Apr2020-v1'
p109
sg12
I1
sg10
S'/SinglePhoton/Run2016B-02Apr2020_ver2-v1/NANOAOD'
p110
ssS'E'
p111
(dp112
g6
I1
sg7
F0.0
sg8
I1
sg13
S'/eos/user/e/ecasilar/SMPVJ_Gamma_BJETS/data_lumiapplied_loose/SinglePhoton/Run2016E_02Apr2020-v1'
p113
sg12
I1
sg10
S'/SinglePhoton/Run2016E-02Apr2020-v1/NANOAOD'
p114
ssS'D'
p115
(dp116
g6
I1
sg7
F0.0
sg8
I1
sg13
S'/eos/user/e/ecasilar/SMPVJ_Gamma_BJETS/data_lumiapplied_loose/SinglePhoton/Run2016D_02Apr2020-v1'
p117
sg12
I1
sg10
S'/SinglePhoton/Run2016D-02Apr2020-v1/NANOAOD'
p118
ssS'G'
p119
(dp120
g6
I1
sg7
F0.0
sg8
I1
sg13
S'/eos/user/e/ecasilar/SMPVJ_Gamma_BJETS/data_lumiapplied_loose/SinglePhoton/Run2016G_02Apr2020-v1'
p121
sg12
I1
sg10
S'/SinglePhoton/Run2016G-02Apr2020-v1/NANOAOD'
p122
ssS'F'
p123
(dp124
g6
I1
sg7
F0.0
sg8
I1
sg13
S'/eos/user/e/ecasilar/SMPVJ_Gamma_BJETS/data_lumiapplied_loose/SinglePhoton/Run2016F_02Apr2020-v1'
p125
sg12
I1
sg10
S'/SinglePhoton/Run2016F-02Apr2020-v1/NANOAOD'
p126
ssS'H'
p127
(dp128
g6
I1
sg7
F0.0
sg8
I1
sg13
S'/eos/user/e/ecasilar/SMPVJ_Gamma_BJETS/data_lumiapplied_loose/SinglePhoton/Run2016H_02Apr2020-v1'
p129
sg12
I1
sg10
S'/SinglePhoton/Run2016H-02Apr2020-v1/NANOAOD'
p130
sssS'SingleMuon'
p131
(dp132
g103
(dp133
g6
I1
sg7
F0.0
sg8
I1
sg13
S'/eos/cms/store/group/phys_smp/AnalysisFramework/Baobab/Metin/gammaplusb/2016/data/SingleMuon/Run2016C_02Apr2020-v1'
p134
sg12
I1
sg10
S'/SingleMuon/Run2016C-02Apr2020-v1/NANOAOD'
p135
ssg107
(dp136
g6
I1
sg7
F0.0
sg8
I1
sg13
S'/eos/cms/store/group/phys_smp/AnalysisFramework/Baobab/Metin/gammaplusb/2016/data/SingleMuon/Run2016B_02Apr2020-v1'
p137
sg12
I1
sg10
S'/SingleMuon/Run2016B-02Apr2020_ver2-v1/NANOAOD'
p138
ssg111
(dp139
g6
I1
sg7
F0.0
sg8
I1
sg13
S'/eos/cms/store/group/phys_smp/AnalysisFramework/Baobab/Metin/gammaplusb/2016/data/SingleMuon/Run2016E_02Apr2020-v1'
p140
sg12
I1
sg10
S'/SingleMuon/Run2016E-02Apr2020-v1/NANOAOD'
p141
ssg115
(dp142
g6
I1
sg7
F0.0
sg8
I1
sg13
S'/eos/cms/store/group/phys_smp/AnalysisFramework/Baobab/Metin/gammaplusb/2016/data/SingleMuon/Run2016D_02Apr2020-v1'
p143
sg12
I1
sg10
S'/SingleMuon/Run2016D-02Apr2020-v1/NANOAOD'
p144
ssg119
(dp145
g6
I1
sg7
F0.0
sg8
I1
sg13
S'/eos/cms/store/group/phys_smp/AnalysisFramework/Baobab/Metin/gammaplusb/2016/data/SingleMuon/Run2016G_02Apr2020-v1'
p146
sg12
I1
sg10
S'/SingleMuon/Run2016G-02Apr2020-v1/NANOAOD'
p147
ssg123
(dp148
g6
I1
sg7
F0.0
sg8
I1
sg13
S'/eos/cms/store/group/phys_smp/AnalysisFramework/Baobab/Metin/gammaplusb/2016/data/SingleMuon/Run2016F_02Apr2020-v1'
p149
sg12
I1
sg10
S'/SingleMuon/Run2016F-02Apr2020-v1/NANOAOD'
p150
ssg127
(dp151
g6
I1
sg7
F0.0
sg8
I1
sg13
S'/eos/cms/store/group/phys_smp/AnalysisFramework/Baobab/Metin/gammaplusb/2016/data/SingleMuon/Run2016H_02Apr2020-v1'
p152
sg12
I1
sg10
S'/SingleMuon/Run2016H-02Apr2020-v1/NANOAOD'
p153
ssssS'GJets_Pt'
p154
(dp155
S'GJets_Pt_1000To2000'
p156
(dp157
g6
F0.02092
sg7
F0.01466
sg8
F0.0001703
sg9
I399578
sg10
S'/GJets_Pt-1000To2000_13TeV-sherpa/RunIISummer16NanoAODv7-PUMoriond17_Nano02Apr2020_102X_mcRun2_asymptotic_v8-v1/NANOAODSIM'
p158
sg12
F45040.0
sg13
S'/eos/cms/store/group/phys_smp/AnalysisFramework/Baobab/Metin/gammaplusb/2016/MC/GJets_Pt-1000To2000_13TeV-sherpa/'
p159
ssS'GJets_Pt_500To1000'
p160
(dp161
g6
F0.9904
sg7
F0.01163
sg8
F0.00919
sg9
I484865
sg10
S'/GJets_Pt-500To1000_13TeV-sherpa/RunIISummer16NanoAODv7-PUMoriond17_Nano02Apr2020_102X_mcRun2_asymptotic_v8-v1/NANOAODSIM'
p162
sg12
F940.6
sg13
S'/eos/cms/store/group/phys_smp/AnalysisFramework/Baobab/Metin/gammaplusb/2016/MC/GJets_Pt-500To10000_3TeV-sherpa/'
p163
ssS'GJets_Pt_100To200'
p164
(dp165
g6
F1032.0
sg7
F0.01085
sg8
F7.109
sg9
I498029
sg10
S'/GJets_Pt-100To200_13TeV-sherpa/RunIISummer16NanoAODv7-PUMoriond17_Nano02Apr2020_102X_mcRun2_asymptotic_v8-v1/NANOAODSIM'
p166
sg12
F0.9342
sg13
S'/eos/cms/store/group/phys_smp/AnalysisFramework/Baobab/Metin/gammaplusb/2016/MC/GJets_Pt-100To200_13TeV-sherpa/'
p167
ssS'GJets_Pt_2000To5000'
p168
(dp169
g6
F7.451e-05
sg7
F0.1247
sg8
F7.843e-07
sg9
I299739
sg10
S'/GJets_Pt-2000To5000_13TeV-sherpa/RunIISummer16NanoAODv7-PUMoriond17_Nano02Apr2020_102X_mcRun2_asymptotic_v8-v1/NANOAODSIM'
p170
sg12
F7537000.0
sg13
S'/eos/cms/store/group/phys_smp/AnalysisFramework/Baobab/Metin/gammaplusb/2016/MC/GJets_Pt-2000To5000_13TeV-sherpa/'
p171
ssS'GJets_Pt_200To500'
p172
(dp173
g6
F70.15
sg7
F0.01032
sg8
F0.6311
sg9
I476434
sg10
S'/GJets_Pt-200To500_13TeV-sherpa/RunIISummer16NanoAODv7-PUMoriond17_Nano02Apr2020_102X_mcRun2_asymptotic_v8-v1/NANOAODSIM'
p174
sg12
F13.97
sg13
S'/eos/cms/store/group/phys_smp/AnalysisFramework/Baobab/Metin/gammaplusb/2016/MC/GJets_Pt-200To500_13TeV-sherpa/'
p175
ssss.