(dp0
I2016
(dp1
S'signal'
p2
(dp3
S'G1Jet_Pt'
p4
(dp5
S'G1Jet_Pt_250To400_NOExt'
p6
(dp7
S'xsec'
p8
F25.48
sS'fraction_negative_weight'
p9
F0.2331
sS'xsec_unc'
p10
F0.07909
sS'nevents'
p11
I1000000
sS'das_path'
p12
S'/G1Jet_Pt-250To400_TuneCUETP8M1_13TeV-amcatnlo-pythia8/RunIISummer16NanoAODv7-PUMoriond17_Nano02Apr2020_102X_mcRun2_asymptotic_v8-v1/NANOAODSIM'
p13
sS'equivalent_lumi'
p14
F11.18
sS'dir'
p15
S'/eos/user/e/ecasilar/SMPVJ_Gamma_BJETS/MC//G1Jet_Pt/G1Jet_Pt-250To400_TuneCUETP8M1_13TeV-amcatnlo-pythia8_NOExt/'
p16
ssS'G1Jet_Pt_400To650_NOExt'
p17
(dp18
g8
F3.14
sg9
F0.2326
sg10
F0.007797
sg11
I982900
sg12
S'/G1Jet_Pt-400To650_TuneCUETP8M1_13TeV-amcatnlo-pythia8/RunIISummer16NanoAODv7-PUMoriond17_Nano02Apr2020_102X_mcRun2_asymptotic_v8-v1/NANOAODSIM'
p19
sg14
F91.08
sg15
S'/eos/user/e/ecasilar/SMPVJ_Gamma_BJETS/MC//G1Jet_Pt/G1Jet_Pt-400To650_TuneCUETP8M1_13TeV-amcatnlo-pythia8_NOExt/'
p20
ssS'G1Jet_Pt_100To250_NOExt'
p21
(dp22
g8
F1155.0
sg9
F0.2257
sg10
F4.489
sg11
I998265
sg12
S'/G1Jet_Pt-100To250_TuneCUETP8M1_13TeV-amcatnlo-pythia8/RunIISummer16NanoAODv7-PUMoriond17_Nano02Apr2020_102X_mcRun2_asymptotic_v8-v1/NANOAODSIM'
p23
sg14
F0.2606
sg15
S'/eos/user/e/ecasilar/SMPVJ_Gamma_BJETS/MC//G1Jet_Pt/G1Jet_Pt-100To250_TuneCUETP8M1_13TeV-amcatnlo-pythia8_NOExt/'
p24
ssS'G1Jet_Pt_650ToInf_NOExt'
p25
(dp26
g8
F0.2939
sg9
F0.2172
sg10
F0.0006189
sg11
I961024
sg12
S'/G1Jet_Pt-650ToInf_TuneCUETP8M1_13TeV-amcatnlo-pythia8/RunIISummer16NanoAODv7-PUMoriond17_Nano02Apr2020_102X_mcRun2_asymptotic_v8-v1/NANOAODSIM'
p27
sg14
F1088.0
sg15
S'/eos/user/e/ecasilar/SMPVJ_Gamma_BJETS/MC//G1Jet_Pt/G1Jet_Pt-650ToInf_TuneCUETP8M1_13TeV-amcatnlo-pythia8_NOExt/'
p28
sssS'GJets'
p29
(dp30
g8
F365400.0
sg9
F0.0
sg10
F382.7
sg11
I19794775
sg12
S'/GJet_Pt-15To6000_TuneCUETP8M1-Flat_13TeV_pythia8_20M/RunIISummer16NanoAODv7-PUMoriond17_Nano02Apr2020_102X_mcRun2_asymptotic_v8-v1/NANOAODSIM'
p31
sg14
F0.002737
sg15
S'/eos/user/e/ecasilar/SMPVJ_Gamma_BJETS/MC/GJet_Pt-15To6000_TuneCUETP8M1-Flat_13TeV_pythia8_20M/'
p32
ssS'GJets_HT'
p33
(dp34
S'GJets_HT_400To600'
p35
(dp36
g8
F274.4
sg9
F0.0
sg10
F0.8368
sg11
I2530341
sg12
S'/GJets_HT-400To600_TuneCUETP8M1_13TeV-madgraphMLM-pythia8/RunIISummer16NanoAODv7-PUMoriond17_Nano02Apr2020_102X_mcRun2_asymptotic_v8_ext1-v1/NANOAODSIM'
p37
sg14
F3.612
sg15
S'/eos/user/e/ecasilar/SMPVJ_Gamma_BJETS/MC/GJets_HT-400To600_TuneCUETP8M1_13TeV-madgraphMLM-pythia8/'
p38
ssS'GJets_HT_200To400'
p39
(dp40
g8
F2305.0
sg9
F0.0
sg10
F6.945
sg11
I10404907
sg12
S'/GJets_HT-200To400_TuneCUETP8M1_13TeV-madgraphMLM-pythia8/RunIISummer16NanoAODv7-PUMoriond17_Nano02Apr2020_102X_mcRun2_asymptotic_v8_ext1-v1/NANOAODSIM'
p41
sg14
F0.4316
sg15
S'/eos/user/e/ecasilar/SMPVJ_Gamma_BJETS/MC/GJets_HT-200To400_TuneCUETP8M1_13TeV-madgraphMLM-pythia8/'
p42
ssS'GJets_HT_100To200'
p43
(dp44
g8
F9238.0
sg9
F0.0
sg10
F27.11
sg11
I4972282
sg12
S'/GJets_HT-100To200_TuneCUETP8M1_13TeV-madgraphMLM-pythia8/RunIISummer16NanoAODv7-PUMoriond17_Nano02Apr2020_102X_mcRun2_asymptotic_v8_ext1-v1/NANOAODSIM'
p45
sg14
F0.1087
sg15
S'/eos/user/e/ecasilar/SMPVJ_Gamma_BJETS/MC/GJets_HT-100To200_TuneCUETP8M1_13TeV-madgraphMLM-pythia8/'
p46
ssS'GJets_HT_600ToInf'
p47
(dp48
g8
F93.46
sg9
F0.0
sg10
F0.2861
sg11
I2616911
sg12
S'/GJets_HT-600ToInf_TuneCUETP8M1_13TeV-madgraphMLM-pythia8/RunIISummer16NanoAODv7-PUMoriond17_Nano02Apr2020_102X_mcRun2_asymptotic_v8_ext1-v1/NANOAODSIM'
p49
sg14
F10.61
sg15
S'/eos/user/e/ecasilar/SMPVJ_Gamma_BJETS/MC/GJets_HT-600ToInf_TuneCUETP8M1_13TeV-madgraphMLM-pythia8/'
p50
ssS'GJets_HT_40To100'
p51
(dp52
g8
F20790.0
sg9
F0.0
sg10
F59.82
sg11
I4858154
sg12
S'/GJets_HT-40To100_TuneCUETP8M1_13TeV-madgraphMLM-pythia8/RunIISummer16NanoAODv7-PUMoriond17_Nano02Apr2020_102X_mcRun2_asymptotic_v8_ext1-v1/NANOAODSIM'
p53
sg14
F0.04811
sg15
S'/eos/user/e/ecasilar/SMPVJ_Gamma_BJETS/MC/GJets_HT-40To100_TuneCUETP8M1_13TeV-madgraphMLM-pythia8/'
p54
sssS'GJets_Pt'
p55
(dp56
S'GJets_Pt_1000To2000'
p57
(dp58
g8
F0.02092
sg9
F0.01466
sg10
F0.0001703
sg11
I399578
sg12
S'/GJets_Pt-1000To2000_13TeV-sherpa/RunIISummer16NanoAODv7-PUMoriond17_Nano02Apr2020_102X_mcRun2_asymptotic_v8-v1/NANOAODSIM'
p59
sg14
F45040.0
sg15
S'/eos/user/e/ecasilar/SMPVJ_Gamma_BJETS/MC/GJets_Pt-1000To2000_13TeV-sherpa/'
p60
ssS'GJets_Pt_500To1000'
p61
(dp62
g8
F0.9904
sg9
F0.01163
sg10
F0.00919
sg11
I484865
sg12
S'/GJets_Pt-500To1000_13TeV-sherpa/RunIISummer16NanoAODv7-PUMoriond17_Nano02Apr2020_102X_mcRun2_asymptotic_v8-v1/NANOAODSIM'
p63
sg14
F940.6
sg15
S'/eos/user/e/ecasilar/SMPVJ_Gamma_BJETS/MC/GJets_Pt-500To1000_13TeV-sherpa/'
p64
ssS'GJets_Pt_100To200'
p65
(dp66
g8
F1032.0
sg9
F0.01085
sg10
F7.109
sg11
I498029
sg12
S'/GJets_Pt-100To200_13TeV-sherpa/RunIISummer16NanoAODv7-PUMoriond17_Nano02Apr2020_102X_mcRun2_asymptotic_v8-v1/NANOAODSIM'
p67
sg14
F0.9342
sg15
S'/eos/user/e/ecasilar/SMPVJ_Gamma_BJETS/MC/GJets_Pt-100To200_13TeV-sherpa/'
p68
ssS'GJets_Pt_2000To5000'
p69
(dp70
g8
F7.451e-05
sg9
F0.1247
sg10
F7.843e-07
sg11
I299739
sg12
S'/GJets_Pt-2000To5000_13TeV-sherpa/RunIISummer16NanoAODv7-PUMoriond17_Nano02Apr2020_102X_mcRun2_asymptotic_v8-v1/NANOAODSIM'
p71
sg14
F7537000.0
sg15
S'/eos/user/e/ecasilar/SMPVJ_Gamma_BJETS/MC/GJets_Pt-2000To5000_13TeV-sherpa/'
p72
ssS'GJets_Pt_200To500'
p73
(dp74
g8
F70.15
sg9
F0.01032
sg10
F0.6311
sg11
I476434
sg12
S'/GJets_Pt-200To500_13TeV-sherpa/RunIISummer16NanoAODv7-PUMoriond17_Nano02Apr2020_102X_mcRun2_asymptotic_v8-v1/NANOAODSIM'
p75
sg14
F13.97
sg15
S'/eos/user/e/ecasilar/SMPVJ_Gamma_BJETS/MC/GJets_Pt-200To500_13TeV-sherpa/'
p76
ssssS'bkg'
p77
(dp78
S'QCD'
p79
(dp80
g8
F1370000000.0
sg9
F0.0
sg10
F2159000.0
sg11
I9879256
sg12
S'/QCD_Pt-15to7000_TuneCUETP8M1_FlatP6_13TeV_pythia8/RunIISummer16NanoAODv7-PUMoriond17_Nano02Apr2020_102X_mcRun2_asymptotic_v8-v1/NANOAODSIM'
p81
sg14
F7.301e-07
sg15
S'/eos/user/e/ecasilar/SMPVJ_Gamma_BJETS/MC/QCD_Pt-15to7000_TuneCUETP8M1_FlatP6_13TeV_pythia8/'
p82
ssS'TTGJets'
p83
(dp84
g8
F3.795
sg9
F0.3381
sg10
F0.02629
sg11
I9877942
sg12
S'/TTGJets_TuneCP5_13TeV-amcatnloFXFX-madspin-pythia8/RunIIFall17NanoAODv7-PU2017_12Apr2018_Nano02Apr2020_102X_mc2017_realistic_v8_ext1-v1/NANOAODSIM'
p85
sg14
F27.63
sg15
S'/eos/user/e/ecasilar/SMPVJ_Gamma_BJETS/MC/TTGJets_TuneCUETP8M1_13TeV-amcatnloFXFX-madspin-pythia8/'
p86
ssS'ST_t_channel_top'
p87
(dp88
g8
F136.82
sg9
F0.0
sg10
F0.0
sg11
I58403420
sg12
S'/ST_t-channel_top_4f_inclusiveDecays_13TeV-powhegV2-madspin-pythia8_TuneCUETP8M1/RunIISummer16NanoAODv7-PUMoriond17_Nano02Apr2020_102X_mcRun2_asymptotic_v8-v2/NANOAODSIM'
p89
sg14
F0.0
sg15
S'/eos/user/e/ecasilar/SMPVJ_Gamma_BJETS/MC/ST_t-channel_top_4f_inclusiveDecays_13TeV-powhegV2-madspin-pythia8_TuneCUETP8M1/'
p90
ssS'ST_t_channel_antitop'
p91
(dp92
g8
F81.42
sg9
F0.0
sg10
F0.0
sg11
I38811017
sg12
S'/ST_t-channel_antitop_4f_inclusiveDecays_13TeV-powhegV2-madspin-pythia8_TuneCUETP8M1/RunIISummer16NanoAODv7-PUMoriond17_Nano02Apr2020_102X_mcRun2_asymptotic_v8-v1/NANOAODSIM'
p93
sg14
F0.0
sg15
S'/eos/user/e/ecasilar/SMPVJ_Gamma_BJETS/MC/ST_t-channel_antitop_4f_inclusiveDecays_13TeV-powhegV2-madspin-pythia8_TuneCUETP8M1/'
p94
ssS'TGJets'
p95
(dp96
g8
F2.967
sg9
F0.4008
sg10
F0.01052
sg11
I1556996
sg12
S'/TGJets_TuneCP5_13TeV_amcatnlo_madspin_pythia8/RunIIFall17NanoAODv7-PU2017_12Apr2018_Nano02Apr2020_102X_mc2017_realistic_v8-v1/NANOAODSIM'
p97
sg14
F13.27
sg15
S'/eos/user/e/ecasilar/SMPVJ_Gamma_BJETS/MC/TGJets_TuneCUETP8M1_13TeV_amcatnlo_madspin_pythia8/'
p98
ssS'ST_tW_antitop'
p99
(dp100
g8
F38.06
sg9
F0.0
sg10
F0.03055
sg11
I6933094
sg12
S'/ST_tW_antitop_5f_inclusiveDecays_13TeV-powheg-pythia8_TuneCUETP8M1/RunIISummer16NanoAODv7-PUMoriond17_Nano02Apr2020_102X_mcRun2_asymptotic_v8_ext1-v1/NANOAODSIM'
p101
sg14
F26.27
sg15
S'/eos/user/e/ecasilar/SMPVJ_Gamma_BJETS/MC/ST_tW_antitop_5f_inclusiveDecays_13TeV-powheg-pythia8_TuneCUETP8M1/'
p102
ssS'QCD_HT'
p103
(dp104
S'QCD_HT_1500To2000'
p105
(dp106
g8
F119.9
sg9
F0.0
sg10
F0.1159
sg11
I7868538
sg12
S'/QCD_HT1500to2000_TuneCUETP8M1_13TeV-madgraphMLM-pythia8/RunIISummer16NanoAODv7-PUMoriond17_Nano02Apr2020_102X_mcRun2_asymptotic_v8_ext1-v1/NANOAODSIM'
p107
sg14
F8.335
sg15
S'/eos/user/e/ecasilar/SMPVJ_Gamma_BJETS/MC//QCD_HT/QCD_HT1500to2000_TuneCUETP8M1_13TeV-madgraphMLM-pythia8/'
p108
ssS'QCD_HT_300To500'
p109
(dp110
g8
F347700.0
sg9
F0.0
sg10
F332.9
sg11
I37516961
sg12
S'/QCD_HT300to500_TuneCUETP8M1_13TeV-madgraphMLM-pythia8/RunIISummer16NanoAODv7-PUMoriond17_Nano02Apr2020_102X_mcRun2_asymptotic_v8_ext1-v1/NANOAODSIM'
p111
sg14
F0.002878
sg15
S'/eos/user/e/ecasilar/SMPVJ_Gamma_BJETS/MC//QCD_HT/QCD_HT300to500_TuneCUETP8M1_13TeV-madgraphMLM-pythia8/'
p112
ssS'QCD_HT_500To700'
p113
(dp114
g8
F32100.0
sg9
F0.0
sg10
F30.88
sg11
I44061488
sg12
S'/QCD_HT500to700_TuneCUETP8M1_13TeV-madgraphMLM-pythia8/RunIISummer16NanoAODv7-PUMoriond17_Nano02Apr2020_102X_mcRun2_asymptotic_v8_ext1-v1/NANOAODSIM'
p115
sg14
F0.03119
sg15
S'/eos/user/e/ecasilar/SMPVJ_Gamma_BJETS/MC//QCD_HT/QCD_HT500to700_TuneCUETP8M1_13TeV-madgraphMLM-pythia8/'
p116
ssS'QCD_HT_700To1000'
p117
(dp118
g8
F6831.0
sg9
F0.0
sg10
F6.593
sg11
I21604533
sg12
S'/QCD_HT700to1000_TuneCUETP8M1_13TeV-madgraphMLM-pythia8/RunIISummer16NanoAODv7-PUMoriond17_Nano02Apr2020_102X_mcRun2_asymptotic_v8_ext1-v1/NANOAODSIM'
p119
sg14
F0.1464
sg15
S'/eos/user/e/ecasilar/SMPVJ_Gamma_BJETS/MC//QCD_HT/QCD_HT700to1000_TuneCUETP8M1_13TeV-madgraphMLM-pythia8/'
p120
ssS'QCD_HT_2000ToInf'
p121
(dp122
g8
F25.24
sg9
F0.0
sg10
F0.02437
sg11
I3812534
sg12
S'/QCD_HT2000toInf_TuneCUETP8M1_13TeV-madgraphMLM-pythia8/RunIISummer16NanoAODv7-PUMoriond17_Nano02Apr2020_102X_mcRun2_asymptotic_v8_ext1-v1/NANOAODSIM'
p123
sg14
F39.6
sg15
S'/eos/user/e/ecasilar/SMPVJ_Gamma_BJETS/MC//QCD_HT/QCD_HT2000toInf_TuneCUETP8M1_13TeV-madgraphMLM-pythia8/'
p124
ssS'QCD_HT_1000To1500'
p125
(dp126
g8
F1207.0
sg9
F0.0
sg10
F1.166
sg11
I10360193
sg12
S'/QCD_HT1000to1500_TuneCUETP8M1_13TeV-madgraphMLM-pythia8/RunIISummer16NanoAODv7-PUMoriond17_Nano02Apr2020_102X_mcRun2_asymptotic_v8_ext1-v1/NANOAODSIM'
p127
sg14
F0.8285
sg15
S'/eos/user/e/ecasilar/SMPVJ_Gamma_BJETS/MC//QCD_HT/QCD_HT1000to1500_TuneCUETP8M1_13TeV-madgraphMLM-pythia8/'
p128
sssS'TTJets'
p129
(dp130
g8
F511.3
sg9
F0.0
sg10
F1.412
sg11
I10199051
sg12
S'/TTJets_TuneCUETP8M1_13TeV-madgraphMLM-pythia8/RunIISummer16NanoAODv7-PUMoriond17_Nano02Apr2020_102X_mcRun2_asymptotic_v8-v1/NANOAODSIM'
p131
sg14
F1.956
sg15
S'/eos/user/e/ecasilar/SMPVJ_Gamma_BJETS/MC/TTJets_TuneCUETP8M1_13TeV-madgraphMLM-pythia8/'
p132
ssS'ST_s_channel'
p133
(dp134
g8
F10.12
sg9
F0.1857
sg10
F0.01334
sg11
I2917199
sg12
S'/ST_s-channel_4f_InclusiveDecays_13TeV-amcatnlo-pythia8/RunIISummer16NanoAODv7-PUMoriond17_Nano02Apr2020_102X_mcRun2_asymptotic_v8-v1/NANOAODSIM'
p135
sg14
F39.05
sg15
S'/eos/user/e/ecasilar/SMPVJ_Gamma_BJETS/MC/ST_s-channel_4f_InclusiveDecays_13TeV-amcatnlo-pythia8/'
p136
ssS'QCD_h1'
p137
(dp138
g8
F964800.0
sg9
F0.0
sg10
F92360.0
sg11
I9497268
sg12
S'/QCD_Pt-15to7000_TuneCUETHS1_FlatP6_13TeV_herwigpp/RunIISummer16NanoAODv7-PUMoriond17_Nano02Apr2020_102X_mcRun2_asymptotic_v8-v1/NANOAODSIM'
p139
sg14
F7.301e-07
sg15
S'/eos/user/e/ecasilar/SMPVJ_Gamma_BJETS/MC/QCD_Pt-15to7000_TuneCUETHS1_FlatP6_13TeV_herwigpp/'
p140
ssS'QCD_h2'
p141
(dp142
g8
F309800000.0
sg9
F0.0
sg10
F7932000.0
sg11
I9865688
sg12
S'/QCD_Pt-15to7000_TuneCUETHS1_Flat_13TeV_herwigpp/RunIISummer16NanoAODv7-PUMoriond17_Nano02Apr2020_102X_mcRun2_asymptotic_v8-v1/NANOAODSIM'
p143
sg14
F7.301e-07
sg15
S'/eos/user/e/ecasilar/SMPVJ_Gamma_BJETS/MC/QCD_Pt-15to7000_TuneCUETHS1_Flat_13TeV_herwigpp/'
p144
ssS'ST_tW_top'
p145
(dp146
g8
F38.09
sg9
F0.0
sg10
F0.0305
sg11
I6952830
sg12
S'/ST_tW_top_5f_inclusiveDecays_13TeV-powheg-pythia8_TuneCUETP8M1/RunIISummer16NanoAODv7-PUMoriond17_Nano02Apr2020_102X_mcRun2_asymptotic_v8_ext1-v1/NANOAODSIM'
p147
sg14
F26.25
sg15
S'/eos/user/e/ecasilar/SMPVJ_Gamma_BJETS/MC/ST_tW_top_5f_inclusiveDecays_13TeV-powheg-pythia8_TuneCUETP8M1/'
p148
sssS'data'
p149
(dp150
S'SinglePhoton'
p151
(dp152
S'C'
p153
(dp154
g8
I1
sg9
F0.0
sg10
I1
sg15
S'/eos/user/e/ecasilar/SMPVJ_Gamma_BJETS/data/SinglePhoton/Run2016C_02Apr2020-v1'
p155
sg14
I1
sg12
S'/SinglePhoton/Run2016C-02Apr2020-v1/NANOAOD'
p156
ssS'B'
p157
(dp158
g8
I1
sg9
F0.0
sg10
I1
sg15
S'/eos/user/e/ecasilar/SMPVJ_Gamma_BJETS/data/SinglePhoton/Run2016B_02Apr2020-v1'
p159
sg14
I1
sg12
S'/SinglePhoton/Run2016B-02Apr2020_ver2-v1/NANOAOD'
p160
ssS'E'
p161
(dp162
g8
I1
sg9
F0.0
sg10
I1
sg15
S'/eos/user/e/ecasilar/SMPVJ_Gamma_BJETS/data/SinglePhoton/Run2016E_02Apr2020-v1'
p163
sg14
I1
sg12
S'/SinglePhoton/Run2016E-02Apr2020-v1/NANOAOD'
p164
ssS'D'
p165
(dp166
g8
I1
sg9
F0.0
sg10
I1
sg15
S'/eos/user/e/ecasilar/SMPVJ_Gamma_BJETS/data/SinglePhoton/Run2016D_02Apr2020-v1'
p167
sg14
I1
sg12
S'/SinglePhoton/Run2016D-02Apr2020-v1/NANOAOD'
p168
ssS'G'
p169
(dp170
g8
I1
sg9
F0.0
sg10
I1
sg15
S'/eos/user/e/ecasilar/SMPVJ_Gamma_BJETS/data/SinglePhoton/Run2016G_02Apr2020-v1'
p171
sg14
I1
sg12
S'/SinglePhoton/Run2016G-02Apr2020-v1/NANOAOD'
p172
ssS'F'
p173
(dp174
g8
I1
sg9
F0.0
sg10
I1
sg15
S'/eos/user/e/ecasilar/SMPVJ_Gamma_BJETS/data/SinglePhoton/Run2016F_02Apr2020-v1'
p175
sg14
I1
sg12
S'/SinglePhoton/Run2016F-02Apr2020-v1/NANOAOD'
p176
ssS'H'
p177
(dp178
g8
I1
sg9
F0.0
sg10
I1
sg15
S'/eos/user/e/ecasilar/SMPVJ_Gamma_BJETS/data/SinglePhoton/Run2016H_02Apr2020-v1'
p179
sg14
I1
sg12
S'/SinglePhoton/Run2016H-02Apr2020-v1/NANOAOD'
p180
sssS'SingleMuon'
p181
(dp182
g153
(dp183
g8
I1
sg9
F0.0
sg10
I1
sg15
S'/eos/user/e/ecasilar/SMPVJ_Gamma_BJETS/data/SingleMuon/Run2016C_02Apr2020-v1'
p184
sg14
I1
sg12
S'/SingleMuon/Run2016C-02Apr2020-v1/NANOAOD'
p185
ssg157
(dp186
g8
I1
sg9
F0.0
sg10
I1
sg15
S'/eos/user/e/ecasilar/SMPVJ_Gamma_BJETS/data/SingleMuon/Run2016B_02Apr2020-v1'
p187
sg14
I1
sg12
S'/SingleMuon/Run2016B-02Apr2020_ver2-v1/NANOAOD'
p188
ssg161
(dp189
g8
I1
sg9
F0.0
sg10
I1
sg15
S'/eos/user/e/ecasilar/SMPVJ_Gamma_BJETS/data/SingleMuon/Run2016E_02Apr2020-v1'
p190
sg14
I1
sg12
S'/SingleMuon/Run2016E-02Apr2020-v1/NANOAOD'
p191
ssg165
(dp192
g8
I1
sg9
F0.0
sg10
I1
sg15
S'/eos/user/e/ecasilar/SMPVJ_Gamma_BJETS/data/SingleMuon/Run2016D_02Apr2020-v1'
p193
sg14
I1
sg12
S'/SingleMuon/Run2016D-02Apr2020-v1/NANOAOD'
p194
ssg169
(dp195
g8
I1
sg9
F0.0
sg10
I1
sg15
S'/eos/user/e/ecasilar/SMPVJ_Gamma_BJETS/data/SingleMuon/Run2016G_02Apr2020-v1'
p196
sg14
I1
sg12
S'/SingleMuon/Run2016G-02Apr2020-v1/NANOAOD'
p197
ssg173
(dp198
g8
I1
sg9
F0.0
sg10
I1
sg15
S'/eos/user/e/ecasilar/SMPVJ_Gamma_BJETS/data/SingleMuon/Run2016F_02Apr2020-v1'
p199
sg14
I1
sg12
S'/SingleMuon/Run2016F-02Apr2020-v1/NANOAOD'
p200
ssg177
(dp201
g8
I1
sg9
F0.0
sg10
I1
sg15
S'/eos/user/e/ecasilar/SMPVJ_Gamma_BJETS/data/SingleMuon/Run2016H_02Apr2020-v1'
p202
sg14
I1
sg12
S'/SingleMuon/Run2016H-02Apr2020-v1/NANOAOD'
p203
sssss.