(dp0
I2016
(dp1
S'signal'
p2
(dp3
S'GJets'
p4
(dp5
S'equivalent_lumi'
p6
F0.002737
sS'fraction_negative_weight'
p7
F0.0
sS'xsec_unc'
p8
F382.7
sS'files_list'
p9
(lp10
S'/eos/cms/store/group/phys_smp/AnalysisFramework/Baobab/Metin/gammaplusb/2016/MC/GJet_Pt-15To6000_TuneCUETP8M1-Flat_13TeV_pythia8_20M/9EB2EEA4-040D-1741-B6C3-00C258AB250F.root'
p11
aS'/eos/cms/store/group/phys_smp/AnalysisFramework/Baobab/Metin/gammaplusb/2016/MC/GJet_Pt-15To6000_TuneCUETP8M1-Flat_13TeV_pythia8_20M/69F96C18-30C7-A543-9680-762EFBEDF08D.root'
p12
aS'/eos/cms/store/group/phys_smp/AnalysisFramework/Baobab/Metin/gammaplusb/2016/MC/GJet_Pt-15To6000_TuneCUETP8M1-Flat_13TeV_pythia8_20M/07E054B9-5C9E-A643-81D3-8DC5A690B9FD.root'
p13
aS'/eos/cms/store/group/phys_smp/AnalysisFramework/Baobab/Metin/gammaplusb/2016/MC/GJet_Pt-15To6000_TuneCUETP8M1-Flat_13TeV_pythia8_20M/6F854800-984C-3A40-ADBA-061CBC8E1CF3.root'
p14
aS'/eos/cms/store/group/phys_smp/AnalysisFramework/Baobab/Metin/gammaplusb/2016/MC/GJet_Pt-15To6000_TuneCUETP8M1-Flat_13TeV_pythia8_20M/D4774EF1-0FA7-B540-A324-F651318C0F70.root'
p15
aS'/eos/cms/store/group/phys_smp/AnalysisFramework/Baobab/Metin/gammaplusb/2016/MC/GJet_Pt-15To6000_TuneCUETP8M1-Flat_13TeV_pythia8_20M/1475B7CE-79A9-454A-8D7E-6051C14492AA.root'
p16
aS'/eos/cms/store/group/phys_smp/AnalysisFramework/Baobab/Metin/gammaplusb/2016/MC/GJet_Pt-15To6000_TuneCUETP8M1-Flat_13TeV_pythia8_20M/4C12FD63-403C-1549-B43A-78274748E6C6.root'
p17
aS'/eos/cms/store/group/phys_smp/AnalysisFramework/Baobab/Metin/gammaplusb/2016/MC/GJet_Pt-15To6000_TuneCUETP8M1-Flat_13TeV_pythia8_20M/B05FEE00-A3AB-3748-9528-F588A5418583.root'
p18
aS'/eos/cms/store/group/phys_smp/AnalysisFramework/Baobab/Metin/gammaplusb/2016/MC/GJet_Pt-15To6000_TuneCUETP8M1-Flat_13TeV_pythia8_20M/28B13F47-0652-6B4D-8681-4AFAB66DA3D3.root'
p19
aS'/eos/cms/store/group/phys_smp/AnalysisFramework/Baobab/Metin/gammaplusb/2016/MC/GJet_Pt-15To6000_TuneCUETP8M1-Flat_13TeV_pythia8_20M/B5D3F5B1-DB8E-0643-891E-16166EC20F45.root'
p20
aS'/eos/cms/store/group/phys_smp/AnalysisFramework/Baobab/Metin/gammaplusb/2016/MC/GJet_Pt-15To6000_TuneCUETP8M1-Flat_13TeV_pythia8_20M/6FB08C96-4807-3641-8EF8-71C09C44A3E3.root'
p21
aS'/eos/cms/store/group/phys_smp/AnalysisFramework/Baobab/Metin/gammaplusb/2016/MC/GJet_Pt-15To6000_TuneCUETP8M1-Flat_13TeV_pythia8_20M/6721EECC-1AEF-B54C-8238-37994FA4C157.root'
p22
aS'/eos/cms/store/group/phys_smp/AnalysisFramework/Baobab/Metin/gammaplusb/2016/MC/GJet_Pt-15To6000_TuneCUETP8M1-Flat_13TeV_pythia8_20M/064A46AE-2831-224E-ABB1-B198580554D2.root'
p23
aS'/eos/cms/store/group/phys_smp/AnalysisFramework/Baobab/Metin/gammaplusb/2016/MC/GJet_Pt-15To6000_TuneCUETP8M1-Flat_13TeV_pythia8_20M/E3FED932-CDBA-BD4B-B7BE-6E74B29C314A.root'
p24
aS'/eos/cms/store/group/phys_smp/AnalysisFramework/Baobab/Metin/gammaplusb/2016/MC/GJet_Pt-15To6000_TuneCUETP8M1-Flat_13TeV_pythia8_20M/ED7269EC-1239-BC44-9133-0F45E11AC767.root'
p25
aS'/eos/cms/store/group/phys_smp/AnalysisFramework/Baobab/Metin/gammaplusb/2016/MC/GJet_Pt-15To6000_TuneCUETP8M1-Flat_13TeV_pythia8_20M/02D6BDCA-23D6-AF47-8F13-9854DB66A097.root'
p26
aS'/eos/cms/store/group/phys_smp/AnalysisFramework/Baobab/Metin/gammaplusb/2016/MC/GJet_Pt-15To6000_TuneCUETP8M1-Flat_13TeV_pythia8_20M/16055EEC-609C-0D45-9CFC-1B7F96EB166B.root'
p27
aS'/eos/cms/store/group/phys_smp/AnalysisFramework/Baobab/Metin/gammaplusb/2016/MC/GJet_Pt-15To6000_TuneCUETP8M1-Flat_13TeV_pythia8_20M/C80AF98E-7945-EB4A-B275-5B8CB61D6E74.root'
p28
aS'/eos/cms/store/group/phys_smp/AnalysisFramework/Baobab/Metin/gammaplusb/2016/MC/GJet_Pt-15To6000_TuneCUETP8M1-Flat_13TeV_pythia8_20M/1B377402-2059-C443-8ED8-AB6E1E9A26B2.root'
p29
asS'xsec'
p30
F365400.0
sS'das_path'
p31
S'/GJet_Pt-15To6000_TuneCUETP8M1-Flat_13TeV_pythia8_20M/RunIISummer16NanoAODv7-PUMoriond17_Nano02Apr2020_102X_mcRun2_asymptotic_v8-v1/NANOAODSIM'
p32
sssS'bkg'
p33
(dp34
S'ST_t_channel_antitop'
p35
(dp36
g6
F0.0
sg7
F0.0
sg8
F0.0
sg9
(lp37
S'/eos/cms/store/group/phys_smp/AnalysisFramework/Baobab/Metin/gammaplusb/2016/MC/ST_t-channel_antitop_4f_inclusiveDecays_13TeV-powhegV2-madspin-pythia8_TuneCUETP8M1/0B5D572C-3204-D64A-8BF1-1EB88AD8C05F.root'
p38
aS'/eos/cms/store/group/phys_smp/AnalysisFramework/Baobab/Metin/gammaplusb/2016/MC/ST_t-channel_antitop_4f_inclusiveDecays_13TeV-powhegV2-madspin-pythia8_TuneCUETP8M1/0C99AB3B-1664-C04C-AAA3-B4A168EA67E9.root'
p39
aS'/eos/cms/store/group/phys_smp/AnalysisFramework/Baobab/Metin/gammaplusb/2016/MC/ST_t-channel_antitop_4f_inclusiveDecays_13TeV-powhegV2-madspin-pythia8_TuneCUETP8M1/0CE13F16-D132-4540-8810-86EE76C45646.root'
p40
aS'/eos/cms/store/group/phys_smp/AnalysisFramework/Baobab/Metin/gammaplusb/2016/MC/ST_t-channel_antitop_4f_inclusiveDecays_13TeV-powhegV2-madspin-pythia8_TuneCUETP8M1/0DFE4459-8449-F242-AAAC-EADBEB590687.root'
p41
aS'/eos/cms/store/group/phys_smp/AnalysisFramework/Baobab/Metin/gammaplusb/2016/MC/ST_t-channel_antitop_4f_inclusiveDecays_13TeV-powhegV2-madspin-pythia8_TuneCUETP8M1/0E8AE564-E216-BA49-A08B-95D71D17E333.root'
p42
aS'/eos/cms/store/group/phys_smp/AnalysisFramework/Baobab/Metin/gammaplusb/2016/MC/ST_t-channel_antitop_4f_inclusiveDecays_13TeV-powhegV2-madspin-pythia8_TuneCUETP8M1/0EBE66AC-8E72-254A-8C79-389D061B7565.root'
p43
aS'/eos/cms/store/group/phys_smp/AnalysisFramework/Baobab/Metin/gammaplusb/2016/MC/ST_t-channel_antitop_4f_inclusiveDecays_13TeV-powhegV2-madspin-pythia8_TuneCUETP8M1/20760427-D90E-2249-A3C0-EABB3FB00825.root'
p44
aS'/eos/cms/store/group/phys_smp/AnalysisFramework/Baobab/Metin/gammaplusb/2016/MC/ST_t-channel_antitop_4f_inclusiveDecays_13TeV-powhegV2-madspin-pythia8_TuneCUETP8M1/2E242BE6-C046-C54B-B5AE-56BF6CA2C908.root'
p45
aS'/eos/cms/store/group/phys_smp/AnalysisFramework/Baobab/Metin/gammaplusb/2016/MC/ST_t-channel_antitop_4f_inclusiveDecays_13TeV-powhegV2-madspin-pythia8_TuneCUETP8M1/2F35ECB8-4392-6948-AC1D-208DDEF202E7.root'
p46
aS'/eos/cms/store/group/phys_smp/AnalysisFramework/Baobab/Metin/gammaplusb/2016/MC/ST_t-channel_antitop_4f_inclusiveDecays_13TeV-powhegV2-madspin-pythia8_TuneCUETP8M1/362C88D8-580F-E542-A665-6E03DB676747.root'
p47
aS'/eos/cms/store/group/phys_smp/AnalysisFramework/Baobab/Metin/gammaplusb/2016/MC/ST_t-channel_antitop_4f_inclusiveDecays_13TeV-powhegV2-madspin-pythia8_TuneCUETP8M1/36F07C7B-BA1E-124D-8445-7A93D9A6FD6C.root'
p48
aS'/eos/cms/store/group/phys_smp/AnalysisFramework/Baobab/Metin/gammaplusb/2016/MC/ST_t-channel_antitop_4f_inclusiveDecays_13TeV-powhegV2-madspin-pythia8_TuneCUETP8M1/3D260CF0-CA3A-134F-8F33-F58D3768981E.root'
p49
aS'/eos/cms/store/group/phys_smp/AnalysisFramework/Baobab/Metin/gammaplusb/2016/MC/ST_t-channel_antitop_4f_inclusiveDecays_13TeV-powhegV2-madspin-pythia8_TuneCUETP8M1/3ED007ED-6047-0641-A22C-A64C6C15B2C5.root'
p50
aS'/eos/cms/store/group/phys_smp/AnalysisFramework/Baobab/Metin/gammaplusb/2016/MC/ST_t-channel_antitop_4f_inclusiveDecays_13TeV-powhegV2-madspin-pythia8_TuneCUETP8M1/3F05E206-FE61-A547-A4FD-0A664D650887.root'
p51
aS'/eos/cms/store/group/phys_smp/AnalysisFramework/Baobab/Metin/gammaplusb/2016/MC/ST_t-channel_antitop_4f_inclusiveDecays_13TeV-powhegV2-madspin-pythia8_TuneCUETP8M1/49BE0D12-C0AC-0D44-B0F3-519158A569F3.root'
p52
aS'/eos/cms/store/group/phys_smp/AnalysisFramework/Baobab/Metin/gammaplusb/2016/MC/ST_t-channel_antitop_4f_inclusiveDecays_13TeV-powhegV2-madspin-pythia8_TuneCUETP8M1/5020E7DD-18D6-3B4E-8614-78BE5BDCB08A.root'
p53
aS'/eos/cms/store/group/phys_smp/AnalysisFramework/Baobab/Metin/gammaplusb/2016/MC/ST_t-channel_antitop_4f_inclusiveDecays_13TeV-powhegV2-madspin-pythia8_TuneCUETP8M1/51C724DC-4869-9642-88F8-6F0B6007353C.root'
p54
aS'/eos/cms/store/group/phys_smp/AnalysisFramework/Baobab/Metin/gammaplusb/2016/MC/ST_t-channel_antitop_4f_inclusiveDecays_13TeV-powhegV2-madspin-pythia8_TuneCUETP8M1/5C1B4B6A-B789-C848-83E6-ADFB1C227CA1.root'
p55
aS'/eos/cms/store/group/phys_smp/AnalysisFramework/Baobab/Metin/gammaplusb/2016/MC/ST_t-channel_antitop_4f_inclusiveDecays_13TeV-powhegV2-madspin-pythia8_TuneCUETP8M1/673FBF26-3CA1-7C48-BF7B-11EEA7141B6F.root'
p56
aS'/eos/cms/store/group/phys_smp/AnalysisFramework/Baobab/Metin/gammaplusb/2016/MC/ST_t-channel_antitop_4f_inclusiveDecays_13TeV-powhegV2-madspin-pythia8_TuneCUETP8M1/73228750-F35F-7449-B7DC-328AAE092F35.root'
p57
aS'/eos/cms/store/group/phys_smp/AnalysisFramework/Baobab/Metin/gammaplusb/2016/MC/ST_t-channel_antitop_4f_inclusiveDecays_13TeV-powhegV2-madspin-pythia8_TuneCUETP8M1/84FBE1E9-441B-0642-9A85-8281A4C23CF0.root'
p58
aS'/eos/cms/store/group/phys_smp/AnalysisFramework/Baobab/Metin/gammaplusb/2016/MC/ST_t-channel_antitop_4f_inclusiveDecays_13TeV-powhegV2-madspin-pythia8_TuneCUETP8M1/85DFC480-ED12-794E-ACDB-2CBAC2F85D38.root'
p59
aS'/eos/cms/store/group/phys_smp/AnalysisFramework/Baobab/Metin/gammaplusb/2016/MC/ST_t-channel_antitop_4f_inclusiveDecays_13TeV-powhegV2-madspin-pythia8_TuneCUETP8M1/8C5B15E0-82D7-794D-8D21-37DBB45D4BD7.root'
p60
aS'/eos/cms/store/group/phys_smp/AnalysisFramework/Baobab/Metin/gammaplusb/2016/MC/ST_t-channel_antitop_4f_inclusiveDecays_13TeV-powhegV2-madspin-pythia8_TuneCUETP8M1/96240BF5-7B6C-524D-A442-206017968A77.root'
p61
aS'/eos/cms/store/group/phys_smp/AnalysisFramework/Baobab/Metin/gammaplusb/2016/MC/ST_t-channel_antitop_4f_inclusiveDecays_13TeV-powhegV2-madspin-pythia8_TuneCUETP8M1/965C967C-8702-DC4B-9704-C3E98F83E410.root'
p62
aS'/eos/cms/store/group/phys_smp/AnalysisFramework/Baobab/Metin/gammaplusb/2016/MC/ST_t-channel_antitop_4f_inclusiveDecays_13TeV-powhegV2-madspin-pythia8_TuneCUETP8M1/A0A17359-AA1E-474E-B931-D7CD4FEFAF71.root'
p63
aS'/eos/cms/store/group/phys_smp/AnalysisFramework/Baobab/Metin/gammaplusb/2016/MC/ST_t-channel_antitop_4f_inclusiveDecays_13TeV-powhegV2-madspin-pythia8_TuneCUETP8M1/B4575AA4-3649-AF47-9021-9EC346939094.root'
p64
aS'/eos/cms/store/group/phys_smp/AnalysisFramework/Baobab/Metin/gammaplusb/2016/MC/ST_t-channel_antitop_4f_inclusiveDecays_13TeV-powhegV2-madspin-pythia8_TuneCUETP8M1/BC4A3EB4-B482-6340-A5AF-C6A1C16B28C3.root'
p65
aS'/eos/cms/store/group/phys_smp/AnalysisFramework/Baobab/Metin/gammaplusb/2016/MC/ST_t-channel_antitop_4f_inclusiveDecays_13TeV-powhegV2-madspin-pythia8_TuneCUETP8M1/C62D396C-388E-3946-8B59-8A54D7E1FEC2.root'
p66
aS'/eos/cms/store/group/phys_smp/AnalysisFramework/Baobab/Metin/gammaplusb/2016/MC/ST_t-channel_antitop_4f_inclusiveDecays_13TeV-powhegV2-madspin-pythia8_TuneCUETP8M1/D1DB77FA-9943-8245-8A55-744FB05D859E.root'
p67
aS'/eos/cms/store/group/phys_smp/AnalysisFramework/Baobab/Metin/gammaplusb/2016/MC/ST_t-channel_antitop_4f_inclusiveDecays_13TeV-powhegV2-madspin-pythia8_TuneCUETP8M1/D36228A7-A246-B441-AB3E-520BAABA2F2C.root'
p68
aS'/eos/cms/store/group/phys_smp/AnalysisFramework/Baobab/Metin/gammaplusb/2016/MC/ST_t-channel_antitop_4f_inclusiveDecays_13TeV-powhegV2-madspin-pythia8_TuneCUETP8M1/D779909F-FC59-2C4E-B1AB-2C380F26C91F.root'
p69
aS'/eos/cms/store/group/phys_smp/AnalysisFramework/Baobab/Metin/gammaplusb/2016/MC/ST_t-channel_antitop_4f_inclusiveDecays_13TeV-powhegV2-madspin-pythia8_TuneCUETP8M1/D9B5691F-5DD6-9846-8CA0-8CF86EC04534.root'
p70
aS'/eos/cms/store/group/phys_smp/AnalysisFramework/Baobab/Metin/gammaplusb/2016/MC/ST_t-channel_antitop_4f_inclusiveDecays_13TeV-powhegV2-madspin-pythia8_TuneCUETP8M1/E7D1201C-1608-AF48-89CA-20595C529CAD.root'
p71
aS'/eos/cms/store/group/phys_smp/AnalysisFramework/Baobab/Metin/gammaplusb/2016/MC/ST_t-channel_antitop_4f_inclusiveDecays_13TeV-powhegV2-madspin-pythia8_TuneCUETP8M1/EB0EF3D0-2C00-B340-9368-3BA0EFE711F5.root'
p72
aS'/eos/cms/store/group/phys_smp/AnalysisFramework/Baobab/Metin/gammaplusb/2016/MC/ST_t-channel_antitop_4f_inclusiveDecays_13TeV-powhegV2-madspin-pythia8_TuneCUETP8M1/F8E99E89-D2FA-D343-9822-A4DDDBABC586.root'
p73
asg30
F81.42
sg31
S'/ST_t-channel_antitop_4f_inclusiveDecays_13TeV-powhegV2-madspin-pythia8_TuneCUETP8M1/RunIISummer16NanoAODv7-PUMoriond17_Nano02Apr2020_102X_mcRun2_asymptotic_v8-v1/NANOAODSIM'
p74
ssS'ST_s_channel'
p75
(dp76
g6
F115.3
sg7
F0.1885
sg8
F0.004584
sg9
(lp77
S'/eos/cms/store/group/phys_smp/AnalysisFramework/Baobab/Metin/gammaplusb/2016/MC/ST_s-channel_4f_leptonDecays_13TeV-amcatnlo-pythia8_TuneCUETP8M1/5F48CFB3-83C5-9748-9006-00C6AB0F84D9.root'
p78
aS'/eos/cms/store/group/phys_smp/AnalysisFramework/Baobab/Metin/gammaplusb/2016/MC/ST_s-channel_4f_leptonDecays_13TeV-amcatnlo-pythia8_TuneCUETP8M1/62D9D2FC-E76F-B24B-AA8F-40870C6204C2.root'
p79
aS'/eos/cms/store/group/phys_smp/AnalysisFramework/Baobab/Metin/gammaplusb/2016/MC/ST_s-channel_4f_leptonDecays_13TeV-amcatnlo-pythia8_TuneCUETP8M1/7F7F13FF-CDE2-7745-BE5E-0D3837CC9224.root'
p80
asg30
F3.365
sg31
S'/ST_s-channel_4f_leptonDecays_13TeV-amcatnlo-pythia8_TuneCUETP8M1/RunIISummer16NanoAODv7-PUMoriond17_Nano02Apr2020_102X_mcRun2_asymptotic_v8-v1/NANOAODSIM'
p81
ssS'ST_t_channel_top'
p82
(dp83
g6
F0.0
sg7
F0.0
sg8
F0.0
sg9
(lp84
S'/eos/cms/store/group/phys_smp/AnalysisFramework/Baobab/Metin/gammaplusb/2016/MC/ST_t-channel_top_4f_inclusiveDecays_13TeV-powhegV2-madspin-pythia8_TuneCUETP8M1/102C3F90-6497-FB41-8B17-FDEDA109F2A6.root'
p85
aS'/eos/cms/store/group/phys_smp/AnalysisFramework/Baobab/Metin/gammaplusb/2016/MC/ST_t-channel_top_4f_inclusiveDecays_13TeV-powhegV2-madspin-pythia8_TuneCUETP8M1/9272651C-0DD7-264D-8A80-14FF51B59218.root'
p86
aS'/eos/cms/store/group/phys_smp/AnalysisFramework/Baobab/Metin/gammaplusb/2016/MC/ST_t-channel_top_4f_inclusiveDecays_13TeV-powhegV2-madspin-pythia8_TuneCUETP8M1/4D499923-771C-7349-ADBC-6605C7718008.root'
p87
aS'/eos/cms/store/group/phys_smp/AnalysisFramework/Baobab/Metin/gammaplusb/2016/MC/ST_t-channel_top_4f_inclusiveDecays_13TeV-powhegV2-madspin-pythia8_TuneCUETP8M1/481266D3-DCAA-1948-AA93-6F47044ABBB5.root'
p88
aS'/eos/cms/store/group/phys_smp/AnalysisFramework/Baobab/Metin/gammaplusb/2016/MC/ST_t-channel_top_4f_inclusiveDecays_13TeV-powhegV2-madspin-pythia8_TuneCUETP8M1/652E0F27-4893-F348-9E55-F3184EC8142D.root'
p89
aS'/eos/cms/store/group/phys_smp/AnalysisFramework/Baobab/Metin/gammaplusb/2016/MC/ST_t-channel_top_4f_inclusiveDecays_13TeV-powhegV2-madspin-pythia8_TuneCUETP8M1/C41F9149-5384-A242-81D9-55B48E7479E9.root'
p90
aS'/eos/cms/store/group/phys_smp/AnalysisFramework/Baobab/Metin/gammaplusb/2016/MC/ST_t-channel_top_4f_inclusiveDecays_13TeV-powhegV2-madspin-pythia8_TuneCUETP8M1/C332FF3B-95B7-4145-AE5E-4E77AB2CBB19.root'
p91
aS'/eos/cms/store/group/phys_smp/AnalysisFramework/Baobab/Metin/gammaplusb/2016/MC/ST_t-channel_top_4f_inclusiveDecays_13TeV-powhegV2-madspin-pythia8_TuneCUETP8M1/90429AA7-96DF-C443-83E8-C7BF901FF3CD.root'
p92
aS'/eos/cms/store/group/phys_smp/AnalysisFramework/Baobab/Metin/gammaplusb/2016/MC/ST_t-channel_top_4f_inclusiveDecays_13TeV-powhegV2-madspin-pythia8_TuneCUETP8M1/33726DB0-6A9F-CC43-A52C-D53492A1BDD7.root'
p93
aS'/eos/cms/store/group/phys_smp/AnalysisFramework/Baobab/Metin/gammaplusb/2016/MC/ST_t-channel_top_4f_inclusiveDecays_13TeV-powhegV2-madspin-pythia8_TuneCUETP8M1/FE98054A-D93A-1A41-A4F4-B12F1BDF9AED.root'
p94
aS'/eos/cms/store/group/phys_smp/AnalysisFramework/Baobab/Metin/gammaplusb/2016/MC/ST_t-channel_top_4f_inclusiveDecays_13TeV-powhegV2-madspin-pythia8_TuneCUETP8M1/560E4202-5B27-CB4F-8B6C-43D8E8000170.root'
p95
aS'/eos/cms/store/group/phys_smp/AnalysisFramework/Baobab/Metin/gammaplusb/2016/MC/ST_t-channel_top_4f_inclusiveDecays_13TeV-powhegV2-madspin-pythia8_TuneCUETP8M1/8D3C56A5-B422-5D4E-A2E4-44BA19B8FB63.root'
p96
aS'/eos/cms/store/group/phys_smp/AnalysisFramework/Baobab/Metin/gammaplusb/2016/MC/ST_t-channel_top_4f_inclusiveDecays_13TeV-powhegV2-madspin-pythia8_TuneCUETP8M1/E58562B5-26AC-FC42-AFA7-DFEE098A8296.root'
p97
aS'/eos/cms/store/group/phys_smp/AnalysisFramework/Baobab/Metin/gammaplusb/2016/MC/ST_t-channel_top_4f_inclusiveDecays_13TeV-powhegV2-madspin-pythia8_TuneCUETP8M1/9918EA1F-8AEF-064B-8788-F60FA512C4AC.root'
p98
aS'/eos/cms/store/group/phys_smp/AnalysisFramework/Baobab/Metin/gammaplusb/2016/MC/ST_t-channel_top_4f_inclusiveDecays_13TeV-powhegV2-madspin-pythia8_TuneCUETP8M1/7EB18EDD-3D1F-C043-9815-215FEF67F4FB.root'
p99
aS'/eos/cms/store/group/phys_smp/AnalysisFramework/Baobab/Metin/gammaplusb/2016/MC/ST_t-channel_top_4f_inclusiveDecays_13TeV-powhegV2-madspin-pythia8_TuneCUETP8M1/0DD8241F-788F-D04E-BB2E-0AB7A5F8CD94.root'
p100
aS'/eos/cms/store/group/phys_smp/AnalysisFramework/Baobab/Metin/gammaplusb/2016/MC/ST_t-channel_top_4f_inclusiveDecays_13TeV-powhegV2-madspin-pythia8_TuneCUETP8M1/CA828D22-1C57-C043-ACD1-5550890FCD0F.root'
p101
aS'/eos/cms/store/group/phys_smp/AnalysisFramework/Baobab/Metin/gammaplusb/2016/MC/ST_t-channel_top_4f_inclusiveDecays_13TeV-powhegV2-madspin-pythia8_TuneCUETP8M1/BEDDE8CC-9DF4-8C4F-AB31-1FF15A0FCED0.root'
p102
aS'/eos/cms/store/group/phys_smp/AnalysisFramework/Baobab/Metin/gammaplusb/2016/MC/ST_t-channel_top_4f_inclusiveDecays_13TeV-powhegV2-madspin-pythia8_TuneCUETP8M1/41A03B75-C0AE-AD48-B21C-19BA4CD35723.root'
p103
aS'/eos/cms/store/group/phys_smp/AnalysisFramework/Baobab/Metin/gammaplusb/2016/MC/ST_t-channel_top_4f_inclusiveDecays_13TeV-powhegV2-madspin-pythia8_TuneCUETP8M1/0A33760A-F32F-3C4B-974F-27727D264A6C.root'
p104
aS'/eos/cms/store/group/phys_smp/AnalysisFramework/Baobab/Metin/gammaplusb/2016/MC/ST_t-channel_top_4f_inclusiveDecays_13TeV-powhegV2-madspin-pythia8_TuneCUETP8M1/1354ED71-B31E-1D46-AE36-A486CCB60F03.root'
p105
aS'/eos/cms/store/group/phys_smp/AnalysisFramework/Baobab/Metin/gammaplusb/2016/MC/ST_t-channel_top_4f_inclusiveDecays_13TeV-powhegV2-madspin-pythia8_TuneCUETP8M1/9194FDFA-0646-AB48-B7A7-34765C6B1619.root'
p106
aS'/eos/cms/store/group/phys_smp/AnalysisFramework/Baobab/Metin/gammaplusb/2016/MC/ST_t-channel_top_4f_inclusiveDecays_13TeV-powhegV2-madspin-pythia8_TuneCUETP8M1/9308DC2E-2D27-804C-9802-38171302497C.root'
p107
aS'/eos/cms/store/group/phys_smp/AnalysisFramework/Baobab/Metin/gammaplusb/2016/MC/ST_t-channel_top_4f_inclusiveDecays_13TeV-powhegV2-madspin-pythia8_TuneCUETP8M1/CFFF5BFA-7CA6-2D4C-B8B6-071D1A331645.root'
p108
aS'/eos/cms/store/group/phys_smp/AnalysisFramework/Baobab/Metin/gammaplusb/2016/MC/ST_t-channel_top_4f_inclusiveDecays_13TeV-powhegV2-madspin-pythia8_TuneCUETP8M1/564D6177-A0F3-E94D-A6A2-CD1EE4353153.root'
p109
aS'/eos/cms/store/group/phys_smp/AnalysisFramework/Baobab/Metin/gammaplusb/2016/MC/ST_t-channel_top_4f_inclusiveDecays_13TeV-powhegV2-madspin-pythia8_TuneCUETP8M1/4D9D1D6F-B3FA-C644-AB91-7ABE8DA19E7A.root'
p110
aS'/eos/cms/store/group/phys_smp/AnalysisFramework/Baobab/Metin/gammaplusb/2016/MC/ST_t-channel_top_4f_inclusiveDecays_13TeV-powhegV2-madspin-pythia8_TuneCUETP8M1/AF566CC8-CC3C-FD44-A8FF-63FA4D59CFE1.root'
p111
aS'/eos/cms/store/group/phys_smp/AnalysisFramework/Baobab/Metin/gammaplusb/2016/MC/ST_t-channel_top_4f_inclusiveDecays_13TeV-powhegV2-madspin-pythia8_TuneCUETP8M1/D11D40C2-A648-594D-9AC1-7AF26DB40CDD.root'
p112
aS'/eos/cms/store/group/phys_smp/AnalysisFramework/Baobab/Metin/gammaplusb/2016/MC/ST_t-channel_top_4f_inclusiveDecays_13TeV-powhegV2-madspin-pythia8_TuneCUETP8M1/EE5319BA-96A8-E34C-B176-01CC4F597444.root'
p113
aS'/eos/cms/store/group/phys_smp/AnalysisFramework/Baobab/Metin/gammaplusb/2016/MC/ST_t-channel_top_4f_inclusiveDecays_13TeV-powhegV2-madspin-pythia8_TuneCUETP8M1/A43252D0-E2D5-8544-BD4B-4FB9EA00CB79.root'
p114
aS'/eos/cms/store/group/phys_smp/AnalysisFramework/Baobab/Metin/gammaplusb/2016/MC/ST_t-channel_top_4f_inclusiveDecays_13TeV-powhegV2-madspin-pythia8_TuneCUETP8M1/D9A494C9-E799-0D41-AA6D-798480D55ACF.root'
p115
aS'/eos/cms/store/group/phys_smp/AnalysisFramework/Baobab/Metin/gammaplusb/2016/MC/ST_t-channel_top_4f_inclusiveDecays_13TeV-powhegV2-madspin-pythia8_TuneCUETP8M1/17DC95FA-8574-9043-8B70-28A59C3798A6.root'
p116
aS'/eos/cms/store/group/phys_smp/AnalysisFramework/Baobab/Metin/gammaplusb/2016/MC/ST_t-channel_top_4f_inclusiveDecays_13TeV-powhegV2-madspin-pythia8_TuneCUETP8M1/1F9AB02D-166C-344D-951B-45AA6B34F08F.root'
p117
aS'/eos/cms/store/group/phys_smp/AnalysisFramework/Baobab/Metin/gammaplusb/2016/MC/ST_t-channel_top_4f_inclusiveDecays_13TeV-powhegV2-madspin-pythia8_TuneCUETP8M1/AA8B244C-B760-DF40-BB4A-B85A191C3058.root'
p118
aS'/eos/cms/store/group/phys_smp/AnalysisFramework/Baobab/Metin/gammaplusb/2016/MC/ST_t-channel_top_4f_inclusiveDecays_13TeV-powhegV2-madspin-pythia8_TuneCUETP8M1/61A161B6-B1B2-C043-91D0-6D603C662F90.root'
p119
aS'/eos/cms/store/group/phys_smp/AnalysisFramework/Baobab/Metin/gammaplusb/2016/MC/ST_t-channel_top_4f_inclusiveDecays_13TeV-powhegV2-madspin-pythia8_TuneCUETP8M1/2B0B52E8-8CB2-5545-AEDA-2804F7255043.root'
p120
aS'/eos/cms/store/group/phys_smp/AnalysisFramework/Baobab/Metin/gammaplusb/2016/MC/ST_t-channel_top_4f_inclusiveDecays_13TeV-powhegV2-madspin-pythia8_TuneCUETP8M1/3EC7D8EC-EBBC-604A-A2FD-3CA23E858728.root'
p121
aS'/eos/cms/store/group/phys_smp/AnalysisFramework/Baobab/Metin/gammaplusb/2016/MC/ST_t-channel_top_4f_inclusiveDecays_13TeV-powhegV2-madspin-pythia8_TuneCUETP8M1/867D7101-EB24-4840-BAD3-6340A374CCFB.root'
p122
aS'/eos/cms/store/group/phys_smp/AnalysisFramework/Baobab/Metin/gammaplusb/2016/MC/ST_t-channel_top_4f_inclusiveDecays_13TeV-powhegV2-madspin-pythia8_TuneCUETP8M1/E90E0DE5-3BF1-0F46-BB70-45EA444DA4A0.root'
p123
aS'/eos/cms/store/group/phys_smp/AnalysisFramework/Baobab/Metin/gammaplusb/2016/MC/ST_t-channel_top_4f_inclusiveDecays_13TeV-powhegV2-madspin-pythia8_TuneCUETP8M1/3D47FA0A-7214-FA46-9548-2448483B3E49.root'
p124
aS'/eos/cms/store/group/phys_smp/AnalysisFramework/Baobab/Metin/gammaplusb/2016/MC/ST_t-channel_top_4f_inclusiveDecays_13TeV-powhegV2-madspin-pythia8_TuneCUETP8M1/39252CDE-07B8-3849-9FAD-2CCF799191A1.root'
p125
aS'/eos/cms/store/group/phys_smp/AnalysisFramework/Baobab/Metin/gammaplusb/2016/MC/ST_t-channel_top_4f_inclusiveDecays_13TeV-powhegV2-madspin-pythia8_TuneCUETP8M1/791A7597-F9D7-B84B-A9BA-FE3C1DC1B799.root'
p126
aS'/eos/cms/store/group/phys_smp/AnalysisFramework/Baobab/Metin/gammaplusb/2016/MC/ST_t-channel_top_4f_inclusiveDecays_13TeV-powhegV2-madspin-pythia8_TuneCUETP8M1/9F54B8E2-8D9D-BE4D-95CA-3854656BE7C8.root'
p127
aS'/eos/cms/store/group/phys_smp/AnalysisFramework/Baobab/Metin/gammaplusb/2016/MC/ST_t-channel_top_4f_inclusiveDecays_13TeV-powhegV2-madspin-pythia8_TuneCUETP8M1/F6E8EE8D-4E63-4841-861A-3A1C10564B8B.root'
p128
asg30
F136.82
sg31
S'/ST_t-channel_top_4f_inclusiveDecays_13TeV-powhegV2-madspin-pythia8_TuneCUETP8M1/RunIISummer16NanoAODv7-PUMoriond17_Nano02Apr2020_102X_mcRun2_asymptotic_v8-v2/NANOAODSIM'
p129
ssS'ST_tW_top'
p130
(dp131
g6
F26.25
sg7
F0.0
sg8
F0.0305
sg9
(lp132
S'/eos/cms/store/group/phys_smp/AnalysisFramework/Baobab/Metin/gammaplusb/2016/MC/ST_tW_top_5f_inclusiveDecays_13TeV-powheg-pythia8_TuneCUETP8M1/432C6718-4006-A64E-B4DE-6452D9C484F8.root'
p133
aS'/eos/cms/store/group/phys_smp/AnalysisFramework/Baobab/Metin/gammaplusb/2016/MC/ST_tW_top_5f_inclusiveDecays_13TeV-powheg-pythia8_TuneCUETP8M1/6967CC9C-7660-F74C-A213-194038057DBD.root'
p134
aS'/eos/cms/store/group/phys_smp/AnalysisFramework/Baobab/Metin/gammaplusb/2016/MC/ST_tW_top_5f_inclusiveDecays_13TeV-powheg-pythia8_TuneCUETP8M1/72688701-B216-824B-8AF2-FFE739EC3B8B.root'
p135
aS'/eos/cms/store/group/phys_smp/AnalysisFramework/Baobab/Metin/gammaplusb/2016/MC/ST_tW_top_5f_inclusiveDecays_13TeV-powheg-pythia8_TuneCUETP8M1/A1C7A9B7-B316-734C-B10D-4E9DAACA6E24.root'
p136
aS'/eos/cms/store/group/phys_smp/AnalysisFramework/Baobab/Metin/gammaplusb/2016/MC/ST_tW_top_5f_inclusiveDecays_13TeV-powheg-pythia8_TuneCUETP8M1/AAEDE92B-01D5-E346-B847-71B7EF90FA05.root'
p137
aS'/eos/cms/store/group/phys_smp/AnalysisFramework/Baobab/Metin/gammaplusb/2016/MC/ST_tW_top_5f_inclusiveDecays_13TeV-powheg-pythia8_TuneCUETP8M1/D1F8A9A8-66CF-5347-9DC8-DD9003A58505.root'
p138
aS'/eos/cms/store/group/phys_smp/AnalysisFramework/Baobab/Metin/gammaplusb/2016/MC/ST_tW_top_5f_inclusiveDecays_13TeV-powheg-pythia8_TuneCUETP8M1/F9E98ED1-FB5D-C84D-B4E1-E903E046FA7A.root'
p139
asg30
F38.09
sg31
S'/ST_tW_top_5f_inclusiveDecays_13TeV-powheg-pythia8_TuneCUETP8M1/RunIISummer16NanoAODv7-PUMoriond17_Nano02Apr2020_102X_mcRun2_asymptotic_v8_ext1-v1/NANOAODSIM'
p140
ssS'QCD'
p141
(dp142
g6
F7.301e-07
sg7
F0.0
sg8
F2159000.0
sg9
(lp143
S'/eos/cms/store/group/phys_smp/AnalysisFramework/Baobab/Metin/gammaplusb/2016/MC/QCD_Pt-15to7000_TuneCUETP8M1_FlatP6_13TeV_pythia8/CAEC809C-4BBB-5C47-83A6-95D0115B7990.root'
p144
aS'/eos/cms/store/group/phys_smp/AnalysisFramework/Baobab/Metin/gammaplusb/2016/MC/QCD_Pt-15to7000_TuneCUETP8M1_FlatP6_13TeV_pythia8/99C8CFB3-5A41-D648-A265-726784B484A7.root'
p145
aS'/eos/cms/store/group/phys_smp/AnalysisFramework/Baobab/Metin/gammaplusb/2016/MC/QCD_Pt-15to7000_TuneCUETP8M1_FlatP6_13TeV_pythia8/1F00A0AB-D54A-4C4E-AD1C-7E9FBC7ABF7B.root'
p146
aS'/eos/cms/store/group/phys_smp/AnalysisFramework/Baobab/Metin/gammaplusb/2016/MC/QCD_Pt-15to7000_TuneCUETP8M1_FlatP6_13TeV_pythia8/228C82F3-E242-4945-8C23-3E11EC5FFB46.root'
p147
aS'/eos/cms/store/group/phys_smp/AnalysisFramework/Baobab/Metin/gammaplusb/2016/MC/QCD_Pt-15to7000_TuneCUETP8M1_FlatP6_13TeV_pythia8/DB6EC975-58EB-8746-A5AC-78EEAA2AB086.root'
p148
aS'/eos/cms/store/group/phys_smp/AnalysisFramework/Baobab/Metin/gammaplusb/2016/MC/QCD_Pt-15to7000_TuneCUETP8M1_FlatP6_13TeV_pythia8/C646A254-9DCC-3D42-88FE-5BF7BA212ED8.root'
p149
aS'/eos/cms/store/group/phys_smp/AnalysisFramework/Baobab/Metin/gammaplusb/2016/MC/QCD_Pt-15to7000_TuneCUETP8M1_FlatP6_13TeV_pythia8/9C910F9D-70DE-3F4D-BBEF-0C5DD3678BDC.root'
p150
aS'/eos/cms/store/group/phys_smp/AnalysisFramework/Baobab/Metin/gammaplusb/2016/MC/QCD_Pt-15to7000_TuneCUETP8M1_FlatP6_13TeV_pythia8/5DA66C2A-B37B-734F-83EE-4EF46572FE93.root'
p151
aS'/eos/cms/store/group/phys_smp/AnalysisFramework/Baobab/Metin/gammaplusb/2016/MC/QCD_Pt-15to7000_TuneCUETP8M1_FlatP6_13TeV_pythia8/7B99C2BE-F143-A642-A3D4-6DFD83E00C6B.root'
p152
aS'/eos/cms/store/group/phys_smp/AnalysisFramework/Baobab/Metin/gammaplusb/2016/MC/QCD_Pt-15to7000_TuneCUETP8M1_FlatP6_13TeV_pythia8/EA01882A-79E7-FC48-B8E8-55EF167E473D.root'
p153
aS'/eos/cms/store/group/phys_smp/AnalysisFramework/Baobab/Metin/gammaplusb/2016/MC/QCD_Pt-15to7000_TuneCUETP8M1_FlatP6_13TeV_pythia8/5EE750B3-84B5-7A49-9FF5-65FCFBD118D9.root'
p154
asg30
F1370000000.0
sg31
S'/GJet_Pt-15To6000_TuneCP5-Flat_13TeV_pythia8/RunIIFall17NanoAODv7-PU2017_12Apr2018_Nano02Apr2020_102X_mc2017_realistic_v8-v1/NANOAODSIM'
p155
ssS'TTGJets'
p156
(dp157
g6
F27.63
sg7
F0.3381
sg8
F0.02629
sg9
(lp158
S'/eos/cms/store/group/phys_smp/AnalysisFramework/Baobab/Metin/gammaplusb/2016/MC/TTGJets_TuneCUETP8M1_13TeV-amcatnloFXFX-madspin-pythia8/38643309-8D31-924F-B0D1-7057E954C7A9.root'
p159
aS'/eos/cms/store/group/phys_smp/AnalysisFramework/Baobab/Metin/gammaplusb/2016/MC/TTGJets_TuneCUETP8M1_13TeV-amcatnloFXFX-madspin-pythia8/34C10AB2-D417-DD4F-A2E6-1E965B8FCC59.root'
p160
aS'/eos/cms/store/group/phys_smp/AnalysisFramework/Baobab/Metin/gammaplusb/2016/MC/TTGJets_TuneCUETP8M1_13TeV-amcatnloFXFX-madspin-pythia8/877EA64D-65CD-644D-961A-805A2DA5605C.root'
p161
aS'/eos/cms/store/group/phys_smp/AnalysisFramework/Baobab/Metin/gammaplusb/2016/MC/TTGJets_TuneCUETP8M1_13TeV-amcatnloFXFX-madspin-pythia8/F3CB99A0-2B5E-3341-8B6A-340C6792E5F1.root'
p162
aS'/eos/cms/store/group/phys_smp/AnalysisFramework/Baobab/Metin/gammaplusb/2016/MC/TTGJets_TuneCUETP8M1_13TeV-amcatnloFXFX-madspin-pythia8/D8A0203B-4AF3-C841-8A27-BA41E7173158.root'
p163
aS'/eos/cms/store/group/phys_smp/AnalysisFramework/Baobab/Metin/gammaplusb/2016/MC/TTGJets_TuneCUETP8M1_13TeV-amcatnloFXFX-madspin-pythia8/4E4B6918-2513-E84B-9E42-CA30C1040BAC.root'
p164
aS'/eos/cms/store/group/phys_smp/AnalysisFramework/Baobab/Metin/gammaplusb/2016/MC/TTGJets_TuneCUETP8M1_13TeV-amcatnloFXFX-madspin-pythia8/B712CC24-1EF6-9245-980D-F710792904F3.root'
p165
aS'/eos/cms/store/group/phys_smp/AnalysisFramework/Baobab/Metin/gammaplusb/2016/MC/TTGJets_TuneCUETP8M1_13TeV-amcatnloFXFX-madspin-pythia8/AF20F1C3-D549-6341-9A51-83E3C9DB8251.root'
p166
aS'/eos/cms/store/group/phys_smp/AnalysisFramework/Baobab/Metin/gammaplusb/2016/MC/TTGJets_TuneCUETP8M1_13TeV-amcatnloFXFX-madspin-pythia8/58D34A9B-8628-6244-B621-453B276599FB.root'
p167
aS'/eos/cms/store/group/phys_smp/AnalysisFramework/Baobab/Metin/gammaplusb/2016/MC/TTGJets_TuneCUETP8M1_13TeV-amcatnloFXFX-madspin-pythia8/CF614110-CE1C-A149-954A-618751A7A309.root'
p168
asg30
F3.795
sg31
S'/TTGJets_TuneCP5_13TeV-amcatnloFXFX-madspin-pythia8/RunIIFall17NanoAODv7-PU2017_12Apr2018_Nano02Apr2020_102X_mc2017_realistic_v8_ext1-v1/NANOAODSIM'
p169
ssS'TGJets'
p170
(dp171
g6
F13.27
sg7
F0.4008
sg8
F0.01052
sg9
(lp172
S'/eos/cms/store/group/phys_smp/AnalysisFramework/Baobab/Metin/gammaplusb/2016/MC/TGJets_TuneCUETP8M1_13TeV_amcatnlo_madspin_pythia8/BF81AD4A-06FB-E74B-8FF4-1A783DB6A6E1.root'
p173
asg30
F2.967
sg31
S'/TGJets_TuneCP5_13TeV_amcatnlo_madspin_pythia8/RunIIFall17NanoAODv7-PU2017_12Apr2018_Nano02Apr2020_102X_mc2017_realistic_v8-v1/NANOAODSIM'
p174
ssS'ST_tW_antitop'
p175
(dp176
g6
F26.27
sg7
F0.0
sg8
F0.03055
sg9
(lp177
S'/eos/cms/store/group/phys_smp/AnalysisFramework/Baobab/Metin/gammaplusb/2016/MC/ST_tW_antitop_5f_inclusiveDecays_13TeV-powheg-pythia8_TuneCUETP8M1/033AF8F4-BCF8-4849-B5AA-09F2EC1BD92A.root'
p178
aS'/eos/cms/store/group/phys_smp/AnalysisFramework/Baobab/Metin/gammaplusb/2016/MC/ST_tW_antitop_5f_inclusiveDecays_13TeV-powheg-pythia8_TuneCUETP8M1/43449425-3561-3D45-B1B1-966928E88E51.root'
p179
aS'/eos/cms/store/group/phys_smp/AnalysisFramework/Baobab/Metin/gammaplusb/2016/MC/ST_tW_antitop_5f_inclusiveDecays_13TeV-powheg-pythia8_TuneCUETP8M1/4F3F667C-3C0D-334C-B10A-016E241D6277.root'
p180
aS'/eos/cms/store/group/phys_smp/AnalysisFramework/Baobab/Metin/gammaplusb/2016/MC/ST_tW_antitop_5f_inclusiveDecays_13TeV-powheg-pythia8_TuneCUETP8M1/62306AE9-81A2-674E-BC71-53635B219AD5.root'
p181
aS'/eos/cms/store/group/phys_smp/AnalysisFramework/Baobab/Metin/gammaplusb/2016/MC/ST_tW_antitop_5f_inclusiveDecays_13TeV-powheg-pythia8_TuneCUETP8M1/9600DABA-7791-7E4F-B7DD-11774216285F.root'
p182
aS'/eos/cms/store/group/phys_smp/AnalysisFramework/Baobab/Metin/gammaplusb/2016/MC/ST_tW_antitop_5f_inclusiveDecays_13TeV-powheg-pythia8_TuneCUETP8M1/C8702686-4FC3-D94D-A0FB-FD71F2B513BC.root'
p183
aS'/eos/cms/store/group/phys_smp/AnalysisFramework/Baobab/Metin/gammaplusb/2016/MC/ST_tW_antitop_5f_inclusiveDecays_13TeV-powheg-pythia8_TuneCUETP8M1/D7502507-5A89-6541-91CD-28BF9B5DE967.root'
p184
aS'/eos/cms/store/group/phys_smp/AnalysisFramework/Baobab/Metin/gammaplusb/2016/MC/ST_tW_antitop_5f_inclusiveDecays_13TeV-powheg-pythia8_TuneCUETP8M1/DB95A360-C2C4-FA49-A33B-9AEAE4E5DD16.root'
p185
aS'/eos/cms/store/group/phys_smp/AnalysisFramework/Baobab/Metin/gammaplusb/2016/MC/ST_tW_antitop_5f_inclusiveDecays_13TeV-powheg-pythia8_TuneCUETP8M1/DD38FB18-5B81-BA48-BD28-2E901ACC58B8.root'
p186
aS'/eos/cms/store/group/phys_smp/AnalysisFramework/Baobab/Metin/gammaplusb/2016/MC/ST_tW_antitop_5f_inclusiveDecays_13TeV-powheg-pythia8_TuneCUETP8M1/E24C11AA-26DD-9A4F-AC39-67C011C9D658.root'
p187
asg30
F38.06
sg31
S'/ST_tW_antitop_5f_inclusiveDecays_13TeV-powheg-pythia8_TuneCUETP8M1/RunIISummer16NanoAODv7-PUMoriond17_Nano02Apr2020_102X_mcRun2_asymptotic_v8_ext1-v1/NANOAODSIM'
p188
ssssI2017
(dp189
g2
(dp190
g4
(dp191
g6
F0.003534
sg7
F0.0
sg8
F299.4
sg9
(lp192
S'/eos/cms/store/group/phys_smp/AnalysisFramework/Baobab/Metin/gammaplusb/2017/MC/GJet_Pt-15To6000_TuneCP5-Flat_13TeV_pythia8/15719DE0-E88D-B548-9DEF-AFEE589925D7.root'
p193
aS'/eos/cms/store/group/phys_smp/AnalysisFramework/Baobab/Metin/gammaplusb/2017/MC/GJet_Pt-15To6000_TuneCP5-Flat_13TeV_pythia8/0FC13082-8A6D-6541-9C7C-2966B3590FF4.root'
p194
aS'/eos/cms/store/group/phys_smp/AnalysisFramework/Baobab/Metin/gammaplusb/2017/MC/GJet_Pt-15To6000_TuneCP5-Flat_13TeV_pythia8/B5423023-4479-8046-9EFE-4D754EADF20F.root'
p195
aS'/eos/cms/store/group/phys_smp/AnalysisFramework/Baobab/Metin/gammaplusb/2017/MC/GJet_Pt-15To6000_TuneCP5-Flat_13TeV_pythia8/F223243A-9C89-234F-8A61-539A6318EC89.root'
p196
aS'/eos/cms/store/group/phys_smp/AnalysisFramework/Baobab/Metin/gammaplusb/2017/MC/GJet_Pt-15To6000_TuneCP5-Flat_13TeV_pythia8/28753A5D-767D-094C-9C75-22BBA1D42329.root'
p197
aS'/eos/cms/store/group/phys_smp/AnalysisFramework/Baobab/Metin/gammaplusb/2017/MC/GJet_Pt-15To6000_TuneCP5-Flat_13TeV_pythia8/5E745717-FB52-8644-B88B-F045755537EB.root'
p198
aS'/eos/cms/store/group/phys_smp/AnalysisFramework/Baobab/Metin/gammaplusb/2017/MC/GJet_Pt-15To6000_TuneCP5-Flat_13TeV_pythia8/31CF18DC-747F-114D-AE4B-3D884F6CC02A.root'
p199
aS'/eos/cms/store/group/phys_smp/AnalysisFramework/Baobab/Metin/gammaplusb/2017/MC/GJet_Pt-15To6000_TuneCP5-Flat_13TeV_pythia8/51889DC9-DBDB-E543-BB6B-F83990932F3A.root'
p200
aS'/eos/cms/store/group/phys_smp/AnalysisFramework/Baobab/Metin/gammaplusb/2017/MC/GJet_Pt-15To6000_TuneCP5-Flat_13TeV_pythia8/E4B0CB0B-5CAF-2A42-A42B-E932DCB9BE60.root'
p201
aS'/eos/cms/store/group/phys_smp/AnalysisFramework/Baobab/Metin/gammaplusb/2017/MC/GJet_Pt-15To6000_TuneCP5-Flat_13TeV_pythia8/FA7CBAA6-72EC-7A4F-B8B5-2C960D081A86.root'
p202
aS'/eos/cms/store/group/phys_smp/AnalysisFramework/Baobab/Metin/gammaplusb/2017/MC/GJet_Pt-15To6000_TuneCP5-Flat_13TeV_pythia8/194AF5BA-5983-7C48-BFB2-B54FBBDB58C2.root'
p203
aS'/eos/cms/store/group/phys_smp/AnalysisFramework/Baobab/Metin/gammaplusb/2017/MC/GJet_Pt-15To6000_TuneCP5-Flat_13TeV_pythia8/F6BEDDBA-FC25-CC4E-AAA6-87EC4350048F.root'
p204
aS'/eos/cms/store/group/phys_smp/AnalysisFramework/Baobab/Metin/gammaplusb/2017/MC/GJet_Pt-15To6000_TuneCP5-Flat_13TeV_pythia8/62F17324-6A3F-5740-A249-9881CC8B7401.root'
p205
aS'/eos/cms/store/group/phys_smp/AnalysisFramework/Baobab/Metin/gammaplusb/2017/MC/GJet_Pt-15To6000_TuneCP5-Flat_13TeV_pythia8/A7E616D9-7D91-624E-BCF4-58FCA0B10E0D.root'
p206
aS'/eos/cms/store/group/phys_smp/AnalysisFramework/Baobab/Metin/gammaplusb/2017/MC/GJet_Pt-15To6000_TuneCP5-Flat_13TeV_pythia8/0E961393-5024-BA46-B232-083527FA94A1.root'
p207
aS'/eos/cms/store/group/phys_smp/AnalysisFramework/Baobab/Metin/gammaplusb/2017/MC/GJet_Pt-15To6000_TuneCP5-Flat_13TeV_pythia8/29351CF9-8AF0-264F-B4DA-AFD66A5482E5.root'
p208
aS'/eos/cms/store/group/phys_smp/AnalysisFramework/Baobab/Metin/gammaplusb/2017/MC/GJet_Pt-15To6000_TuneCP5-Flat_13TeV_pythia8/0BA5CD12-7398-7E46-80CA-807ACA566E71.root'
p209
aS'/eos/cms/store/group/phys_smp/AnalysisFramework/Baobab/Metin/gammaplusb/2017/MC/GJet_Pt-15To6000_TuneCP5-Flat_13TeV_pythia8/484CD468-4BA8-404B-9137-D0789E4E5D3F.root'
p210
aS'/eos/cms/store/group/phys_smp/AnalysisFramework/Baobab/Metin/gammaplusb/2017/MC/GJet_Pt-15To6000_TuneCP5-Flat_13TeV_pythia8/BA26B284-B950-4B42-BEB0-324B1FFF8C74.root'
p211
aS'/eos/cms/store/group/phys_smp/AnalysisFramework/Baobab/Metin/gammaplusb/2017/MC/GJet_Pt-15To6000_TuneCP5-Flat_13TeV_pythia8/571FA3A4-0B5D-044D-9E73-6BA25BA93D16.root'
p212
asg30
F283000.0
sg31
g155
sssg33
(dp213
g35
(dp214
g6
F14.72
sg7
F0.0
sg8
F0.3487
sg9
(lp215
S'/eos/cms/store/group/phys_smp/AnalysisFramework/Baobab/Metin/gammaplusb/2017/MC/ST_t-channel_antitop_4f_inclusiveDecays_TuneCP5_13TeV-powhegV2-madspin-pythia8/054886F4-452F-7345-8A79-F11D4EA4AE3B.root'
p216
aS'/eos/cms/store/group/phys_smp/AnalysisFramework/Baobab/Metin/gammaplusb/2017/MC/ST_t-channel_antitop_4f_inclusiveDecays_TuneCP5_13TeV-powhegV2-madspin-pythia8/092D18B9-2FA2-8047-832D-469CA2D56349.root'
p217
aS'/eos/cms/store/group/phys_smp/AnalysisFramework/Baobab/Metin/gammaplusb/2017/MC/ST_t-channel_antitop_4f_inclusiveDecays_TuneCP5_13TeV-powhegV2-madspin-pythia8/0DF13B77-4113-A242-B4E9-7F02848F70B7.root'
p218
aS'/eos/cms/store/group/phys_smp/AnalysisFramework/Baobab/Metin/gammaplusb/2017/MC/ST_t-channel_antitop_4f_inclusiveDecays_TuneCP5_13TeV-powhegV2-madspin-pythia8/44017F41-776E-934A-B9E6-E713B758AAA0.root'
p219
aS'/eos/cms/store/group/phys_smp/AnalysisFramework/Baobab/Metin/gammaplusb/2017/MC/ST_t-channel_antitop_4f_inclusiveDecays_TuneCP5_13TeV-powhegV2-madspin-pythia8/4F65F309-BD50-364C-9194-35DBBFC7C94C.root'
p220
aS'/eos/cms/store/group/phys_smp/AnalysisFramework/Baobab/Metin/gammaplusb/2017/MC/ST_t-channel_antitop_4f_inclusiveDecays_TuneCP5_13TeV-powhegV2-madspin-pythia8/5BFBB1BD-205B-DC46-961D-B2F1533254FD.root'
p221
aS'/eos/cms/store/group/phys_smp/AnalysisFramework/Baobab/Metin/gammaplusb/2017/MC/ST_t-channel_antitop_4f_inclusiveDecays_TuneCP5_13TeV-powhegV2-madspin-pythia8/679C9BEB-3371-1847-9E19-0FBAF630A206.root'
p222
aS'/eos/cms/store/group/phys_smp/AnalysisFramework/Baobab/Metin/gammaplusb/2017/MC/ST_t-channel_antitop_4f_inclusiveDecays_TuneCP5_13TeV-powhegV2-madspin-pythia8/76534997-6BB5-F448-81F7-B2CC62778C9D.root'
p223
aS'/eos/cms/store/group/phys_smp/AnalysisFramework/Baobab/Metin/gammaplusb/2017/MC/ST_t-channel_antitop_4f_inclusiveDecays_TuneCP5_13TeV-powhegV2-madspin-pythia8/785023A2-EEA4-3D43-9CD7-A2C0FDB5B5C2.root'
p224
aS'/eos/cms/store/group/phys_smp/AnalysisFramework/Baobab/Metin/gammaplusb/2017/MC/ST_t-channel_antitop_4f_inclusiveDecays_TuneCP5_13TeV-powhegV2-madspin-pythia8/7D304D84-D8C1-EB46-B60C-32E99A4D4E05.root'
p225
aS'/eos/cms/store/group/phys_smp/AnalysisFramework/Baobab/Metin/gammaplusb/2017/MC/ST_t-channel_antitop_4f_inclusiveDecays_TuneCP5_13TeV-powhegV2-madspin-pythia8/7DC48BD7-8AA3-ED49-B71C-A6EE94DF5726.root'
p226
aS'/eos/cms/store/group/phys_smp/AnalysisFramework/Baobab/Metin/gammaplusb/2017/MC/ST_t-channel_antitop_4f_inclusiveDecays_TuneCP5_13TeV-powhegV2-madspin-pythia8/A12EFBE5-F349-D04F-95A1-00572C776F4C.root'
p227
aS'/eos/cms/store/group/phys_smp/AnalysisFramework/Baobab/Metin/gammaplusb/2017/MC/ST_t-channel_antitop_4f_inclusiveDecays_TuneCP5_13TeV-powhegV2-madspin-pythia8/BE3FDEE1-C7E0-EC47-AD42-C302BDB58663.root'
p228
aS'/eos/cms/store/group/phys_smp/AnalysisFramework/Baobab/Metin/gammaplusb/2017/MC/ST_t-channel_antitop_4f_inclusiveDecays_TuneCP5_13TeV-powhegV2-madspin-pythia8/C38E473E-BE42-A046-985A-077A6B5D8298.root'
p229
aS'/eos/cms/store/group/phys_smp/AnalysisFramework/Baobab/Metin/gammaplusb/2017/MC/ST_t-channel_antitop_4f_inclusiveDecays_TuneCP5_13TeV-powhegV2-madspin-pythia8/C84F6EF6-6F89-D74B-8ED8-381C43EF692F.root'
p230
aS'/eos/cms/store/group/phys_smp/AnalysisFramework/Baobab/Metin/gammaplusb/2017/MC/ST_t-channel_antitop_4f_inclusiveDecays_TuneCP5_13TeV-powhegV2-madspin-pythia8/CC5AFABE-A658-5444-B2FA-1B47AF8BCF9C.root'
p231
aS'/eos/cms/store/group/phys_smp/AnalysisFramework/Baobab/Metin/gammaplusb/2017/MC/ST_t-channel_antitop_4f_inclusiveDecays_TuneCP5_13TeV-powhegV2-madspin-pythia8/ED5CBE7F-53B9-CD48-9B00-EBDC26A697D4.root'
p232
aS'/eos/cms/store/group/phys_smp/AnalysisFramework/Baobab/Metin/gammaplusb/2017/MC/ST_t-channel_antitop_4f_inclusiveDecays_TuneCP5_13TeV-powhegV2-madspin-pythia8/F3BD903C-7705-D649-B838-58EB147A3862.root'
p233
asg30
F67.91
sg31
S'/ST_t-channel_antitop_4f_inclusiveDecays_TuneCP5_13TeV-powhegV2-madspin-pythia8/RunIIFall17NanoAODv7-PU2017_12Apr2018_Nano02Apr2020_102X_mc2017_realistic_v8-v1/NANOAODSIM'
p234
ssg75
(dp235
g6
F104.5
sg7
F0.1875
sg8
F0.003533
sg9
(lp236
S'/eos/cms/store/group/phys_smp/AnalysisFramework/Baobab/Metin/gammaplusb/2017/MC/ST_s-channel_4f_leptonDecays_TuneCP5_13TeV-amcatnlo-pythia8/24A8C6E7-5285-2345-AB23-66057665D0FC.root'
p237
aS'/eos/cms/store/group/phys_smp/AnalysisFramework/Baobab/Metin/gammaplusb/2017/MC/ST_s-channel_4f_leptonDecays_TuneCP5_13TeV-amcatnlo-pythia8/25C8CCBA-F01E-9646-B4C0-DE25AFC5C5FA.root'
p238
aS'/eos/cms/store/group/phys_smp/AnalysisFramework/Baobab/Metin/gammaplusb/2017/MC/ST_s-channel_4f_leptonDecays_TuneCP5_13TeV-amcatnlo-pythia8/2705CECD-0CA7-904B-B4DE-9E70E54652B8.root'
p239
aS'/eos/cms/store/group/phys_smp/AnalysisFramework/Baobab/Metin/gammaplusb/2017/MC/ST_s-channel_4f_leptonDecays_TuneCP5_13TeV-amcatnlo-pythia8/4459FCD2-24CD-4B47-A0F5-51A0C5CBBB61.root'
p240
aS'/eos/cms/store/group/phys_smp/AnalysisFramework/Baobab/Metin/gammaplusb/2017/MC/ST_s-channel_4f_leptonDecays_TuneCP5_13TeV-amcatnlo-pythia8/5D1EDE56-973E-504E-BCF6-07FE882CB10B.root'
p241
aS'/eos/cms/store/group/phys_smp/AnalysisFramework/Baobab/Metin/gammaplusb/2017/MC/ST_s-channel_4f_leptonDecays_TuneCP5_13TeV-amcatnlo-pythia8/5D2A6859-17AC-7446-AA50-9ACE29F47DFA.root'
p242
aS'/eos/cms/store/group/phys_smp/AnalysisFramework/Baobab/Metin/gammaplusb/2017/MC/ST_s-channel_4f_leptonDecays_TuneCP5_13TeV-amcatnlo-pythia8/922E71D4-3DAA-2543-81F6-855300C5528D.root'
p243
aS'/eos/cms/store/group/phys_smp/AnalysisFramework/Baobab/Metin/gammaplusb/2017/MC/ST_s-channel_4f_leptonDecays_TuneCP5_13TeV-amcatnlo-pythia8/958F134B-4784-0541-9926-4CBF94ACEEEB.root'
p244
aS'/eos/cms/store/group/phys_smp/AnalysisFramework/Baobab/Metin/gammaplusb/2017/MC/ST_s-channel_4f_leptonDecays_TuneCP5_13TeV-amcatnlo-pythia8/C6056161-3FAD-794C-BBFB-77DF940CE86C.root'
p245
aS'/eos/cms/store/group/phys_smp/AnalysisFramework/Baobab/Metin/gammaplusb/2017/MC/ST_s-channel_4f_leptonDecays_TuneCP5_13TeV-amcatnlo-pythia8/D1E00880-15BB-2347-838E-0D0487FAF2CA.root'
p246
aS'/eos/cms/store/group/phys_smp/AnalysisFramework/Baobab/Metin/gammaplusb/2017/MC/ST_s-channel_4f_leptonDecays_TuneCP5_13TeV-amcatnlo-pythia8/DDBEDEEA-1FBD-1348-9046-759EE57C11CE.root'
p247
aS'/eos/cms/store/group/phys_smp/AnalysisFramework/Baobab/Metin/gammaplusb/2017/MC/ST_s-channel_4f_leptonDecays_TuneCP5_13TeV-amcatnlo-pythia8/FB5270AC-5AAE-074D-A21B-A16A4FD5D759.root'
p248
asg30
F3.74
sg31
S'/ST_s-channel_4f_leptonDecays_TuneCP5_13TeV-amcatnlo-pythia8/RunIIFall17NanoAODv7-PU2017_12Apr2018_Nano02Apr2020_102X_mc2017_realistic_v8-v1/NANOAODSIM'
p249
ssg82
(dp250
g6
F8.83
sg7
F0.0
sg8
F0.6404
sg9
(lp251
S'/eos/cms/store/group/phys_smp/AnalysisFramework/Baobab/Metin/gammaplusb/2017/MC/ST_t-channel_top_4f_inclusiveDecays_TuneCP5_13TeV-powhegV2-madspin-pythia8/2DE9C111-6E3D-124B-BE40-D39A01EFC636.root'
p252
aS'/eos/cms/store/group/phys_smp/AnalysisFramework/Baobab/Metin/gammaplusb/2017/MC/ST_t-channel_top_4f_inclusiveDecays_TuneCP5_13TeV-powhegV2-madspin-pythia8/770D16B1-A2F2-834D-B20F-753A6563D56F.root'
p253
aS'/eos/cms/store/group/phys_smp/AnalysisFramework/Baobab/Metin/gammaplusb/2017/MC/ST_t-channel_top_4f_inclusiveDecays_TuneCP5_13TeV-powhegV2-madspin-pythia8/8FA2D813-475C-FF4D-A27B-CD968F028767.root'
p254
aS'/eos/cms/store/group/phys_smp/AnalysisFramework/Baobab/Metin/gammaplusb/2017/MC/ST_t-channel_top_4f_inclusiveDecays_TuneCP5_13TeV-powhegV2-madspin-pythia8/9760EBBE-5735-5941-9969-5A5263185D89.root'
p255
aS'/eos/cms/store/group/phys_smp/AnalysisFramework/Baobab/Metin/gammaplusb/2017/MC/ST_t-channel_top_4f_inclusiveDecays_TuneCP5_13TeV-powhegV2-madspin-pythia8/A8514BC6-7E7C-7B44-BDC7-F2B7A9BA9C17.root'
p256
aS'/eos/cms/store/group/phys_smp/AnalysisFramework/Baobab/Metin/gammaplusb/2017/MC/ST_t-channel_top_4f_inclusiveDecays_TuneCP5_13TeV-powhegV2-madspin-pythia8/B0404830-3C64-9A40-BBD1-671AC4D0A66E.root'
p257
aS'/eos/cms/store/group/phys_smp/AnalysisFramework/Baobab/Metin/gammaplusb/2017/MC/ST_t-channel_top_4f_inclusiveDecays_TuneCP5_13TeV-powhegV2-madspin-pythia8/CBC1ECCC-0DB9-ED4A-9C00-5A3CAECC4B08.root'
p258
aS'/eos/cms/store/group/phys_smp/AnalysisFramework/Baobab/Metin/gammaplusb/2017/MC/ST_t-channel_top_4f_inclusiveDecays_TuneCP5_13TeV-powhegV2-madspin-pythia8/D0AC2011-0A70-C046-BA3D-4A5AC63B896B.root'
p259
asg30
F113.3
sg31
S'/ST_t-channel_top_4f_inclusiveDecays_TuneCP5_13TeV-powhegV2-madspin-pythia8/RunIIFall17NanoAODv7-PU2017_12Apr2018_Nano02Apr2020_new_pmx_102X_mc2017_realistic_v8-v1/NANOAODSIM'
p260
ssg130
(dp261
g6
F28.22
sg7
F0.003758
sg8
F0.02817
sg9
(lp262
S'/eos/cms/store/group/phys_smp/AnalysisFramework/Baobab/Metin/gammaplusb/2017/MC/ST_tW_top_5f_inclusiveDecays_TuneCP5_13TeV-powheg-pythia8/FFB7AB92-C03E-DA46-BEB3-1D57BCF68C2D.root'
p263
aS'/eos/cms/store/group/phys_smp/AnalysisFramework/Baobab/Metin/gammaplusb/2017/MC/ST_tW_top_5f_inclusiveDecays_TuneCP5_13TeV-powheg-pythia8/D2102BF8-7D99-684B-BCA8-3AE79593BB33.root'
p264
aS'/eos/cms/store/group/phys_smp/AnalysisFramework/Baobab/Metin/gammaplusb/2017/MC/ST_tW_top_5f_inclusiveDecays_TuneCP5_13TeV-powheg-pythia8/C6C9F650-0A9C-9244-A272-0C7EB0A48135.root'
p265
aS'/eos/cms/store/group/phys_smp/AnalysisFramework/Baobab/Metin/gammaplusb/2017/MC/ST_tW_top_5f_inclusiveDecays_TuneCP5_13TeV-powheg-pythia8/34C534A3-4AB0-654C-B6D0-DE6C614D370F.root'
p266
aS'/eos/cms/store/group/phys_smp/AnalysisFramework/Baobab/Metin/gammaplusb/2017/MC/ST_tW_top_5f_inclusiveDecays_TuneCP5_13TeV-powheg-pythia8/32859BE5-5F06-2046-8BAA-3164EBB76832.root'
p267
aS'/eos/cms/store/group/phys_smp/AnalysisFramework/Baobab/Metin/gammaplusb/2017/MC/ST_tW_top_5f_inclusiveDecays_TuneCP5_13TeV-powheg-pythia8/DE91133B-14D8-FD45-9B2E-AECD2D509295.root'
p268
aS'/eos/cms/store/group/phys_smp/AnalysisFramework/Baobab/Metin/gammaplusb/2017/MC/ST_tW_top_5f_inclusiveDecays_TuneCP5_13TeV-powheg-pythia8/6F6FD899-570E-2A4D-94DC-F0471649ABE7.root'
p269
aS'/eos/cms/store/group/phys_smp/AnalysisFramework/Baobab/Metin/gammaplusb/2017/MC/ST_tW_top_5f_inclusiveDecays_TuneCP5_13TeV-powheg-pythia8/5BA5124F-6701-3A43-9608-6842E3A6468C.root'
p270
asg30
F34.91
sg31
S'/ST_tW_top_5f_inclusiveDecays_TuneCP5_13TeV-powheg-pythia8/RunIIFall17NanoAODv7-PU2017_12Apr2018_Nano02Apr2020_102X_mc2017_realistic_v8-v1/NANOAODSIM'
p271
ssg141
(dp272
g6
F7.347e-07
sg7
F0.0
sg8
F5238000.0
sg9
(lp273
S'/eos/cms/store/group/phys_smp/AnalysisFramework/Baobab/Metin/gammaplusb/2017/MC/QCD_Pt-15to7000_TuneCUETP8M1_Flat_13TeV_pythia8/8C356AEF-20FF-F241-A9A4-20317EC0BFF7.root'
p274
aS'/eos/cms/store/group/phys_smp/AnalysisFramework/Baobab/Metin/gammaplusb/2017/MC/QCD_Pt-15to7000_TuneCUETP8M1_Flat_13TeV_pythia8/9963A594-B8BB-8F4B-8BDC-20EF7FD201BD.root'
p275
aS'/eos/cms/store/group/phys_smp/AnalysisFramework/Baobab/Metin/gammaplusb/2017/MC/QCD_Pt-15to7000_TuneCUETP8M1_Flat_13TeV_pythia8/7D4115BF-414B-FF45-95C2-C0C298FC33A2.root'
p276
aS'/eos/cms/store/group/phys_smp/AnalysisFramework/Baobab/Metin/gammaplusb/2017/MC/QCD_Pt-15to7000_TuneCUETP8M1_Flat_13TeV_pythia8/D815A5A8-FD3C-4143-B661-6578179D8A47.root'
p277
aS'/eos/cms/store/group/phys_smp/AnalysisFramework/Baobab/Metin/gammaplusb/2017/MC/QCD_Pt-15to7000_TuneCUETP8M1_Flat_13TeV_pythia8/18F0C4B2-5C19-F547-8D88-9B7A1867321B.root'
p278
aS'/eos/cms/store/group/phys_smp/AnalysisFramework/Baobab/Metin/gammaplusb/2017/MC/QCD_Pt-15to7000_TuneCUETP8M1_Flat_13TeV_pythia8/5EC4CA05-51A1-6946-8CCD-E3FF48D157F4.root'
p279
aS'/eos/cms/store/group/phys_smp/AnalysisFramework/Baobab/Metin/gammaplusb/2017/MC/QCD_Pt-15to7000_TuneCUETP8M1_Flat_13TeV_pythia8/705C5006-5C59-5743-A8EF-4DCBFFC54BE7.root'
p280
aS'/eos/cms/store/group/phys_smp/AnalysisFramework/Baobab/Metin/gammaplusb/2017/MC/QCD_Pt-15to7000_TuneCUETP8M1_Flat_13TeV_pythia8/D8473C22-081C-314D-99AD-18F9B1D626E7.root'
p281
aS'/eos/cms/store/group/phys_smp/AnalysisFramework/Baobab/Metin/gammaplusb/2017/MC/QCD_Pt-15to7000_TuneCUETP8M1_Flat_13TeV_pythia8/4A477046-4D89-D54D-81A7-FABC94E0C65B.root'
p282
aS'/eos/cms/store/group/phys_smp/AnalysisFramework/Baobab/Metin/gammaplusb/2017/MC/QCD_Pt-15to7000_TuneCUETP8M1_Flat_13TeV_pythia8/B6B3FFA9-17BA-8844-9611-3CD6813412E0.root'
p283
aS'/eos/cms/store/group/phys_smp/AnalysisFramework/Baobab/Metin/gammaplusb/2017/MC/QCD_Pt-15to7000_TuneCUETP8M1_Flat_13TeV_pythia8/1CCF6F8B-DDEB-1942-8B7F-6679CBBD34EB.root'
p284
aS'/eos/cms/store/group/phys_smp/AnalysisFramework/Baobab/Metin/gammaplusb/2017/MC/QCD_Pt-15to7000_TuneCUETP8M1_Flat_13TeV_pythia8/3DAD047A-48E4-344D-A25F-6F77BBDC1F4B.root'
p285
aS'/eos/cms/store/group/phys_smp/AnalysisFramework/Baobab/Metin/gammaplusb/2017/MC/QCD_Pt-15to7000_TuneCUETP8M1_Flat_13TeV_pythia8/9F87994A-D83A-4E43-ACB2-EF6B52B6B17B.root'
p286
aS'/eos/cms/store/group/phys_smp/AnalysisFramework/Baobab/Metin/gammaplusb/2017/MC/QCD_Pt-15to7000_TuneCUETP8M1_Flat_13TeV_pythia8/FAB9411A-AB47-CA43-A244-087A2FB28733.root'
p287
aS'/eos/cms/store/group/phys_smp/AnalysisFramework/Baobab/Metin/gammaplusb/2017/MC/QCD_Pt-15to7000_TuneCUETP8M1_Flat_13TeV_pythia8/DF6298A3-E081-9542-A6BE-8F4263D06A9E.root'
p288
aS'/eos/cms/store/group/phys_smp/AnalysisFramework/Baobab/Metin/gammaplusb/2017/MC/QCD_Pt-15to7000_TuneCUETP8M1_Flat_13TeV_pythia8/366A270E-944F-6E42-912C-0DE77E6F4976.root'
p289
aS'/eos/cms/store/group/phys_smp/AnalysisFramework/Baobab/Metin/gammaplusb/2017/MC/QCD_Pt-15to7000_TuneCUETP8M1_Flat_13TeV_pythia8/65A83FC7-E8BD-0B42-98A8-85FE09DE3808.root'
p290
aS'/eos/cms/store/group/phys_smp/AnalysisFramework/Baobab/Metin/gammaplusb/2017/MC/QCD_Pt-15to7000_TuneCUETP8M1_Flat_13TeV_pythia8/FD9D7601-4DE0-494E-B670-E526B02E94E5.root'
p291
aS'/eos/cms/store/group/phys_smp/AnalysisFramework/Baobab/Metin/gammaplusb/2017/MC/QCD_Pt-15to7000_TuneCUETP8M1_Flat_13TeV_pythia8/6355DB62-9BFD-A047-B77A-5385797AC303.root'
p292
aS'/eos/cms/store/group/phys_smp/AnalysisFramework/Baobab/Metin/gammaplusb/2017/MC/QCD_Pt-15to7000_TuneCUETP8M1_Flat_13TeV_pythia8/E28040CB-6E09-5048-9E71-0482C44A000B.root'
p293
asg30
F1361000000.0
sg31
S'/QCD_Pt-15to7000_TuneCUETP8M1_Flat_13TeV_pythia8/RunIIFall17NanoAODv7-PU2017_12Apr2018_Nano02Apr2020_102X_mc2017_realistic_v8-v1/NANOAODSIM'
p294
ssg156
(dp295
g6
F37.33
sg7
F0.3049
sg8
F0.02302
sg9
(lp296
S'/eos/cms/store/group/phys_smp/AnalysisFramework/Baobab/Metin/gammaplusb/2017/MC/TTGJets_TuneCP5_13TeV-amcatnloFXFX-madspin-pythia8/7B6C2063-671E-7344-B7C3-A4A6C36C7936.root'
p297
aS'/eos/cms/store/group/phys_smp/AnalysisFramework/Baobab/Metin/gammaplusb/2017/MC/TTGJets_TuneCP5_13TeV-amcatnloFXFX-madspin-pythia8/8BCA56AA-F972-194E-AF2D-9B9848537040.root'
p298
aS'/eos/cms/store/group/phys_smp/AnalysisFramework/Baobab/Metin/gammaplusb/2017/MC/TTGJets_TuneCP5_13TeV-amcatnloFXFX-madspin-pythia8/BB349952-2F6A-0443-A90B-F9874967EE7B.root'
p299
aS'/eos/cms/store/group/phys_smp/AnalysisFramework/Baobab/Metin/gammaplusb/2017/MC/TTGJets_TuneCP5_13TeV-amcatnloFXFX-madspin-pythia8/CAE33C09-8E35-5A40-98D6-41F80581BE19.root'
p300
aS'/eos/cms/store/group/phys_smp/AnalysisFramework/Baobab/Metin/gammaplusb/2017/MC/TTGJets_TuneCP5_13TeV-amcatnloFXFX-madspin-pythia8/FAACB4B7-33ED-5C4F-B49D-E0015CF1227A.root'
p301
aS'/eos/cms/store/group/phys_smp/AnalysisFramework/Baobab/Metin/gammaplusb/2017/MC/TTGJets_TuneCP5_13TeV-amcatnloFXFX-madspin-pythia8/9C3216DE-098F-7F40-8055-9B8F204C1623.root'
p302
aS'/eos/cms/store/group/phys_smp/AnalysisFramework/Baobab/Metin/gammaplusb/2017/MC/TTGJets_TuneCP5_13TeV-amcatnloFXFX-madspin-pythia8/F1316180-A735-F043-BFF9-B8DC6B513388.root'
p303
aS'/eos/cms/store/group/phys_smp/AnalysisFramework/Baobab/Metin/gammaplusb/2017/MC/TTGJets_TuneCP5_13TeV-amcatnloFXFX-madspin-pythia8/5C4E5DD2-EF1D-4148-931B-074ECBC24B15.root'
p304
aS'/eos/cms/store/group/phys_smp/AnalysisFramework/Baobab/Metin/gammaplusb/2017/MC/TTGJets_TuneCP5_13TeV-amcatnloFXFX-madspin-pythia8/3EB1A3CC-3298-C347-9BFB-EAE93B6F2303.root'
p305
aS'/eos/cms/store/group/phys_smp/AnalysisFramework/Baobab/Metin/gammaplusb/2017/MC/TTGJets_TuneCP5_13TeV-amcatnloFXFX-madspin-pythia8/E8E18DE2-879F-9C48-B379-94514F96C322.root'
p306
aS'/eos/cms/store/group/phys_smp/AnalysisFramework/Baobab/Metin/gammaplusb/2017/MC/TTGJets_TuneCP5_13TeV-amcatnloFXFX-madspin-pythia8/ABE5433A-14C6-E94B-981A-4E3F98464751.root'
p307
aS'/eos/cms/store/group/phys_smp/AnalysisFramework/Baobab/Metin/gammaplusb/2017/MC/TTGJets_TuneCP5_13TeV-amcatnloFXFX-madspin-pythia8/619AB5B4-12B6-144E-867B-265AA02CD498.root'
p308
asg30
F4.078
sg31
g169
ssg170
(dp309
g6
F12.52
sg7
F0.4022
sg8
F0.01255
sg9
(lp310
S'/eos/cms/store/group/phys_smp/AnalysisFramework/Baobab/Metin/gammaplusb/2017/MC/TGJets_TuneCP5_13TeV_amcatnlo_madspin_pythia8/4ECA191F-AC8F-4A47-8095-E20E6E754558.root'
p311
aS'/eos/cms/store/group/phys_smp/AnalysisFramework/Baobab/Metin/gammaplusb/2017/MC/TGJets_TuneCP5_13TeV_amcatnlo_madspin_pythia8/DC14F433-CDDE-7A41-A19E-42EF8FE5F3BA.root'
p312
aS'/eos/cms/store/group/phys_smp/AnalysisFramework/Baobab/Metin/gammaplusb/2017/MC/TGJets_TuneCP5_13TeV_amcatnlo_madspin_pythia8/D7F54979-1E0F-2D4B-88A8-ADE629485550.root'
p313
aS'/eos/cms/store/group/phys_smp/AnalysisFramework/Baobab/Metin/gammaplusb/2017/MC/TGJets_TuneCP5_13TeV_amcatnlo_madspin_pythia8/A62CFD32-007B-7A42-891C-1D083E49117C.root'
p314
aS'/eos/cms/store/group/phys_smp/AnalysisFramework/Baobab/Metin/gammaplusb/2017/MC/TGJets_TuneCP5_13TeV_amcatnlo_madspin_pythia8/BF859D93-2E8E-D644-85A5-56EF91351E48.root'
p315
aS'/eos/cms/store/group/phys_smp/AnalysisFramework/Baobab/Metin/gammaplusb/2017/MC/TGJets_TuneCP5_13TeV_amcatnlo_madspin_pythia8/0996B688-6E6A-1A4C-80BB-346F36229BB6.root'
p316
aS'/eos/cms/store/group/phys_smp/AnalysisFramework/Baobab/Metin/gammaplusb/2017/MC/TGJets_TuneCP5_13TeV_amcatnlo_madspin_pythia8/89A06D03-32F2-1046-A237-0191F5FBADE1.root'
p317
aS'/eos/cms/store/group/phys_smp/AnalysisFramework/Baobab/Metin/gammaplusb/2017/MC/TGJets_TuneCP5_13TeV_amcatnlo_madspin_pythia8/17F76CFC-D5E4-1644-97CB-E97A4811538F.root'
p318
aS'/eos/cms/store/group/phys_smp/AnalysisFramework/Baobab/Metin/gammaplusb/2017/MC/TGJets_TuneCP5_13TeV_amcatnlo_madspin_pythia8/687BEBD3-F8E9-8C47-9D45-66971EE48AB5.root'
p319
aS'/eos/cms/store/group/phys_smp/AnalysisFramework/Baobab/Metin/gammaplusb/2017/MC/TGJets_TuneCP5_13TeV_amcatnlo_madspin_pythia8/09F5F85E-DD52-E242-85D9-008C2506CF84.root'
p320
aS'/eos/cms/store/group/phys_smp/AnalysisFramework/Baobab/Metin/gammaplusb/2017/MC/TGJets_TuneCP5_13TeV_amcatnlo_madspin_pythia8/6174E5F6-55CD-A343-8BD7-C9A4D90A9931.root'
p321
aS'/eos/cms/store/group/phys_smp/AnalysisFramework/Baobab/Metin/gammaplusb/2017/MC/TGJets_TuneCP5_13TeV_amcatnlo_madspin_pythia8/1854A452-5C00-034E-8F66-E036803D74F2.root'
p322
aS'/eos/cms/store/group/phys_smp/AnalysisFramework/Baobab/Metin/gammaplusb/2017/MC/TGJets_TuneCP5_13TeV_amcatnlo_madspin_pythia8/92EB2D9A-F6BF-0542-9F27-0F28C9D4FB10.root'
p323
aS'/eos/cms/store/group/phys_smp/AnalysisFramework/Baobab/Metin/gammaplusb/2017/MC/TGJets_TuneCP5_13TeV_amcatnlo_madspin_pythia8/2D3322F6-F21A-1F42-8141-8F3D21FD907E.root'
p324
aS'/eos/cms/store/group/phys_smp/AnalysisFramework/Baobab/Metin/gammaplusb/2017/MC/TGJets_TuneCP5_13TeV_amcatnlo_madspin_pythia8/6F43C9B0-6986-B04C-80B1-58ECFFDDD948.root'
p325
aS'/eos/cms/store/group/phys_smp/AnalysisFramework/Baobab/Metin/gammaplusb/2017/MC/TGJets_TuneCP5_13TeV_amcatnlo_madspin_pythia8/911C81F7-1C9D-6044-9775-B0181462D296.root'
p326
aS'/eos/cms/store/group/phys_smp/AnalysisFramework/Baobab/Metin/gammaplusb/2017/MC/TGJets_TuneCP5_13TeV_amcatnlo_madspin_pythia8/7A30813E-AB0F-4544-A0CC-E2CD6A26541F.root'
p327
aS'/eos/cms/store/group/phys_smp/AnalysisFramework/Baobab/Metin/gammaplusb/2017/MC/TGJets_TuneCP5_13TeV_amcatnlo_madspin_pythia8/77C393EA-CF50-0441-B41B-82E4DFE78A58.root'
p328
aS'/eos/cms/store/group/phys_smp/AnalysisFramework/Baobab/Metin/gammaplusb/2017/MC/TGJets_TuneCP5_13TeV_amcatnlo_madspin_pythia8/C62FEF76-AF79-CD45-86FE-6D849DA8B40F.root'
p329
aS'/eos/cms/store/group/phys_smp/AnalysisFramework/Baobab/Metin/gammaplusb/2017/MC/TGJets_TuneCP5_13TeV_amcatnlo_madspin_pythia8/FE2341DA-5DF1-6240-83D1-0E78AAA7007F.root'
p330
aS'/eos/cms/store/group/phys_smp/AnalysisFramework/Baobab/Metin/gammaplusb/2017/MC/TGJets_TuneCP5_13TeV_amcatnlo_madspin_pythia8/5BD3535E-1573-2343-8BC6-C6F225D8567F.root'
p331
aS'/eos/cms/store/group/phys_smp/AnalysisFramework/Baobab/Metin/gammaplusb/2017/MC/TGJets_TuneCP5_13TeV_amcatnlo_madspin_pythia8/476F8365-D8D6-0941-BB09-0129B4C86730.root'
p332
aS'/eos/cms/store/group/phys_smp/AnalysisFramework/Baobab/Metin/gammaplusb/2017/MC/TGJets_TuneCP5_13TeV_amcatnlo_madspin_pythia8/B23442E2-4083-2C40-8953-FF4E007D8BD6.root'
p333
aS'/eos/cms/store/group/phys_smp/AnalysisFramework/Baobab/Metin/gammaplusb/2017/MC/TGJets_TuneCP5_13TeV_amcatnlo_madspin_pythia8/568E3493-2992-B340-BD35-6817ABFCF7A0.root'
p334
aS'/eos/cms/store/group/phys_smp/AnalysisFramework/Baobab/Metin/gammaplusb/2017/MC/TGJets_TuneCP5_13TeV_amcatnlo_madspin_pythia8/9F66A6A9-52D3-2541-A539-702A5C6A7A90.root'
p335
aS'/eos/cms/store/group/phys_smp/AnalysisFramework/Baobab/Metin/gammaplusb/2017/MC/TGJets_TuneCP5_13TeV_amcatnlo_madspin_pythia8/99CB0E5F-4AD4-6245-962A-9DB308A2B231.root'
p336
aS'/eos/cms/store/group/phys_smp/AnalysisFramework/Baobab/Metin/gammaplusb/2017/MC/TGJets_TuneCP5_13TeV_amcatnlo_madspin_pythia8/2355F1C0-C01F-854C-B645-3F20242B6F0E.root'
p337
aS'/eos/cms/store/group/phys_smp/AnalysisFramework/Baobab/Metin/gammaplusb/2017/MC/TGJets_TuneCP5_13TeV_amcatnlo_madspin_pythia8/411AE6C5-8D39-DB4A-A091-B3EFF234F72B.root'
p338
asg30
F3.055
sg31
g174
ssg175
(dp339
g6
F28.2
sg7
F0.0034
sg8
F0.02827
sg9
(lp340
S'/eos/cms/store/group/phys_smp/AnalysisFramework/Baobab/Metin/gammaplusb/2017/MC/ST_tW_antitop_5f_inclusiveDecays_TuneCP5_13TeV-powheg-pythia8/10DE469C-746A-7442-BC1D-2D1B485C3969.root'
p341
aS'/eos/cms/store/group/phys_smp/AnalysisFramework/Baobab/Metin/gammaplusb/2017/MC/ST_tW_antitop_5f_inclusiveDecays_TuneCP5_13TeV-powheg-pythia8/123CBDD1-E779-9A49-AD7F-4D956372785F.root'
p342
aS'/eos/cms/store/group/phys_smp/AnalysisFramework/Baobab/Metin/gammaplusb/2017/MC/ST_tW_antitop_5f_inclusiveDecays_TuneCP5_13TeV-powheg-pythia8/5867DB5B-D5F0-A24A-A64B-D42C9689172D.root'
p343
aS'/eos/cms/store/group/phys_smp/AnalysisFramework/Baobab/Metin/gammaplusb/2017/MC/ST_tW_antitop_5f_inclusiveDecays_TuneCP5_13TeV-powheg-pythia8/61379F25-EA58-2A4A-8755-606D98E467FE.root'
p344
aS'/eos/cms/store/group/phys_smp/AnalysisFramework/Baobab/Metin/gammaplusb/2017/MC/ST_tW_antitop_5f_inclusiveDecays_TuneCP5_13TeV-powheg-pythia8/A8F9B37A-B3ED-4F42-84D3-BEAE9DF1A47A.root'
p345
aS'/eos/cms/store/group/phys_smp/AnalysisFramework/Baobab/Metin/gammaplusb/2017/MC/ST_tW_antitop_5f_inclusiveDecays_TuneCP5_13TeV-powheg-pythia8/A95ED051-C358-304A-A900-BA2734CE56FF.root'
p346
aS'/eos/cms/store/group/phys_smp/AnalysisFramework/Baobab/Metin/gammaplusb/2017/MC/ST_tW_antitop_5f_inclusiveDecays_TuneCP5_13TeV-powheg-pythia8/B975DCCD-E8F7-3A40-A39D-F13957857815.root'
p347
aS'/eos/cms/store/group/phys_smp/AnalysisFramework/Baobab/Metin/gammaplusb/2017/MC/ST_tW_antitop_5f_inclusiveDecays_TuneCP5_13TeV-powheg-pythia8/C36D588D-296B-314A-A675-6F0A2A50FF53.root'
p348
aS'/eos/cms/store/group/phys_smp/AnalysisFramework/Baobab/Metin/gammaplusb/2017/MC/ST_tW_antitop_5f_inclusiveDecays_TuneCP5_13TeV-powheg-pythia8/C67A8A4C-A8C9-DB47-A63D-9D650DFD1BCF.root'
p349
aS'/eos/cms/store/group/phys_smp/AnalysisFramework/Baobab/Metin/gammaplusb/2017/MC/ST_tW_antitop_5f_inclusiveDecays_TuneCP5_13TeV-powheg-pythia8/ED15BEEB-0332-4040-BD77-75E8CECDFECF.root'
p350
aS'/eos/cms/store/group/phys_smp/AnalysisFramework/Baobab/Metin/gammaplusb/2017/MC/ST_tW_antitop_5f_inclusiveDecays_TuneCP5_13TeV-powheg-pythia8/EEF913BB-5606-7647-B7C7-4D3021C06579.root'
p351
aS'/eos/cms/store/group/phys_smp/AnalysisFramework/Baobab/Metin/gammaplusb/2017/MC/ST_tW_antitop_5f_inclusiveDecays_TuneCP5_13TeV-powheg-pythia8/FC2536A4-12DE-7C47-8378-D380F76CE9F8.root'
p352
asg30
F34.97
sg31
S'/ST_tW_antitop_5f_inclusiveDecays_TuneCP5_13TeV-powheg-pythia8/RunIIFall17NanoAODv7-PU2017_12Apr2018_Nano02Apr2020_102X_mc2017_realistic_v8-v1/NANOAODSIM'
p353
ssssI2018
(dp354
g2
(dp355
g4
(dp356
g6
F0.003534
sg7
F0.0
sg8
F299.4
sg9
(lp357
S'/eos/cms/store/group/phys_smp/AnalysisFramework/Baobab/Metin/gammaplusb/2018/MC/GJet_Pt-15To6000_TuneCP5-Flat_13TeV_pythia8/0466FCAD-DC2F-B243-BD22-D407F8339C52.root'
p358
aS'/eos/cms/store/group/phys_smp/AnalysisFramework/Baobab/Metin/gammaplusb/2018/MC/GJet_Pt-15To6000_TuneCP5-Flat_13TeV_pythia8/C2181CAB-1DD3-F74D-87E9-6E56448A3856.root'
p359
aS'/eos/cms/store/group/phys_smp/AnalysisFramework/Baobab/Metin/gammaplusb/2018/MC/GJet_Pt-15To6000_TuneCP5-Flat_13TeV_pythia8/128F3C20-A7B5-F240-A4BF-7DC2DF5B8FF5.root'
p360
aS'/eos/cms/store/group/phys_smp/AnalysisFramework/Baobab/Metin/gammaplusb/2018/MC/GJet_Pt-15To6000_TuneCP5-Flat_13TeV_pythia8/00833A1C-8BE1-494C-B90B-EE55EEEAD958.root'
p361
aS'/eos/cms/store/group/phys_smp/AnalysisFramework/Baobab/Metin/gammaplusb/2018/MC/GJet_Pt-15To6000_TuneCP5-Flat_13TeV_pythia8/417F5970-0420-FA4D-8983-5F827D24CF08.root'
p362
aS'/eos/cms/store/group/phys_smp/AnalysisFramework/Baobab/Metin/gammaplusb/2018/MC/GJet_Pt-15To6000_TuneCP5-Flat_13TeV_pythia8/F51E9C41-4E87-DD44-BC2E-3B3264C32D8B.root'
p363
aS'/eos/cms/store/group/phys_smp/AnalysisFramework/Baobab/Metin/gammaplusb/2018/MC/GJet_Pt-15To6000_TuneCP5-Flat_13TeV_pythia8/B616F95E-1094-9B4C-BC70-54F9F46AFA4D.root'
p364
aS'/eos/cms/store/group/phys_smp/AnalysisFramework/Baobab/Metin/gammaplusb/2018/MC/GJet_Pt-15To6000_TuneCP5-Flat_13TeV_pythia8/82E43CC7-A05E-A441-A71D-5A2CDC6151F2.root'
p365
aS'/eos/cms/store/group/phys_smp/AnalysisFramework/Baobab/Metin/gammaplusb/2018/MC/GJet_Pt-15To6000_TuneCP5-Flat_13TeV_pythia8/B01D4A6F-910A-DB40-B564-35C72C2C57BE.root'
p366
aS'/eos/cms/store/group/phys_smp/AnalysisFramework/Baobab/Metin/gammaplusb/2018/MC/GJet_Pt-15To6000_TuneCP5-Flat_13TeV_pythia8/31DF4141-849A-0546-9E35-6616266A87F6.root'
p367
aS'/eos/cms/store/group/phys_smp/AnalysisFramework/Baobab/Metin/gammaplusb/2018/MC/GJet_Pt-15To6000_TuneCP5-Flat_13TeV_pythia8/486929FC-60BA-6841-8B58-8929FADC26D2.root'
p368
aS'/eos/cms/store/group/phys_smp/AnalysisFramework/Baobab/Metin/gammaplusb/2018/MC/GJet_Pt-15To6000_TuneCP5-Flat_13TeV_pythia8/2F2CE541-AC6A-AD49-99D7-D369CECD19C7.root'
p369
aS'/eos/cms/store/group/phys_smp/AnalysisFramework/Baobab/Metin/gammaplusb/2018/MC/GJet_Pt-15To6000_TuneCP5-Flat_13TeV_pythia8/B04DFE8C-F42A-D04E-A73E-937DD77B07F0.root'
p370
aS'/eos/cms/store/group/phys_smp/AnalysisFramework/Baobab/Metin/gammaplusb/2018/MC/GJet_Pt-15To6000_TuneCP5-Flat_13TeV_pythia8/8D3112E1-37B0-B047-AE5A-B909BB8B5A6D.root'
p371
aS'/eos/cms/store/group/phys_smp/AnalysisFramework/Baobab/Metin/gammaplusb/2018/MC/GJet_Pt-15To6000_TuneCP5-Flat_13TeV_pythia8/9E8AB2F7-65AB-DB44-BEF2-D35F5F7B6F57.root'
p372
aS'/eos/cms/store/group/phys_smp/AnalysisFramework/Baobab/Metin/gammaplusb/2018/MC/GJet_Pt-15To6000_TuneCP5-Flat_13TeV_pythia8/34D191D5-E7D7-8746-B617-4EE1AE1ED3D8.root'
p373
aS'/eos/cms/store/group/phys_smp/AnalysisFramework/Baobab/Metin/gammaplusb/2018/MC/GJet_Pt-15To6000_TuneCP5-Flat_13TeV_pythia8/C778EABD-FC4D-ED4E-9EFE-EB3D52BDDAA4.root'
p374
aS'/eos/cms/store/group/phys_smp/AnalysisFramework/Baobab/Metin/gammaplusb/2018/MC/GJet_Pt-15To6000_TuneCP5-Flat_13TeV_pythia8/63F5E711-2B4E-FC44-B222-881C6019EB73.root'
p375
aS'/eos/cms/store/group/phys_smp/AnalysisFramework/Baobab/Metin/gammaplusb/2018/MC/GJet_Pt-15To6000_TuneCP5-Flat_13TeV_pythia8/B698E97E-AC36-D44D-A6FC-FFAD3E759781.root'
p376
aS'/eos/cms/store/group/phys_smp/AnalysisFramework/Baobab/Metin/gammaplusb/2018/MC/GJet_Pt-15To6000_TuneCP5-Flat_13TeV_pythia8/0E99BEA9-B13C-4A44-8422-70747E7CCFC4.root'
p377
aS'/eos/cms/store/group/phys_smp/AnalysisFramework/Baobab/Metin/gammaplusb/2018/MC/GJet_Pt-15To6000_TuneCP5-Flat_13TeV_pythia8/84B368B1-D8EF-F448-823E-01332A8CC816.root'
p378
aS'/eos/cms/store/group/phys_smp/AnalysisFramework/Baobab/Metin/gammaplusb/2018/MC/GJet_Pt-15To6000_TuneCP5-Flat_13TeV_pythia8/779836BE-6986-214F-9D8D-20B86ACB08E0.root'
p379
aS'/eos/cms/store/group/phys_smp/AnalysisFramework/Baobab/Metin/gammaplusb/2018/MC/GJet_Pt-15To6000_TuneCP5-Flat_13TeV_pythia8/69E87A81-7AD7-1848-8C48-C3556458F167.root'
p380
aS'/eos/cms/store/group/phys_smp/AnalysisFramework/Baobab/Metin/gammaplusb/2018/MC/GJet_Pt-15To6000_TuneCP5-Flat_13TeV_pythia8/4E573800-5310-5E4D-BA8C-F3456515D37E.root'
p381
aS'/eos/cms/store/group/phys_smp/AnalysisFramework/Baobab/Metin/gammaplusb/2018/MC/GJet_Pt-15To6000_TuneCP5-Flat_13TeV_pythia8/3461BD24-B93B-704F-9D91-4D1901A3AD3C.root'
p382
aS'/eos/cms/store/group/phys_smp/AnalysisFramework/Baobab/Metin/gammaplusb/2018/MC/GJet_Pt-15To6000_TuneCP5-Flat_13TeV_pythia8/C053D54D-8D79-FD46-854F-E081928F268E.root'
p383
aS'/eos/cms/store/group/phys_smp/AnalysisFramework/Baobab/Metin/gammaplusb/2018/MC/GJet_Pt-15To6000_TuneCP5-Flat_13TeV_pythia8/D3CAC9E1-28D0-2541-9C1C-91886CAE08A4.root'
p384
aS'/eos/cms/store/group/phys_smp/AnalysisFramework/Baobab/Metin/gammaplusb/2018/MC/GJet_Pt-15To6000_TuneCP5-Flat_13TeV_pythia8/87388AA5-8777-FC4D-AE23-969049346865.root'
p385
aS'/eos/cms/store/group/phys_smp/AnalysisFramework/Baobab/Metin/gammaplusb/2018/MC/GJet_Pt-15To6000_TuneCP5-Flat_13TeV_pythia8/916341A7-D25F-CA4B-83C4-80969B401DDB.root'
p386
aS'/eos/cms/store/group/phys_smp/AnalysisFramework/Baobab/Metin/gammaplusb/2018/MC/GJet_Pt-15To6000_TuneCP5-Flat_13TeV_pythia8/8B8FE771-79DC-CA44-8553-DC6913F4B5B3.root'
p387
aS'/eos/cms/store/group/phys_smp/AnalysisFramework/Baobab/Metin/gammaplusb/2018/MC/GJet_Pt-15To6000_TuneCP5-Flat_13TeV_pythia8/882782E8-C6A6-F24D-BBC6-5F2D7B4B9BFB.root'
p388
aS'/eos/cms/store/group/phys_smp/AnalysisFramework/Baobab/Metin/gammaplusb/2018/MC/GJet_Pt-15To6000_TuneCP5-Flat_13TeV_pythia8/7EC2302A-F481-074C-90AD-7F170C9722A6.root'
p389
aS'/eos/cms/store/group/phys_smp/AnalysisFramework/Baobab/Metin/gammaplusb/2018/MC/GJet_Pt-15To6000_TuneCP5-Flat_13TeV_pythia8/27259613-3AA2-444E-9317-55A593B0D4A0.root'
p390
aS'/eos/cms/store/group/phys_smp/AnalysisFramework/Baobab/Metin/gammaplusb/2018/MC/GJet_Pt-15To6000_TuneCP5-Flat_13TeV_pythia8/D3D9D8D7-9ABA-3542-8AC6-ECB10CB9DADA.root'
p391
aS'/eos/cms/store/group/phys_smp/AnalysisFramework/Baobab/Metin/gammaplusb/2018/MC/GJet_Pt-15To6000_TuneCP5-Flat_13TeV_pythia8/11C8507E-45BA-8A4A-B7A8-58C3DC0D0BD8.root'
p392
aS'/eos/cms/store/group/phys_smp/AnalysisFramework/Baobab/Metin/gammaplusb/2018/MC/GJet_Pt-15To6000_TuneCP5-Flat_13TeV_pythia8/0D474EE5-4F26-5244-B05B-1201FA5140D6.root'
p393
aS'/eos/cms/store/group/phys_smp/AnalysisFramework/Baobab/Metin/gammaplusb/2018/MC/GJet_Pt-15To6000_TuneCP5-Flat_13TeV_pythia8/6562C974-A927-0942-BA6A-2753A6396535.root'
p394
aS'/eos/cms/store/group/phys_smp/AnalysisFramework/Baobab/Metin/gammaplusb/2018/MC/GJet_Pt-15To6000_TuneCP5-Flat_13TeV_pythia8/41D233DC-14F2-E243-A923-9827F8132926.root'
p395
aS'/eos/cms/store/group/phys_smp/AnalysisFramework/Baobab/Metin/gammaplusb/2018/MC/GJet_Pt-15To6000_TuneCP5-Flat_13TeV_pythia8/0A73BD32-C4EB-0E48-BE4B-AC9909BF84EA.root'
p396
asg30
F283000.0
sg31
S'/GJet_Pt-15To6000_TuneCP5-Flat_13TeV_pythia8/RunIIAutumn18NanoAODv7-Nano02Apr2020_102X_upgrade2018_realistic_v21-v1/NANOAODSIM'
p397
sssg33
(dp398
g35
(dp399
g6
F12.79
sg7
F0.03002
sg8
F0.4613
sg9
(lp400
S'/eos/cms/store/group/phys_smp/AnalysisFramework/Baobab/Metin/gammaplusb/2018/MC/ST_t-channel_antitop_4f_InclusiveDecays_TuneCP5_13TeV-powheg-madspin-pythia8/03E9A051-32D3-824A-9409-8150FECFCBFD.root'
p401
aS'/eos/cms/store/group/phys_smp/AnalysisFramework/Baobab/Metin/gammaplusb/2018/MC/ST_t-channel_antitop_4f_InclusiveDecays_TuneCP5_13TeV-powheg-madspin-pythia8/08FC7FC7-F50E-EB48-B58A-6B763C4CE167.root'
p402
aS'/eos/cms/store/group/phys_smp/AnalysisFramework/Baobab/Metin/gammaplusb/2018/MC/ST_t-channel_antitop_4f_InclusiveDecays_TuneCP5_13TeV-powheg-madspin-pythia8/0AF73DAF-A7C6-684E-8CB8-990D5AF6ECE0.root'
p403
aS'/eos/cms/store/group/phys_smp/AnalysisFramework/Baobab/Metin/gammaplusb/2018/MC/ST_t-channel_antitop_4f_InclusiveDecays_TuneCP5_13TeV-powheg-madspin-pythia8/0C9C7788-82CD-EE41-B345-5C78B9CBDEE7.root'
p404
aS'/eos/cms/store/group/phys_smp/AnalysisFramework/Baobab/Metin/gammaplusb/2018/MC/ST_t-channel_antitop_4f_InclusiveDecays_TuneCP5_13TeV-powheg-madspin-pythia8/0DA38117-DF1A-7940-B77C-BA7C1A5D98F8.root'
p405
aS'/eos/cms/store/group/phys_smp/AnalysisFramework/Baobab/Metin/gammaplusb/2018/MC/ST_t-channel_antitop_4f_InclusiveDecays_TuneCP5_13TeV-powheg-madspin-pythia8/12FD1CAB-584D-1140-8809-BE4EC16F712D.root'
p406
aS'/eos/cms/store/group/phys_smp/AnalysisFramework/Baobab/Metin/gammaplusb/2018/MC/ST_t-channel_antitop_4f_InclusiveDecays_TuneCP5_13TeV-powheg-madspin-pythia8/17A68160-FC69-F34B-846F-38FA4DDA58CD.root'
p407
aS'/eos/cms/store/group/phys_smp/AnalysisFramework/Baobab/Metin/gammaplusb/2018/MC/ST_t-channel_antitop_4f_InclusiveDecays_TuneCP5_13TeV-powheg-madspin-pythia8/21F9FA19-31EE-1F4D-84FF-471F6AFC2326.root'
p408
aS'/eos/cms/store/group/phys_smp/AnalysisFramework/Baobab/Metin/gammaplusb/2018/MC/ST_t-channel_antitop_4f_InclusiveDecays_TuneCP5_13TeV-powheg-madspin-pythia8/2B6F4893-5CFB-2A42-8864-82A5CB107428.root'
p409
aS'/eos/cms/store/group/phys_smp/AnalysisFramework/Baobab/Metin/gammaplusb/2018/MC/ST_t-channel_antitop_4f_InclusiveDecays_TuneCP5_13TeV-powheg-madspin-pythia8/2D87CF74-D70D-914B-9B0B-B8ABCDF451E0.root'
p410
aS'/eos/cms/store/group/phys_smp/AnalysisFramework/Baobab/Metin/gammaplusb/2018/MC/ST_t-channel_antitop_4f_InclusiveDecays_TuneCP5_13TeV-powheg-madspin-pythia8/319BB63B-C83E-C346-9ACB-F96BF1637D60.root'
p411
aS'/eos/cms/store/group/phys_smp/AnalysisFramework/Baobab/Metin/gammaplusb/2018/MC/ST_t-channel_antitop_4f_InclusiveDecays_TuneCP5_13TeV-powheg-madspin-pythia8/33405958-F352-E243-9849-2F2E00E7BCA3.root'
p412
aS'/eos/cms/store/group/phys_smp/AnalysisFramework/Baobab/Metin/gammaplusb/2018/MC/ST_t-channel_antitop_4f_InclusiveDecays_TuneCP5_13TeV-powheg-madspin-pythia8/4087E249-3AF9-7047-9F83-3149A3CA9C7E.root'
p413
aS'/eos/cms/store/group/phys_smp/AnalysisFramework/Baobab/Metin/gammaplusb/2018/MC/ST_t-channel_antitop_4f_InclusiveDecays_TuneCP5_13TeV-powheg-madspin-pythia8/476F457D-B081-9143-A2AC-D590603E2712.root'
p414
aS'/eos/cms/store/group/phys_smp/AnalysisFramework/Baobab/Metin/gammaplusb/2018/MC/ST_t-channel_antitop_4f_InclusiveDecays_TuneCP5_13TeV-powheg-madspin-pythia8/4CD6FF76-D00A-D34B-81F5-2064066D5AEB.root'
p415
aS'/eos/cms/store/group/phys_smp/AnalysisFramework/Baobab/Metin/gammaplusb/2018/MC/ST_t-channel_antitop_4f_InclusiveDecays_TuneCP5_13TeV-powheg-madspin-pythia8/51AB74F8-230C-4141-81EF-8821E4C54162.root'
p416
aS'/eos/cms/store/group/phys_smp/AnalysisFramework/Baobab/Metin/gammaplusb/2018/MC/ST_t-channel_antitop_4f_InclusiveDecays_TuneCP5_13TeV-powheg-madspin-pythia8/537095CB-35BA-E240-B252-B8976D15A7D4.root'
p417
aS'/eos/cms/store/group/phys_smp/AnalysisFramework/Baobab/Metin/gammaplusb/2018/MC/ST_t-channel_antitop_4f_InclusiveDecays_TuneCP5_13TeV-powheg-madspin-pythia8/596664FC-EBA4-264C-85C1-73AD11BEF036.root'
p418
aS'/eos/cms/store/group/phys_smp/AnalysisFramework/Baobab/Metin/gammaplusb/2018/MC/ST_t-channel_antitop_4f_InclusiveDecays_TuneCP5_13TeV-powheg-madspin-pythia8/5CD2C11A-1A41-B34F-BB14-2DF27CE74F0E.root'
p419
aS'/eos/cms/store/group/phys_smp/AnalysisFramework/Baobab/Metin/gammaplusb/2018/MC/ST_t-channel_antitop_4f_InclusiveDecays_TuneCP5_13TeV-powheg-madspin-pythia8/6308B9EE-D5F8-0B40-911D-2F1906FB396F.root'
p420
aS'/eos/cms/store/group/phys_smp/AnalysisFramework/Baobab/Metin/gammaplusb/2018/MC/ST_t-channel_antitop_4f_InclusiveDecays_TuneCP5_13TeV-powheg-madspin-pythia8/656663B7-56CE-B842-8E5A-F1AE03956C49.root'
p421
aS'/eos/cms/store/group/phys_smp/AnalysisFramework/Baobab/Metin/gammaplusb/2018/MC/ST_t-channel_antitop_4f_InclusiveDecays_TuneCP5_13TeV-powheg-madspin-pythia8/68669E48-0748-7E40-9BA2-5B569DA18940.root'
p422
aS'/eos/cms/store/group/phys_smp/AnalysisFramework/Baobab/Metin/gammaplusb/2018/MC/ST_t-channel_antitop_4f_InclusiveDecays_TuneCP5_13TeV-powheg-madspin-pythia8/6A735DCD-91DE-7F40-9E58-A1924F375390.root'
p423
aS'/eos/cms/store/group/phys_smp/AnalysisFramework/Baobab/Metin/gammaplusb/2018/MC/ST_t-channel_antitop_4f_InclusiveDecays_TuneCP5_13TeV-powheg-madspin-pythia8/6AE49C68-2434-1942-B0B5-9211D6E7602C.root'
p424
aS'/eos/cms/store/group/phys_smp/AnalysisFramework/Baobab/Metin/gammaplusb/2018/MC/ST_t-channel_antitop_4f_InclusiveDecays_TuneCP5_13TeV-powheg-madspin-pythia8/6CCB16C4-17F7-FB41-B850-96843A0B30F4.root'
p425
aS'/eos/cms/store/group/phys_smp/AnalysisFramework/Baobab/Metin/gammaplusb/2018/MC/ST_t-channel_antitop_4f_InclusiveDecays_TuneCP5_13TeV-powheg-madspin-pythia8/6E7C0D48-48E5-EC4E-A3F1-DBCBA4CA8416.root'
p426
aS'/eos/cms/store/group/phys_smp/AnalysisFramework/Baobab/Metin/gammaplusb/2018/MC/ST_t-channel_antitop_4f_InclusiveDecays_TuneCP5_13TeV-powheg-madspin-pythia8/742EC329-1B21-9543-BD60-3C20E9A7F7C4.root'
p427
aS'/eos/cms/store/group/phys_smp/AnalysisFramework/Baobab/Metin/gammaplusb/2018/MC/ST_t-channel_antitop_4f_InclusiveDecays_TuneCP5_13TeV-powheg-madspin-pythia8/78895280-4E13-634B-9C25-9F47E313EA10.root'
p428
aS'/eos/cms/store/group/phys_smp/AnalysisFramework/Baobab/Metin/gammaplusb/2018/MC/ST_t-channel_antitop_4f_InclusiveDecays_TuneCP5_13TeV-powheg-madspin-pythia8/78944E7E-FEDA-8F43-A52A-15F862581216.root'
p429
aS'/eos/cms/store/group/phys_smp/AnalysisFramework/Baobab/Metin/gammaplusb/2018/MC/ST_t-channel_antitop_4f_InclusiveDecays_TuneCP5_13TeV-powheg-madspin-pythia8/7EAB7EFA-1A09-C348-B37B-A9C8B05EF6A6.root'
p430
aS'/eos/cms/store/group/phys_smp/AnalysisFramework/Baobab/Metin/gammaplusb/2018/MC/ST_t-channel_antitop_4f_InclusiveDecays_TuneCP5_13TeV-powheg-madspin-pythia8/87D46074-C2C0-9C4C-88E9-5DF13FE4954D.root'
p431
aS'/eos/cms/store/group/phys_smp/AnalysisFramework/Baobab/Metin/gammaplusb/2018/MC/ST_t-channel_antitop_4f_InclusiveDecays_TuneCP5_13TeV-powheg-madspin-pythia8/8ACAA42A-FAFA-3447-B226-23EFA14AE4DD.root'
p432
aS'/eos/cms/store/group/phys_smp/AnalysisFramework/Baobab/Metin/gammaplusb/2018/MC/ST_t-channel_antitop_4f_InclusiveDecays_TuneCP5_13TeV-powheg-madspin-pythia8/8D5DE250-5359-7949-8AA2-3E53A1D01C64.root'
p433
aS'/eos/cms/store/group/phys_smp/AnalysisFramework/Baobab/Metin/gammaplusb/2018/MC/ST_t-channel_antitop_4f_InclusiveDecays_TuneCP5_13TeV-powheg-madspin-pythia8/94BA596E-2F69-F84D-83A5-9190A0EF2485.root'
p434
aS'/eos/cms/store/group/phys_smp/AnalysisFramework/Baobab/Metin/gammaplusb/2018/MC/ST_t-channel_antitop_4f_InclusiveDecays_TuneCP5_13TeV-powheg-madspin-pythia8/978F0F3C-AE81-F049-A621-3DC8690366E8.root'
p435
aS'/eos/cms/store/group/phys_smp/AnalysisFramework/Baobab/Metin/gammaplusb/2018/MC/ST_t-channel_antitop_4f_InclusiveDecays_TuneCP5_13TeV-powheg-madspin-pythia8/98DB3103-A502-9F48-B2F0-F486FF13453F.root'
p436
aS'/eos/cms/store/group/phys_smp/AnalysisFramework/Baobab/Metin/gammaplusb/2018/MC/ST_t-channel_antitop_4f_InclusiveDecays_TuneCP5_13TeV-powheg-madspin-pythia8/9965EDF2-D4B9-1348-B69B-10EE4A974AFA.root'
p437
aS'/eos/cms/store/group/phys_smp/AnalysisFramework/Baobab/Metin/gammaplusb/2018/MC/ST_t-channel_antitop_4f_InclusiveDecays_TuneCP5_13TeV-powheg-madspin-pythia8/9DB88427-8813-5E4E-B57C-778127B1CE89.root'
p438
aS'/eos/cms/store/group/phys_smp/AnalysisFramework/Baobab/Metin/gammaplusb/2018/MC/ST_t-channel_antitop_4f_InclusiveDecays_TuneCP5_13TeV-powheg-madspin-pythia8/A01547D6-67CB-2148-B0EF-96603EE5F4D6.root'
p439
aS'/eos/cms/store/group/phys_smp/AnalysisFramework/Baobab/Metin/gammaplusb/2018/MC/ST_t-channel_antitop_4f_InclusiveDecays_TuneCP5_13TeV-powheg-madspin-pythia8/A0D9DB56-07F4-D245-8B05-7011330C4B6F.root'
p440
aS'/eos/cms/store/group/phys_smp/AnalysisFramework/Baobab/Metin/gammaplusb/2018/MC/ST_t-channel_antitop_4f_InclusiveDecays_TuneCP5_13TeV-powheg-madspin-pythia8/A3A9F583-4B9B-2344-91B9-EC52C2F310C2.root'
p441
aS'/eos/cms/store/group/phys_smp/AnalysisFramework/Baobab/Metin/gammaplusb/2018/MC/ST_t-channel_antitop_4f_InclusiveDecays_TuneCP5_13TeV-powheg-madspin-pythia8/A871BC32-BF08-B144-9613-35CC596AEAD5.root'
p442
aS'/eos/cms/store/group/phys_smp/AnalysisFramework/Baobab/Metin/gammaplusb/2018/MC/ST_t-channel_antitop_4f_InclusiveDecays_TuneCP5_13TeV-powheg-madspin-pythia8/AB430134-0689-6549-B266-6E70545AD2A4.root'
p443
aS'/eos/cms/store/group/phys_smp/AnalysisFramework/Baobab/Metin/gammaplusb/2018/MC/ST_t-channel_antitop_4f_InclusiveDecays_TuneCP5_13TeV-powheg-madspin-pythia8/AC5A61E9-C3FF-9F4E-847F-F7C1A2FD3E47.root'
p444
aS'/eos/cms/store/group/phys_smp/AnalysisFramework/Baobab/Metin/gammaplusb/2018/MC/ST_t-channel_antitop_4f_InclusiveDecays_TuneCP5_13TeV-powheg-madspin-pythia8/AE8B65B8-CD87-9A4D-8DFC-6B9BEE82068F.root'
p445
aS'/eos/cms/store/group/phys_smp/AnalysisFramework/Baobab/Metin/gammaplusb/2018/MC/ST_t-channel_antitop_4f_InclusiveDecays_TuneCP5_13TeV-powheg-madspin-pythia8/B033C619-9083-6F4B-8055-7F1869589C84.root'
p446
aS'/eos/cms/store/group/phys_smp/AnalysisFramework/Baobab/Metin/gammaplusb/2018/MC/ST_t-channel_antitop_4f_InclusiveDecays_TuneCP5_13TeV-powheg-madspin-pythia8/B6EB0616-D1D5-714C-8228-EC84304FF238.root'
p447
aS'/eos/cms/store/group/phys_smp/AnalysisFramework/Baobab/Metin/gammaplusb/2018/MC/ST_t-channel_antitop_4f_InclusiveDecays_TuneCP5_13TeV-powheg-madspin-pythia8/BD2D156D-7B22-074D-AA9A-74205279F844.root'
p448
aS'/eos/cms/store/group/phys_smp/AnalysisFramework/Baobab/Metin/gammaplusb/2018/MC/ST_t-channel_antitop_4f_InclusiveDecays_TuneCP5_13TeV-powheg-madspin-pythia8/C3218581-3CC2-FB44-9692-7F77A484878B.root'
p449
aS'/eos/cms/store/group/phys_smp/AnalysisFramework/Baobab/Metin/gammaplusb/2018/MC/ST_t-channel_antitop_4f_InclusiveDecays_TuneCP5_13TeV-powheg-madspin-pythia8/CD20EF13-3BEF-E846-9131-B9FE1134944A.root'
p450
aS'/eos/cms/store/group/phys_smp/AnalysisFramework/Baobab/Metin/gammaplusb/2018/MC/ST_t-channel_antitop_4f_InclusiveDecays_TuneCP5_13TeV-powheg-madspin-pythia8/E19888A9-0481-FB41-8371-B5F7C149079F.root'
p451
aS'/eos/cms/store/group/phys_smp/AnalysisFramework/Baobab/Metin/gammaplusb/2018/MC/ST_t-channel_antitop_4f_InclusiveDecays_TuneCP5_13TeV-powheg-madspin-pythia8/EEF104F0-ADE2-734B-B9D2-7F89E5BDD55E.root'
p452
aS'/eos/cms/store/group/phys_smp/AnalysisFramework/Baobab/Metin/gammaplusb/2018/MC/ST_t-channel_antitop_4f_InclusiveDecays_TuneCP5_13TeV-powheg-madspin-pythia8/F29E70D7-0D48-6A4E-8A9D-127E0DFED7E0.root'
p453
aS'/eos/cms/store/group/phys_smp/AnalysisFramework/Baobab/Metin/gammaplusb/2018/MC/ST_t-channel_antitop_4f_InclusiveDecays_TuneCP5_13TeV-powheg-madspin-pythia8/F37001B7-90B4-2742-B810-2BFDF6A9AFE4.root'
p454
aS'/eos/cms/store/group/phys_smp/AnalysisFramework/Baobab/Metin/gammaplusb/2018/MC/ST_t-channel_antitop_4f_InclusiveDecays_TuneCP5_13TeV-powheg-madspin-pythia8/F45199AE-BACD-BF43-90F7-44A4A22C605E.root'
p455
aS'/eos/cms/store/group/phys_smp/AnalysisFramework/Baobab/Metin/gammaplusb/2018/MC/ST_t-channel_antitop_4f_InclusiveDecays_TuneCP5_13TeV-powheg-madspin-pythia8/F66E889F-E7A4-5A4B-9620-B130C8299A19.root'
p456
aS'/eos/cms/store/group/phys_smp/AnalysisFramework/Baobab/Metin/gammaplusb/2018/MC/ST_t-channel_antitop_4f_InclusiveDecays_TuneCP5_13TeV-powheg-madspin-pythia8/FB9F7F5B-5397-A64B-A5CD-20ECA9488AE9.root'
p457
aS'/eos/cms/store/group/phys_smp/AnalysisFramework/Baobab/Metin/gammaplusb/2018/MC/ST_t-channel_antitop_4f_InclusiveDecays_TuneCP5_13TeV-powheg-madspin-pythia8/FC11F7C5-783F-AF48-A2C0-F373721894F7.root'
p458
aS'/eos/cms/store/group/phys_smp/AnalysisFramework/Baobab/Metin/gammaplusb/2018/MC/ST_t-channel_antitop_4f_InclusiveDecays_TuneCP5_13TeV-powheg-madspin-pythia8/FE3F6650-3D75-674A-BB0A-FC8488293A06.root'
p459
aS'/eos/cms/store/group/phys_smp/AnalysisFramework/Baobab/Metin/gammaplusb/2018/MC/ST_t-channel_antitop_4f_InclusiveDecays_TuneCP5_13TeV-powheg-madspin-pythia8/FF6E8AB5-DD09-7C43-B8D2-7E77BCD26CA3.root'
p460
aS'/eos/cms/store/group/phys_smp/AnalysisFramework/Baobab/Metin/gammaplusb/2018/MC/ST_t-channel_antitop_4f_InclusiveDecays_TuneCP5_13TeV-powheg-madspin-pythia8/FFCDBAAA-A858-5F44-A5BE-BF5B0F2F8473.root'
p461
asg30
F69.09
sg31
S'/ST_t-channel_antitop_4f_InclusiveDecays_TuneCP5_13TeV-powheg-madspin-pythia8/RunIIAutumn18NanoAODv7-Nano02Apr2020_102X_upgrade2018_realistic_v21-v1/NANOAODSIM'
p462
ssg75
(dp463
g6
F28.2
sg7
F0.0034
sg8
F0.02827
sg9
(lp464
S'/eos/cms/store/group/phys_smp/AnalysisFramework/Baobab/Metin/gammaplusb/2018/MC/ST_s-channel_4f_leptonDecays_TuneCP5_13TeV-madgraph-pythia8/018A2495-6979-FE45-9BA3-FB4A827CC6BC.root'
p465
aS'/eos/cms/store/group/phys_smp/AnalysisFramework/Baobab/Metin/gammaplusb/2018/MC/ST_s-channel_4f_leptonDecays_TuneCP5_13TeV-madgraph-pythia8/053EA9A8-0F79-974D-B280-9EB0EF964E2E.root'
p466
aS'/eos/cms/store/group/phys_smp/AnalysisFramework/Baobab/Metin/gammaplusb/2018/MC/ST_s-channel_4f_leptonDecays_TuneCP5_13TeV-madgraph-pythia8/1268D450-190E-8142-95BD-B70D9574F93A.root'
p467
aS'/eos/cms/store/group/phys_smp/AnalysisFramework/Baobab/Metin/gammaplusb/2018/MC/ST_s-channel_4f_leptonDecays_TuneCP5_13TeV-madgraph-pythia8/1D82C0C0-142E-8845-9138-8B43330344DD.root'
p468
aS'/eos/cms/store/group/phys_smp/AnalysisFramework/Baobab/Metin/gammaplusb/2018/MC/ST_s-channel_4f_leptonDecays_TuneCP5_13TeV-madgraph-pythia8/241F0895-CD56-D24E-95F7-34FBD84DA9A7.root'
p469
aS'/eos/cms/store/group/phys_smp/AnalysisFramework/Baobab/Metin/gammaplusb/2018/MC/ST_s-channel_4f_leptonDecays_TuneCP5_13TeV-madgraph-pythia8/4396101E-BAA9-614E-BC3F-6B8DD61B6D2B.root'
p470
aS'/eos/cms/store/group/phys_smp/AnalysisFramework/Baobab/Metin/gammaplusb/2018/MC/ST_s-channel_4f_leptonDecays_TuneCP5_13TeV-madgraph-pythia8/4BA4CC3A-7AE0-7443-98ED-B50CCE6F0156.root'
p471
aS'/eos/cms/store/group/phys_smp/AnalysisFramework/Baobab/Metin/gammaplusb/2018/MC/ST_s-channel_4f_leptonDecays_TuneCP5_13TeV-madgraph-pythia8/64F882E4-9968-0E43-9E51-6DB749A92DF0.root'
p472
aS'/eos/cms/store/group/phys_smp/AnalysisFramework/Baobab/Metin/gammaplusb/2018/MC/ST_s-channel_4f_leptonDecays_TuneCP5_13TeV-madgraph-pythia8/65D68898-C513-DE4C-B760-88376A271155.root'
p473
aS'/eos/cms/store/group/phys_smp/AnalysisFramework/Baobab/Metin/gammaplusb/2018/MC/ST_s-channel_4f_leptonDecays_TuneCP5_13TeV-madgraph-pythia8/710B198D-4455-4B41-B605-0C2499BE00ED.root'
p474
aS'/eos/cms/store/group/phys_smp/AnalysisFramework/Baobab/Metin/gammaplusb/2018/MC/ST_s-channel_4f_leptonDecays_TuneCP5_13TeV-madgraph-pythia8/784553AC-68BE-7442-8891-3DBBFF3B6CD5.root'
p475
aS'/eos/cms/store/group/phys_smp/AnalysisFramework/Baobab/Metin/gammaplusb/2018/MC/ST_s-channel_4f_leptonDecays_TuneCP5_13TeV-madgraph-pythia8/869628D0-2A0E-9C4C-AA34-E102AE74528D.root'
p476
aS'/eos/cms/store/group/phys_smp/AnalysisFramework/Baobab/Metin/gammaplusb/2018/MC/ST_s-channel_4f_leptonDecays_TuneCP5_13TeV-madgraph-pythia8/BF0B80A8-96A6-F642-A07D-1F8A555E6D10.root'
p477
aS'/eos/cms/store/group/phys_smp/AnalysisFramework/Baobab/Metin/gammaplusb/2018/MC/ST_s-channel_4f_leptonDecays_TuneCP5_13TeV-madgraph-pythia8/C1648042-740D-9C45-ABCC-B67DB25109B2.root'
p478
aS'/eos/cms/store/group/phys_smp/AnalysisFramework/Baobab/Metin/gammaplusb/2018/MC/ST_s-channel_4f_leptonDecays_TuneCP5_13TeV-madgraph-pythia8/F7700BAB-C39E-6340-A4CC-57EE600B2B0A.root'
p479
aS'/eos/cms/store/group/phys_smp/AnalysisFramework/Baobab/Metin/gammaplusb/2018/MC/ST_s-channel_4f_leptonDecays_TuneCP5_13TeV-madgraph-pythia8/FB25AC58-D86B-2F48-A0DD-73DF53242B27.root'
p480
asg30
F34.97
sg31
S'/ST_s-channel_4f_leptonDecays_TuneCP5_13TeV-madgraph-pythia8/RunIIAutumn18NanoAODv7-Nano02Apr2020_102X_upgrade2018_realistic_v21_ext2-v1/NANOAODSIM'
p481
ssg82
(dp482
g6
F7.547
sg7
F0.03365
sg8
F0.9153
sg9
(lp483
S'/eos/cms/store/group/phys_smp/AnalysisFramework/Baobab/Metin/gammaplusb/2018/MC/ST_t-channel_top_4f_InclusiveDecays_TuneCP5_13TeV-powheg-madspin-pythia8/4EFCA151-7BD7-F746-89CA-51371CB469B2.root'
p484
aS'/eos/cms/store/group/phys_smp/AnalysisFramework/Baobab/Metin/gammaplusb/2018/MC/ST_t-channel_top_4f_InclusiveDecays_TuneCP5_13TeV-powheg-madspin-pythia8/C96F20DE-BAE6-864D-9A9F-A75661988C2F.root'
p485
aS'/eos/cms/store/group/phys_smp/AnalysisFramework/Baobab/Metin/gammaplusb/2018/MC/ST_t-channel_top_4f_InclusiveDecays_TuneCP5_13TeV-powheg-madspin-pythia8/DA30485E-B15F-7D46-B9F9-6DC97DA404A9.root'
p486
aS'/eos/cms/store/group/phys_smp/AnalysisFramework/Baobab/Metin/gammaplusb/2018/MC/ST_t-channel_top_4f_InclusiveDecays_TuneCP5_13TeV-powheg-madspin-pythia8/6025362C-AFED-1E4E-B270-BD9B3D37AAEE.root'
p487
aS'/eos/cms/store/group/phys_smp/AnalysisFramework/Baobab/Metin/gammaplusb/2018/MC/ST_t-channel_top_4f_InclusiveDecays_TuneCP5_13TeV-powheg-madspin-pythia8/2F7071F1-8A60-C64E-98CA-C8A15EE035F4.root'
p488
aS'/eos/cms/store/group/phys_smp/AnalysisFramework/Baobab/Metin/gammaplusb/2018/MC/ST_t-channel_top_4f_InclusiveDecays_TuneCP5_13TeV-powheg-madspin-pythia8/E0904A1A-8351-1044-A674-A24F1EBCB206.root'
p489
aS'/eos/cms/store/group/phys_smp/AnalysisFramework/Baobab/Metin/gammaplusb/2018/MC/ST_t-channel_top_4f_InclusiveDecays_TuneCP5_13TeV-powheg-madspin-pythia8/A8DE2F9C-74CC-1945-A829-82101CE6AC39.root'
p490
aS'/eos/cms/store/group/phys_smp/AnalysisFramework/Baobab/Metin/gammaplusb/2018/MC/ST_t-channel_top_4f_InclusiveDecays_TuneCP5_13TeV-powheg-madspin-pythia8/AB3A0FA3-A270-F44E-B527-7BDE4D4FE3A7.root'
p491
aS'/eos/cms/store/group/phys_smp/AnalysisFramework/Baobab/Metin/gammaplusb/2018/MC/ST_t-channel_top_4f_InclusiveDecays_TuneCP5_13TeV-powheg-madspin-pythia8/16CF539A-1EA9-B640-BDC5-C933C005B8F3.root'
p492
aS'/eos/cms/store/group/phys_smp/AnalysisFramework/Baobab/Metin/gammaplusb/2018/MC/ST_t-channel_top_4f_InclusiveDecays_TuneCP5_13TeV-powheg-madspin-pythia8/164FC00A-9B99-CC47-B207-5EDFD167BEED.root'
p493
aS'/eos/cms/store/group/phys_smp/AnalysisFramework/Baobab/Metin/gammaplusb/2018/MC/ST_t-channel_top_4f_InclusiveDecays_TuneCP5_13TeV-powheg-madspin-pythia8/C8BA2B96-F9C0-A04C-B545-1569924A2353.root'
p494
aS'/eos/cms/store/group/phys_smp/AnalysisFramework/Baobab/Metin/gammaplusb/2018/MC/ST_t-channel_top_4f_InclusiveDecays_TuneCP5_13TeV-powheg-madspin-pythia8/249DF1E4-A8AF-E94A-A685-C105F272CC7B.root'
p495
aS'/eos/cms/store/group/phys_smp/AnalysisFramework/Baobab/Metin/gammaplusb/2018/MC/ST_t-channel_top_4f_InclusiveDecays_TuneCP5_13TeV-powheg-madspin-pythia8/73B33B69-8D00-DB4F-8A44-6325D0E9A652.root'
p496
aS'/eos/cms/store/group/phys_smp/AnalysisFramework/Baobab/Metin/gammaplusb/2018/MC/ST_t-channel_top_4f_InclusiveDecays_TuneCP5_13TeV-powheg-madspin-pythia8/E936111C-CEB5-8248-8170-A7159C85BE2A.root'
p497
aS'/eos/cms/store/group/phys_smp/AnalysisFramework/Baobab/Metin/gammaplusb/2018/MC/ST_t-channel_top_4f_InclusiveDecays_TuneCP5_13TeV-powheg-madspin-pythia8/7DDE5CFF-4B54-DB40-A9E0-7A69463A0C95.root'
p498
aS'/eos/cms/store/group/phys_smp/AnalysisFramework/Baobab/Metin/gammaplusb/2018/MC/ST_t-channel_top_4f_InclusiveDecays_TuneCP5_13TeV-powheg-madspin-pythia8/D89D3E43-25FD-7E43-A489-36B6B305D175.root'
p499
aS'/eos/cms/store/group/phys_smp/AnalysisFramework/Baobab/Metin/gammaplusb/2018/MC/ST_t-channel_top_4f_InclusiveDecays_TuneCP5_13TeV-powheg-madspin-pythia8/D6B4ABF5-78E6-D040-B8B5-DC17E6E81359.root'
p500
aS'/eos/cms/store/group/phys_smp/AnalysisFramework/Baobab/Metin/gammaplusb/2018/MC/ST_t-channel_top_4f_InclusiveDecays_TuneCP5_13TeV-powheg-madspin-pythia8/0FB78FE3-F8C8-7E47-A12F-C9DD063DD694.root'
p501
aS'/eos/cms/store/group/phys_smp/AnalysisFramework/Baobab/Metin/gammaplusb/2018/MC/ST_t-channel_top_4f_InclusiveDecays_TuneCP5_13TeV-powheg-madspin-pythia8/4A66959E-D368-7046-99FA-6FD3A7D1D242.root'
p502
aS'/eos/cms/store/group/phys_smp/AnalysisFramework/Baobab/Metin/gammaplusb/2018/MC/ST_t-channel_top_4f_InclusiveDecays_TuneCP5_13TeV-powheg-madspin-pythia8/7DA38E16-0E8B-DA4F-80B6-C72CE2621DD6.root'
p503
aS'/eos/cms/store/group/phys_smp/AnalysisFramework/Baobab/Metin/gammaplusb/2018/MC/ST_t-channel_top_4f_InclusiveDecays_TuneCP5_13TeV-powheg-madspin-pythia8/EDE25BB4-5356-1642-B0C8-019FEEDB72C1.root'
p504
aS'/eos/cms/store/group/phys_smp/AnalysisFramework/Baobab/Metin/gammaplusb/2018/MC/ST_t-channel_top_4f_InclusiveDecays_TuneCP5_13TeV-powheg-madspin-pythia8/D0FA0697-CF06-B64D-8A93-34EF03CD9B2E.root'
p505
aS'/eos/cms/store/group/phys_smp/AnalysisFramework/Baobab/Metin/gammaplusb/2018/MC/ST_t-channel_top_4f_InclusiveDecays_TuneCP5_13TeV-powheg-madspin-pythia8/C4487500-BB35-2A44-B48A-157FF7B3EC74.root'
p506
aS'/eos/cms/store/group/phys_smp/AnalysisFramework/Baobab/Metin/gammaplusb/2018/MC/ST_t-channel_top_4f_InclusiveDecays_TuneCP5_13TeV-powheg-madspin-pythia8/1311395C-C029-7144-9E73-871DB2BF90AF.root'
p507
aS'/eos/cms/store/group/phys_smp/AnalysisFramework/Baobab/Metin/gammaplusb/2018/MC/ST_t-channel_top_4f_InclusiveDecays_TuneCP5_13TeV-powheg-madspin-pythia8/2A0F9AF1-4C80-1946-ABAB-51BACEFBA4B6.root'
p508
aS'/eos/cms/store/group/phys_smp/AnalysisFramework/Baobab/Metin/gammaplusb/2018/MC/ST_t-channel_top_4f_InclusiveDecays_TuneCP5_13TeV-powheg-madspin-pythia8/C9BE9144-7083-3B4B-80AD-15E66F593760.root'
p509
aS'/eos/cms/store/group/phys_smp/AnalysisFramework/Baobab/Metin/gammaplusb/2018/MC/ST_t-channel_top_4f_InclusiveDecays_TuneCP5_13TeV-powheg-madspin-pythia8/4FE57E87-1AED-8B46-B4F4-F31D9D8FEEAD.root'
p510
aS'/eos/cms/store/group/phys_smp/AnalysisFramework/Baobab/Metin/gammaplusb/2018/MC/ST_t-channel_top_4f_InclusiveDecays_TuneCP5_13TeV-powheg-madspin-pythia8/94AB63D7-ADEF-054B-AE04-2BE9E4AE5BBA.root'
p511
aS'/eos/cms/store/group/phys_smp/AnalysisFramework/Baobab/Metin/gammaplusb/2018/MC/ST_t-channel_top_4f_InclusiveDecays_TuneCP5_13TeV-powheg-madspin-pythia8/22B3D3CB-8913-3D4C-BE47-0874E382A9D1.root'
p512
aS'/eos/cms/store/group/phys_smp/AnalysisFramework/Baobab/Metin/gammaplusb/2018/MC/ST_t-channel_top_4f_InclusiveDecays_TuneCP5_13TeV-powheg-madspin-pythia8/21CDAD1F-EFCE-5D4F-B37B-1D6E8D031386.root'
p513
aS'/eos/cms/store/group/phys_smp/AnalysisFramework/Baobab/Metin/gammaplusb/2018/MC/ST_t-channel_top_4f_InclusiveDecays_TuneCP5_13TeV-powheg-madspin-pythia8/B0AD903E-3E94-2447-BF31-D959FFE73F21.root'
p514
aS'/eos/cms/store/group/phys_smp/AnalysisFramework/Baobab/Metin/gammaplusb/2018/MC/ST_t-channel_top_4f_InclusiveDecays_TuneCP5_13TeV-powheg-madspin-pythia8/24E1FF96-BA23-D048-BCD3-2CCD6A4D9027.root'
p515
aS'/eos/cms/store/group/phys_smp/AnalysisFramework/Baobab/Metin/gammaplusb/2018/MC/ST_t-channel_top_4f_InclusiveDecays_TuneCP5_13TeV-powheg-madspin-pythia8/4475DA5A-DFF5-354D-A4F4-DFA55C6048DB.root'
p516
aS'/eos/cms/store/group/phys_smp/AnalysisFramework/Baobab/Metin/gammaplusb/2018/MC/ST_t-channel_top_4f_InclusiveDecays_TuneCP5_13TeV-powheg-madspin-pythia8/EA96BB09-7830-524F-90D9-90AC256F38DB.root'
p517
aS'/eos/cms/store/group/phys_smp/AnalysisFramework/Baobab/Metin/gammaplusb/2018/MC/ST_t-channel_top_4f_InclusiveDecays_TuneCP5_13TeV-powheg-madspin-pythia8/3E4BAE4C-F031-EA4A-9C3B-62D0534CE489.root'
p518
aS'/eos/cms/store/group/phys_smp/AnalysisFramework/Baobab/Metin/gammaplusb/2018/MC/ST_t-channel_top_4f_InclusiveDecays_TuneCP5_13TeV-powheg-madspin-pythia8/3206B7B4-6A86-7F4E-9932-B2672085FB33.root'
p519
aS'/eos/cms/store/group/phys_smp/AnalysisFramework/Baobab/Metin/gammaplusb/2018/MC/ST_t-channel_top_4f_InclusiveDecays_TuneCP5_13TeV-powheg-madspin-pythia8/F839C4FF-B8DB-C049-8F72-19A278C9CE5D.root'
p520
aS'/eos/cms/store/group/phys_smp/AnalysisFramework/Baobab/Metin/gammaplusb/2018/MC/ST_t-channel_top_4f_InclusiveDecays_TuneCP5_13TeV-powheg-madspin-pythia8/18ABF752-CF1E-B24A-A7D1-3F4AD1E842F0.root'
p521
aS'/eos/cms/store/group/phys_smp/AnalysisFramework/Baobab/Metin/gammaplusb/2018/MC/ST_t-channel_top_4f_InclusiveDecays_TuneCP5_13TeV-powheg-madspin-pythia8/520D8E09-CE54-E94C-B41E-7B8DE80AF174.root'
p522
aS'/eos/cms/store/group/phys_smp/AnalysisFramework/Baobab/Metin/gammaplusb/2018/MC/ST_t-channel_top_4f_InclusiveDecays_TuneCP5_13TeV-powheg-madspin-pythia8/00FA0329-D651-3D46-879A-D0C714CAB221.root'
p523
aS'/eos/cms/store/group/phys_smp/AnalysisFramework/Baobab/Metin/gammaplusb/2018/MC/ST_t-channel_top_4f_InclusiveDecays_TuneCP5_13TeV-powheg-madspin-pythia8/28B30A41-3294-9540-B1EF-BCE1876A1E58.root'
p524
aS'/eos/cms/store/group/phys_smp/AnalysisFramework/Baobab/Metin/gammaplusb/2018/MC/ST_t-channel_top_4f_InclusiveDecays_TuneCP5_13TeV-powheg-madspin-pythia8/750F1FEB-0397-9343-B332-605D8C3CB502.root'
p525
aS'/eos/cms/store/group/phys_smp/AnalysisFramework/Baobab/Metin/gammaplusb/2018/MC/ST_t-channel_top_4f_InclusiveDecays_TuneCP5_13TeV-powheg-madspin-pythia8/F5424E1D-8516-E548-BECE-2D4529457300.root'
p526
aS'/eos/cms/store/group/phys_smp/AnalysisFramework/Baobab/Metin/gammaplusb/2018/MC/ST_t-channel_top_4f_InclusiveDecays_TuneCP5_13TeV-powheg-madspin-pythia8/14A17E19-EF54-1340-AEAE-07062BDB25F9.root'
p527
aS'/eos/cms/store/group/phys_smp/AnalysisFramework/Baobab/Metin/gammaplusb/2018/MC/ST_t-channel_top_4f_InclusiveDecays_TuneCP5_13TeV-powheg-madspin-pythia8/3D9FDB71-3DC7-F149-B0AA-E74D2FFF8A22.root'
p528
aS'/eos/cms/store/group/phys_smp/AnalysisFramework/Baobab/Metin/gammaplusb/2018/MC/ST_t-channel_top_4f_InclusiveDecays_TuneCP5_13TeV-powheg-madspin-pythia8/53561127-7BD1-284A-86DA-4C382D8EFA5D.root'
p529
aS'/eos/cms/store/group/phys_smp/AnalysisFramework/Baobab/Metin/gammaplusb/2018/MC/ST_t-channel_top_4f_InclusiveDecays_TuneCP5_13TeV-powheg-madspin-pythia8/589649B5-BAD9-CE40-A79C-FAF83B33B100.root'
p530
aS'/eos/cms/store/group/phys_smp/AnalysisFramework/Baobab/Metin/gammaplusb/2018/MC/ST_t-channel_top_4f_InclusiveDecays_TuneCP5_13TeV-powheg-madspin-pythia8/64156B35-443D-3A46-B910-7D958D6B4ACD.root'
p531
aS'/eos/cms/store/group/phys_smp/AnalysisFramework/Baobab/Metin/gammaplusb/2018/MC/ST_t-channel_top_4f_InclusiveDecays_TuneCP5_13TeV-powheg-madspin-pythia8/AD626172-D30B-CA4A-95F0-34B36380E6AE.root'
p532
aS'/eos/cms/store/group/phys_smp/AnalysisFramework/Baobab/Metin/gammaplusb/2018/MC/ST_t-channel_top_4f_InclusiveDecays_TuneCP5_13TeV-powheg-madspin-pythia8/76AB0DA1-294E-EF49-8F6E-5CBC528AA987.root'
p533
aS'/eos/cms/store/group/phys_smp/AnalysisFramework/Baobab/Metin/gammaplusb/2018/MC/ST_t-channel_top_4f_InclusiveDecays_TuneCP5_13TeV-powheg-madspin-pythia8/768A3D1C-079F-6B4F-9CE3-A1EACEF6110C.root'
p534
aS'/eos/cms/store/group/phys_smp/AnalysisFramework/Baobab/Metin/gammaplusb/2018/MC/ST_t-channel_top_4f_InclusiveDecays_TuneCP5_13TeV-powheg-madspin-pythia8/92CFE902-11F2-5E4F-9901-65B4A91E6CF6.root'
p535
aS'/eos/cms/store/group/phys_smp/AnalysisFramework/Baobab/Metin/gammaplusb/2018/MC/ST_t-channel_top_4f_InclusiveDecays_TuneCP5_13TeV-powheg-madspin-pythia8/640FD0BA-F8A2-584B-8C8A-764CE9C6079D.root'
p536
aS'/eos/cms/store/group/phys_smp/AnalysisFramework/Baobab/Metin/gammaplusb/2018/MC/ST_t-channel_top_4f_InclusiveDecays_TuneCP5_13TeV-powheg-madspin-pythia8/109EE4E7-C19C-F44E-A1CF-DF8254D4CFFA.root'
p537
aS'/eos/cms/store/group/phys_smp/AnalysisFramework/Baobab/Metin/gammaplusb/2018/MC/ST_t-channel_top_4f_InclusiveDecays_TuneCP5_13TeV-powheg-madspin-pythia8/CE5A66DE-D34E-FA4A-93B3-01E5BCB92570.root'
p538
aS'/eos/cms/store/group/phys_smp/AnalysisFramework/Baobab/Metin/gammaplusb/2018/MC/ST_t-channel_top_4f_InclusiveDecays_TuneCP5_13TeV-powheg-madspin-pythia8/D56A672F-EB0A-D545-80D1-39A690BF8E8F.root'
p539
aS'/eos/cms/store/group/phys_smp/AnalysisFramework/Baobab/Metin/gammaplusb/2018/MC/ST_t-channel_top_4f_InclusiveDecays_TuneCP5_13TeV-powheg-madspin-pythia8/A5F1DBF0-F410-C24C-AFA6-E50E2829B06D.root'
p540
aS'/eos/cms/store/group/phys_smp/AnalysisFramework/Baobab/Metin/gammaplusb/2018/MC/ST_t-channel_top_4f_InclusiveDecays_TuneCP5_13TeV-powheg-madspin-pythia8/D8AD31AC-99FD-6447-A995-B45A9AEAA501.root'
p541
aS'/eos/cms/store/group/phys_smp/AnalysisFramework/Baobab/Metin/gammaplusb/2018/MC/ST_t-channel_top_4f_InclusiveDecays_TuneCP5_13TeV-powheg-madspin-pythia8/FE3576ED-A733-7648-887A-1A8B280F5593.root'
p542
aS'/eos/cms/store/group/phys_smp/AnalysisFramework/Baobab/Metin/gammaplusb/2018/MC/ST_t-channel_top_4f_InclusiveDecays_TuneCP5_13TeV-powheg-madspin-pythia8/5ACA6688-ADCB-FD45-B953-D510E108252D.root'
p543
aS'/eos/cms/store/group/phys_smp/AnalysisFramework/Baobab/Metin/gammaplusb/2018/MC/ST_t-channel_top_4f_InclusiveDecays_TuneCP5_13TeV-powheg-madspin-pythia8/AD291386-E67E-274A-A523-FDB67983B1B1.root'
p544
aS'/eos/cms/store/group/phys_smp/AnalysisFramework/Baobab/Metin/gammaplusb/2018/MC/ST_t-channel_top_4f_InclusiveDecays_TuneCP5_13TeV-powheg-madspin-pythia8/6EF7ED8A-A013-5D41-B479-EA1E8B80FEF0.root'
p545
aS'/eos/cms/store/group/phys_smp/AnalysisFramework/Baobab/Metin/gammaplusb/2018/MC/ST_t-channel_top_4f_InclusiveDecays_TuneCP5_13TeV-powheg-madspin-pythia8/25F078D7-FC43-0E43-9ACA-E6B646DC3E2C.root'
p546
aS'/eos/cms/store/group/phys_smp/AnalysisFramework/Baobab/Metin/gammaplusb/2018/MC/ST_t-channel_top_4f_InclusiveDecays_TuneCP5_13TeV-powheg-madspin-pythia8/D236251A-00FE-FC40-9869-33C4DF5BAD44.root'
p547
aS'/eos/cms/store/group/phys_smp/AnalysisFramework/Baobab/Metin/gammaplusb/2018/MC/ST_t-channel_top_4f_InclusiveDecays_TuneCP5_13TeV-powheg-madspin-pythia8/EC649CB8-D20A-D54C-982A-36B096DA67C6.root'
p548
aS'/eos/cms/store/group/phys_smp/AnalysisFramework/Baobab/Metin/gammaplusb/2018/MC/ST_t-channel_top_4f_InclusiveDecays_TuneCP5_13TeV-powheg-madspin-pythia8/5EBA9BFC-5C43-0343-9A96-6F421988E1E4.root'
p549
aS'/eos/cms/store/group/phys_smp/AnalysisFramework/Baobab/Metin/gammaplusb/2018/MC/ST_t-channel_top_4f_InclusiveDecays_TuneCP5_13TeV-powheg-madspin-pythia8/B77F35F9-1075-E846-96A8-110961DA48E5.root'
p550
aS'/eos/cms/store/group/phys_smp/AnalysisFramework/Baobab/Metin/gammaplusb/2018/MC/ST_t-channel_top_4f_InclusiveDecays_TuneCP5_13TeV-powheg-madspin-pythia8/40F6DCCD-4EC9-B44F-A540-0B6B430FAD42.root'
p551
aS'/eos/cms/store/group/phys_smp/AnalysisFramework/Baobab/Metin/gammaplusb/2018/MC/ST_t-channel_top_4f_InclusiveDecays_TuneCP5_13TeV-powheg-madspin-pythia8/7A7646C1-4FAA-3D42-A6BE-D84408FAAC96.root'
p552
aS'/eos/cms/store/group/phys_smp/AnalysisFramework/Baobab/Metin/gammaplusb/2018/MC/ST_t-channel_top_4f_InclusiveDecays_TuneCP5_13TeV-powheg-madspin-pythia8/E019C02C-8009-6942-9C09-B70134E9CC3A.root'
p553
aS'/eos/cms/store/group/phys_smp/AnalysisFramework/Baobab/Metin/gammaplusb/2018/MC/ST_t-channel_top_4f_InclusiveDecays_TuneCP5_13TeV-powheg-madspin-pythia8/B771A295-3590-874F-94D0-A73E5238A15A.root'
p554
aS'/eos/cms/store/group/phys_smp/AnalysisFramework/Baobab/Metin/gammaplusb/2018/MC/ST_t-channel_top_4f_InclusiveDecays_TuneCP5_13TeV-powheg-madspin-pythia8/98E9AC5C-DF7A-1E4E-9E97-D06FA09AF940.root'
p555
aS'/eos/cms/store/group/phys_smp/AnalysisFramework/Baobab/Metin/gammaplusb/2018/MC/ST_t-channel_top_4f_InclusiveDecays_TuneCP5_13TeV-powheg-madspin-pythia8/6B3B9E1D-5FFA-C644-9DF0-6387D0FE5520.root'
p556
aS'/eos/cms/store/group/phys_smp/AnalysisFramework/Baobab/Metin/gammaplusb/2018/MC/ST_t-channel_top_4f_InclusiveDecays_TuneCP5_13TeV-powheg-madspin-pythia8/86FF1C0A-7745-3A4C-8AF4-D7D77966AA06.root'
p557
aS'/eos/cms/store/group/phys_smp/AnalysisFramework/Baobab/Metin/gammaplusb/2018/MC/ST_t-channel_top_4f_InclusiveDecays_TuneCP5_13TeV-powheg-madspin-pythia8/D42B5E5B-619E-C24B-AA7B-F1D2850A76DA.root'
p558
aS'/eos/cms/store/group/phys_smp/AnalysisFramework/Baobab/Metin/gammaplusb/2018/MC/ST_t-channel_top_4f_InclusiveDecays_TuneCP5_13TeV-powheg-madspin-pythia8/7DFBB4D6-3232-2146-BD1C-434B4245A4FA.root'
p559
aS'/eos/cms/store/group/phys_smp/AnalysisFramework/Baobab/Metin/gammaplusb/2018/MC/ST_t-channel_top_4f_InclusiveDecays_TuneCP5_13TeV-powheg-madspin-pythia8/5ED29B92-1773-E745-9CA8-5B3EEC15D3CB.root'
p560
aS'/eos/cms/store/group/phys_smp/AnalysisFramework/Baobab/Metin/gammaplusb/2018/MC/ST_t-channel_top_4f_InclusiveDecays_TuneCP5_13TeV-powheg-madspin-pythia8/7FD8EBF5-97D8-D549-8D3B-67EA459E4995.root'
p561
aS'/eos/cms/store/group/phys_smp/AnalysisFramework/Baobab/Metin/gammaplusb/2018/MC/ST_t-channel_top_4f_InclusiveDecays_TuneCP5_13TeV-powheg-madspin-pythia8/4DCB7078-815C-D546-9EA3-6F103DE20641.root'
p562
aS'/eos/cms/store/group/phys_smp/AnalysisFramework/Baobab/Metin/gammaplusb/2018/MC/ST_t-channel_top_4f_InclusiveDecays_TuneCP5_13TeV-powheg-madspin-pythia8/575CE6D4-71EA-A843-84F1-3F108C9C1A5F.root'
p563
aS'/eos/cms/store/group/phys_smp/AnalysisFramework/Baobab/Metin/gammaplusb/2018/MC/ST_t-channel_top_4f_InclusiveDecays_TuneCP5_13TeV-powheg-madspin-pythia8/BB2CC68D-B54D-6D46-9FBF-A9FC281B1E60.root'
p564
aS'/eos/cms/store/group/phys_smp/AnalysisFramework/Baobab/Metin/gammaplusb/2018/MC/ST_t-channel_top_4f_InclusiveDecays_TuneCP5_13TeV-powheg-madspin-pythia8/D86078E6-D656-4F43-8B60-214C28E64A84.root'
p565
aS'/eos/cms/store/group/phys_smp/AnalysisFramework/Baobab/Metin/gammaplusb/2018/MC/ST_t-channel_top_4f_InclusiveDecays_TuneCP5_13TeV-powheg-madspin-pythia8/0F0A573A-51CD-5640-8301-948A87C59069.root'
p566
aS'/eos/cms/store/group/phys_smp/AnalysisFramework/Baobab/Metin/gammaplusb/2018/MC/ST_t-channel_top_4f_InclusiveDecays_TuneCP5_13TeV-powheg-madspin-pythia8/6277EDDE-D35F-0B4F-BD64-0AD7DF46DA1B.root'
p567
aS'/eos/cms/store/group/phys_smp/AnalysisFramework/Baobab/Metin/gammaplusb/2018/MC/ST_t-channel_top_4f_InclusiveDecays_TuneCP5_13TeV-powheg-madspin-pythia8/9F383FFE-E31F-3F4A-A99A-19FCD007E8AC.root'
p568
aS'/eos/cms/store/group/phys_smp/AnalysisFramework/Baobab/Metin/gammaplusb/2018/MC/ST_t-channel_top_4f_InclusiveDecays_TuneCP5_13TeV-powheg-madspin-pythia8/C61FF1FD-AACA-E74C-92FE-C7C1853D60D0.root'
p569
aS'/eos/cms/store/group/phys_smp/AnalysisFramework/Baobab/Metin/gammaplusb/2018/MC/ST_t-channel_top_4f_InclusiveDecays_TuneCP5_13TeV-powheg-madspin-pythia8/C327930B-95A4-A045-B959-A124B5C01988.root'
p570
aS'/eos/cms/store/group/phys_smp/AnalysisFramework/Baobab/Metin/gammaplusb/2018/MC/ST_t-channel_top_4f_InclusiveDecays_TuneCP5_13TeV-powheg-madspin-pythia8/5DAEFA4A-01A8-BF42-B0A9-BAD9761F5EE1.root'
p571
aS'/eos/cms/store/group/phys_smp/AnalysisFramework/Baobab/Metin/gammaplusb/2018/MC/ST_t-channel_top_4f_InclusiveDecays_TuneCP5_13TeV-powheg-madspin-pythia8/8A6B256E-F08F-5846-81C2-A25CA5AA0DBF.root'
p572
aS'/eos/cms/store/group/phys_smp/AnalysisFramework/Baobab/Metin/gammaplusb/2018/MC/ST_t-channel_top_4f_InclusiveDecays_TuneCP5_13TeV-powheg-madspin-pythia8/E682647E-7624-3242-85A8-73417AC07943.root'
p573
aS'/eos/cms/store/group/phys_smp/AnalysisFramework/Baobab/Metin/gammaplusb/2018/MC/ST_t-channel_top_4f_InclusiveDecays_TuneCP5_13TeV-powheg-madspin-pythia8/C168FF26-AFE5-6A41-9FE3-03E20AC78749.root'
p574
aS'/eos/cms/store/group/phys_smp/AnalysisFramework/Baobab/Metin/gammaplusb/2018/MC/ST_t-channel_top_4f_InclusiveDecays_TuneCP5_13TeV-powheg-madspin-pythia8/836728EE-6406-6043-A7D8-6DB79D684288.root'
p575
aS'/eos/cms/store/group/phys_smp/AnalysisFramework/Baobab/Metin/gammaplusb/2018/MC/ST_t-channel_top_4f_InclusiveDecays_TuneCP5_13TeV-powheg-madspin-pythia8/0D5A0F3A-6930-D748-A200-A26C85F05769.root'
p576
aS'/eos/cms/store/group/phys_smp/AnalysisFramework/Baobab/Metin/gammaplusb/2018/MC/ST_t-channel_top_4f_InclusiveDecays_TuneCP5_13TeV-powheg-madspin-pythia8/61E3DF5B-190E-A049-AEB5-5175C09558B5.root'
p577
aS'/eos/cms/store/group/phys_smp/AnalysisFramework/Baobab/Metin/gammaplusb/2018/MC/ST_t-channel_top_4f_InclusiveDecays_TuneCP5_13TeV-powheg-madspin-pythia8/E0748DC0-3363-6142-AD5A-1D948C6932B2.root'
p578
aS'/eos/cms/store/group/phys_smp/AnalysisFramework/Baobab/Metin/gammaplusb/2018/MC/ST_t-channel_top_4f_InclusiveDecays_TuneCP5_13TeV-powheg-madspin-pythia8/894B6B3E-320F-8140-A771-3DEEC80A05CA.root'
p579
aS'/eos/cms/store/group/phys_smp/AnalysisFramework/Baobab/Metin/gammaplusb/2018/MC/ST_t-channel_top_4f_InclusiveDecays_TuneCP5_13TeV-powheg-madspin-pythia8/2192AB5B-2B64-5141-B01D-2474FDA5A79C.root'
p580
aS'/eos/cms/store/group/phys_smp/AnalysisFramework/Baobab/Metin/gammaplusb/2018/MC/ST_t-channel_top_4f_InclusiveDecays_TuneCP5_13TeV-powheg-madspin-pythia8/568B56CC-8109-1E45-9C84-777898D739BA.root'
p581
aS'/eos/cms/store/group/phys_smp/AnalysisFramework/Baobab/Metin/gammaplusb/2018/MC/ST_t-channel_top_4f_InclusiveDecays_TuneCP5_13TeV-powheg-madspin-pythia8/D515777E-44DE-B644-81B8-3BB2D2EF981E.root'
p582
aS'/eos/cms/store/group/phys_smp/AnalysisFramework/Baobab/Metin/gammaplusb/2018/MC/ST_t-channel_top_4f_InclusiveDecays_TuneCP5_13TeV-powheg-madspin-pythia8/77258BC9-E4E6-3649-B38D-DC091B5509BB.root'
p583
aS'/eos/cms/store/group/phys_smp/AnalysisFramework/Baobab/Metin/gammaplusb/2018/MC/ST_t-channel_top_4f_InclusiveDecays_TuneCP5_13TeV-powheg-madspin-pythia8/5B5E9A29-BA98-A846-9985-50D66E3F4AFF.root'
p584
aS'/eos/cms/store/group/phys_smp/AnalysisFramework/Baobab/Metin/gammaplusb/2018/MC/ST_t-channel_top_4f_InclusiveDecays_TuneCP5_13TeV-powheg-madspin-pythia8/05EAE60C-7352-1747-8005-6E8618E432B7.root'
p585
aS'/eos/cms/store/group/phys_smp/AnalysisFramework/Baobab/Metin/gammaplusb/2018/MC/ST_t-channel_top_4f_InclusiveDecays_TuneCP5_13TeV-powheg-madspin-pythia8/8CCBC86D-EB38-9943-B5D4-25E60A66E551.root'
p586
asg30
F115.3
sg31
S'/ST_t-channel_top_4f_InclusiveDecays_TuneCP5_13TeV-powheg-madspin-pythia8/RunIIAutumn18NanoAODv7-Nano02Apr2020_102X_upgrade2018_realistic_v21-v1/NANOAODSIM'
p587
ssg130
(dp588
g6
F28.22
sg7
F0.003758
sg8
F0.02817
sg9
(lp589
S'/eos/cms/store/group/phys_smp/AnalysisFramework/Baobab/Metin/gammaplusb/2018/MC/ST_tW_top_5f_inclusiveDecays_TuneCP5_13TeV-powheg-pythia8/0D57AC0F-40F6-8640-BB69-E46F1DA27B11.root'
p590
aS'/eos/cms/store/group/phys_smp/AnalysisFramework/Baobab/Metin/gammaplusb/2018/MC/ST_tW_top_5f_inclusiveDecays_TuneCP5_13TeV-powheg-pythia8/3452AF6B-DC7B-FA45-BEB6-0D61C1B1EE69.root'
p591
aS'/eos/cms/store/group/phys_smp/AnalysisFramework/Baobab/Metin/gammaplusb/2018/MC/ST_tW_top_5f_inclusiveDecays_TuneCP5_13TeV-powheg-pythia8/5F32167F-8392-B941-965E-AA1222978FA8.root'
p592
aS'/eos/cms/store/group/phys_smp/AnalysisFramework/Baobab/Metin/gammaplusb/2018/MC/ST_tW_top_5f_inclusiveDecays_TuneCP5_13TeV-powheg-pythia8/758D4429-3F2E-B046-9A5E-F99902D35412.root'
p593
aS'/eos/cms/store/group/phys_smp/AnalysisFramework/Baobab/Metin/gammaplusb/2018/MC/ST_tW_top_5f_inclusiveDecays_TuneCP5_13TeV-powheg-pythia8/779DE0D6-FA2D-0B43-8DA5-7C79C4AF2211.root'
p594
aS'/eos/cms/store/group/phys_smp/AnalysisFramework/Baobab/Metin/gammaplusb/2018/MC/ST_tW_top_5f_inclusiveDecays_TuneCP5_13TeV-powheg-pythia8/87073C89-97A3-8B40-8E59-113D4469126E.root'
p595
aS'/eos/cms/store/group/phys_smp/AnalysisFramework/Baobab/Metin/gammaplusb/2018/MC/ST_tW_top_5f_inclusiveDecays_TuneCP5_13TeV-powheg-pythia8/92504F03-373D-4948-B5B3-A8886D2E9A96.root'
p596
aS'/eos/cms/store/group/phys_smp/AnalysisFramework/Baobab/Metin/gammaplusb/2018/MC/ST_tW_top_5f_inclusiveDecays_TuneCP5_13TeV-powheg-pythia8/A22CD38B-BAAA-D84A-92C7-1D836FCF11F4.root'
p597
aS'/eos/cms/store/group/phys_smp/AnalysisFramework/Baobab/Metin/gammaplusb/2018/MC/ST_tW_top_5f_inclusiveDecays_TuneCP5_13TeV-powheg-pythia8/C720EBDB-F75C-4F48-8DF5-52ED3A80C7B8.root'
p598
aS'/eos/cms/store/group/phys_smp/AnalysisFramework/Baobab/Metin/gammaplusb/2018/MC/ST_tW_top_5f_inclusiveDecays_TuneCP5_13TeV-powheg-pythia8/DF69049B-4E5A-F346-A7A3-C3FC5FFEF25A.root'
p599
aS'/eos/cms/store/group/phys_smp/AnalysisFramework/Baobab/Metin/gammaplusb/2018/MC/ST_tW_top_5f_inclusiveDecays_TuneCP5_13TeV-powheg-pythia8/FE0CEDE0-6716-DE4A-A5C9-D1C126E7A2F1.root'
p600
asg30
F34.91
sg31
S'/ST_tW_top_5f_inclusiveDecays_TuneCP5_13TeV-powheg-pythia8/RunIIAutumn18NanoAODv7-Nano02Apr2020_102X_upgrade2018_realistic_v21_ext1-v1/NANOAODSIM'
p601
ssg141
(dp602
g6
F7.526e-07
sg7
F0.0
sg8
F10220000.0
sg9
(lp603
S'/eos/cms/store/group/phys_smp/AnalysisFramework/Baobab/Metin/gammaplusb/2018/MC/QCD_Pt-15to7000_TuneCH3_Flat_13TeV_herwig7/25E736D9-D974-4540-BE4B-E6F0FF88527D.root'
p604
aS'/eos/cms/store/group/phys_smp/AnalysisFramework/Baobab/Metin/gammaplusb/2018/MC/QCD_Pt-15to7000_TuneCH3_Flat_13TeV_herwig7/7475D8A9-68D3-B243-9357-115C665FAE0C.root'
p605
aS'/eos/cms/store/group/phys_smp/AnalysisFramework/Baobab/Metin/gammaplusb/2018/MC/QCD_Pt-15to7000_TuneCH3_Flat_13TeV_herwig7/A6991A37-24EC-B947-889C-43FDBDF716A5.root'
p606
aS'/eos/cms/store/group/phys_smp/AnalysisFramework/Baobab/Metin/gammaplusb/2018/MC/QCD_Pt-15to7000_TuneCH3_Flat_13TeV_herwig7/D399725B-B7AF-BA47-A6BF-20BB1E48DE31.root'
p607
aS'/eos/cms/store/group/phys_smp/AnalysisFramework/Baobab/Metin/gammaplusb/2018/MC/QCD_Pt-15to7000_TuneCH3_Flat_13TeV_herwig7/E3BA7BFC-EEDE-C841-8D4C-871020E557E3.root'
p608
aS'/eos/cms/store/group/phys_smp/AnalysisFramework/Baobab/Metin/gammaplusb/2018/MC/QCD_Pt-15to7000_TuneCH3_Flat_13TeV_herwig7/6108851C-3019-C345-8D9C-A3889694622E.root'
p609
aS'/eos/cms/store/group/phys_smp/AnalysisFramework/Baobab/Metin/gammaplusb/2018/MC/QCD_Pt-15to7000_TuneCH3_Flat_13TeV_herwig7/8E7FA7C7-7A7A-0048-B628-AC557D34D4A6.root'
p610
aS'/eos/cms/store/group/phys_smp/AnalysisFramework/Baobab/Metin/gammaplusb/2018/MC/QCD_Pt-15to7000_TuneCH3_Flat_13TeV_herwig7/DB6CBDAF-9215-494C-AB99-49C94E87007F.root'
p611
aS'/eos/cms/store/group/phys_smp/AnalysisFramework/Baobab/Metin/gammaplusb/2018/MC/QCD_Pt-15to7000_TuneCH3_Flat_13TeV_herwig7/B192D23D-CC18-FC45-8C35-5119BD2ADA01.root'
p612
aS'/eos/cms/store/group/phys_smp/AnalysisFramework/Baobab/Metin/gammaplusb/2018/MC/QCD_Pt-15to7000_TuneCH3_Flat_13TeV_herwig7/1037D64B-C3BE-0042-B6EA-13FD6F9AB4E7.root'
p613
aS'/eos/cms/store/group/phys_smp/AnalysisFramework/Baobab/Metin/gammaplusb/2018/MC/QCD_Pt-15to7000_TuneCH3_Flat_13TeV_herwig7/F8F8C023-DCB7-094A-95F2-28542E99D67E.root'
p614
aS'/eos/cms/store/group/phys_smp/AnalysisFramework/Baobab/Metin/gammaplusb/2018/MC/QCD_Pt-15to7000_TuneCH3_Flat_13TeV_herwig7/DC359BA2-9E07-5341-929F-3D1AF9BA5F2F.root'
p615
aS'/eos/cms/store/group/phys_smp/AnalysisFramework/Baobab/Metin/gammaplusb/2018/MC/QCD_Pt-15to7000_TuneCH3_Flat_13TeV_herwig7/B4F9B0E2-AE4B-4440-BA81-1F50C0E6273B.root'
p616
aS'/eos/cms/store/group/phys_smp/AnalysisFramework/Baobab/Metin/gammaplusb/2018/MC/QCD_Pt-15to7000_TuneCH3_Flat_13TeV_herwig7/609545F6-FDB6-F048-8F61-D19FBF730D5F.root'
p617
aS'/eos/cms/store/group/phys_smp/AnalysisFramework/Baobab/Metin/gammaplusb/2018/MC/QCD_Pt-15to7000_TuneCH3_Flat_13TeV_herwig7/14591D3C-7723-4847-89CD-DC276F8ABD13.root'
p618
aS'/eos/cms/store/group/phys_smp/AnalysisFramework/Baobab/Metin/gammaplusb/2018/MC/QCD_Pt-15to7000_TuneCH3_Flat_13TeV_herwig7/8EFCA2C4-FC71-DD44-B0F3-90FBC4FBA57E.root'
p619
aS'/eos/cms/store/group/phys_smp/AnalysisFramework/Baobab/Metin/gammaplusb/2018/MC/QCD_Pt-15to7000_TuneCH3_Flat_13TeV_herwig7/2F5A09E5-ED6F-7D44-B48C-D8AB6076DEB2.root'
p620
aS'/eos/cms/store/group/phys_smp/AnalysisFramework/Baobab/Metin/gammaplusb/2018/MC/QCD_Pt-15to7000_TuneCH3_Flat_13TeV_herwig7/DAC58704-0E8F-6D45-84D5-BDACC4CD8A08.root'
p621
aS'/eos/cms/store/group/phys_smp/AnalysisFramework/Baobab/Metin/gammaplusb/2018/MC/QCD_Pt-15to7000_TuneCH3_Flat_13TeV_herwig7/EF9B9F29-8D9F-7D4A-B5EB-9B0D15A9D330.root'
p622
aS'/eos/cms/store/group/phys_smp/AnalysisFramework/Baobab/Metin/gammaplusb/2018/MC/QCD_Pt-15to7000_TuneCH3_Flat_13TeV_herwig7/3676FFDA-6336-BC4F-911A-71DC8C5C380A.root'
p623
aS'/eos/cms/store/group/phys_smp/AnalysisFramework/Baobab/Metin/gammaplusb/2018/MC/QCD_Pt-15to7000_TuneCH3_Flat_13TeV_herwig7/6AB381CB-388A-3B4D-94F0-DD0702E68A47.root'
p624
aS'/eos/cms/store/group/phys_smp/AnalysisFramework/Baobab/Metin/gammaplusb/2018/MC/QCD_Pt-15to7000_TuneCH3_Flat_13TeV_herwig7/5B7FA664-A9EB-194F-B232-56E4E39898E1.root'
p625
aS'/eos/cms/store/group/phys_smp/AnalysisFramework/Baobab/Metin/gammaplusb/2018/MC/QCD_Pt-15to7000_TuneCH3_Flat_13TeV_herwig7/C9A242AC-1D81-EE4E-86E7-FCF28C3F77C5.root'
p626
aS'/eos/cms/store/group/phys_smp/AnalysisFramework/Baobab/Metin/gammaplusb/2018/MC/QCD_Pt-15to7000_TuneCH3_Flat_13TeV_herwig7/AC8B2268-B457-DE4B-8707-A346D7703A38.root'
p627
aS'/eos/cms/store/group/phys_smp/AnalysisFramework/Baobab/Metin/gammaplusb/2018/MC/QCD_Pt-15to7000_TuneCH3_Flat_13TeV_herwig7/CCD943C2-8663-7745-A666-BABBFCE6D092.root'
p628
aS'/eos/cms/store/group/phys_smp/AnalysisFramework/Baobab/Metin/gammaplusb/2018/MC/QCD_Pt-15to7000_TuneCH3_Flat_13TeV_herwig7/67FE4C1C-6AE7-7947-ADDE-621BF1E4D606.root'
p629
aS'/eos/cms/store/group/phys_smp/AnalysisFramework/Baobab/Metin/gammaplusb/2018/MC/QCD_Pt-15to7000_TuneCH3_Flat_13TeV_herwig7/6F870C35-FFE6-A34C-A27C-C286CCD54437.root'
p630
aS'/eos/cms/store/group/phys_smp/AnalysisFramework/Baobab/Metin/gammaplusb/2018/MC/QCD_Pt-15to7000_TuneCH3_Flat_13TeV_herwig7/2A92EC03-07A4-5147-955E-CF0E89BAF136.root'
p631
aS'/eos/cms/store/group/phys_smp/AnalysisFramework/Baobab/Metin/gammaplusb/2018/MC/QCD_Pt-15to7000_TuneCH3_Flat_13TeV_herwig7/050B2C4E-9A19-0048-88C3-67F872F793F2.root'
p632
aS'/eos/cms/store/group/phys_smp/AnalysisFramework/Baobab/Metin/gammaplusb/2018/MC/QCD_Pt-15to7000_TuneCH3_Flat_13TeV_herwig7/181A5836-6E0A-474B-8AD8-B2D44FD2F34E.root'
p633
aS'/eos/cms/store/group/phys_smp/AnalysisFramework/Baobab/Metin/gammaplusb/2018/MC/QCD_Pt-15to7000_TuneCH3_Flat_13TeV_herwig7/8D24596E-5C43-6648-800B-0964C6D0F118.root'
p634
aS'/eos/cms/store/group/phys_smp/AnalysisFramework/Baobab/Metin/gammaplusb/2018/MC/QCD_Pt-15to7000_TuneCH3_Flat_13TeV_herwig7/20AB9437-4DC0-2845-BD4C-66545BADB435.root'
p635
aS'/eos/cms/store/group/phys_smp/AnalysisFramework/Baobab/Metin/gammaplusb/2018/MC/QCD_Pt-15to7000_TuneCH3_Flat_13TeV_herwig7/FEB6696C-A495-CC4A-8E1C-1FBB1A26AF0F.root'
p636
aS'/eos/cms/store/group/phys_smp/AnalysisFramework/Baobab/Metin/gammaplusb/2018/MC/QCD_Pt-15to7000_TuneCH3_Flat_13TeV_herwig7/E5EFEF7A-BD36-784E-B18C-0428CF671BD1.root'
p637
aS'/eos/cms/store/group/phys_smp/AnalysisFramework/Baobab/Metin/gammaplusb/2018/MC/QCD_Pt-15to7000_TuneCH3_Flat_13TeV_herwig7/1B2D39D1-CDCA-4842-9880-5FCB9C8C5C81.root'
p638
aS'/eos/cms/store/group/phys_smp/AnalysisFramework/Baobab/Metin/gammaplusb/2018/MC/QCD_Pt-15to7000_TuneCH3_Flat_13TeV_herwig7/58CA881D-1A72-A940-BE06-7B41E1C3C748.root'
p639
aS'/eos/cms/store/group/phys_smp/AnalysisFramework/Baobab/Metin/gammaplusb/2018/MC/QCD_Pt-15to7000_TuneCH3_Flat_13TeV_herwig7/93B4A660-7ABE-2D4D-A021-E34B6187EAB7.root'
p640
aS'/eos/cms/store/group/phys_smp/AnalysisFramework/Baobab/Metin/gammaplusb/2018/MC/QCD_Pt-15to7000_TuneCH3_Flat_13TeV_herwig7/C2A9D0E3-5CB4-E044-9F2B-7E922EC816EF.root'
p641
aS'/eos/cms/store/group/phys_smp/AnalysisFramework/Baobab/Metin/gammaplusb/2018/MC/QCD_Pt-15to7000_TuneCH3_Flat_13TeV_herwig7/27323F37-2067-484F-80CB-485B283B570D.root'
p642
aS'/eos/cms/store/group/phys_smp/AnalysisFramework/Baobab/Metin/gammaplusb/2018/MC/QCD_Pt-15to7000_TuneCH3_Flat_13TeV_herwig7/A4AE8704-96B7-114F-9050-0E730364F0BB.root'
p643
aS'/eos/cms/store/group/phys_smp/AnalysisFramework/Baobab/Metin/gammaplusb/2018/MC/QCD_Pt-15to7000_TuneCH3_Flat_13TeV_herwig7/553430AD-C01C-BA4F-BA60-D5D574F5EBDA.root'
p644
aS'/eos/cms/store/group/phys_smp/AnalysisFramework/Baobab/Metin/gammaplusb/2018/MC/QCD_Pt-15to7000_TuneCH3_Flat_13TeV_herwig7/4EC119FD-CE96-7442-A40B-CC758B875212.root'
p645
aS'/eos/cms/store/group/phys_smp/AnalysisFramework/Baobab/Metin/gammaplusb/2018/MC/QCD_Pt-15to7000_TuneCH3_Flat_13TeV_herwig7/7217A5A5-2FE3-2C49-86DA-5DCEED9FFCBD.root'
p646
aS'/eos/cms/store/group/phys_smp/AnalysisFramework/Baobab/Metin/gammaplusb/2018/MC/QCD_Pt-15to7000_TuneCH3_Flat_13TeV_herwig7/CDB694BD-E729-6F43-9700-D3850846F9BF.root'
p647
aS'/eos/cms/store/group/phys_smp/AnalysisFramework/Baobab/Metin/gammaplusb/2018/MC/QCD_Pt-15to7000_TuneCH3_Flat_13TeV_herwig7/E9F794A6-B6CC-6D48-A14F-C1C59D131757.root'
p648
aS'/eos/cms/store/group/phys_smp/AnalysisFramework/Baobab/Metin/gammaplusb/2018/MC/QCD_Pt-15to7000_TuneCH3_Flat_13TeV_herwig7/47A230D4-EA7C-D442-ACEB-8F2A6B04842A.root'
p649
asg30
F1329000000.0
sg31
S'/QCD_Pt-15to7000_TuneCH3_Flat_13TeV_herwig7/RunIIAutumn18NanoAODv7-Nano02Apr2020_102X_upgrade2018_realistic_v21-v1/NANOAODSIM'
p650
ssg156
(dp651
g6
F37.33
sg7
F0.3049
sg8
F0.02302
sg9
(lp652
S'/eos/cms/store/group/phys_smp/AnalysisFramework/Baobab/Metin/gammaplusb/2018/MC/TTGJets_TuneCP5_13TeV-amcatnloFXFX-madspin-pythia8/AC7FDF43-337D-B244-A512-E038939CF4B1.root'
p653
aS'/eos/cms/store/group/phys_smp/AnalysisFramework/Baobab/Metin/gammaplusb/2018/MC/TTGJets_TuneCP5_13TeV-amcatnloFXFX-madspin-pythia8/76D6900D-3ACF-C649-9B45-2E6FE44F839D.root'
p654
aS'/eos/cms/store/group/phys_smp/AnalysisFramework/Baobab/Metin/gammaplusb/2018/MC/TTGJets_TuneCP5_13TeV-amcatnloFXFX-madspin-pythia8/58AE29E1-D645-6445-9400-D62C3DC2548A.root'
p655
aS'/eos/cms/store/group/phys_smp/AnalysisFramework/Baobab/Metin/gammaplusb/2018/MC/TTGJets_TuneCP5_13TeV-amcatnloFXFX-madspin-pythia8/28935711-8048-434A-B43E-881C95A2F094.root'
p656
aS'/eos/cms/store/group/phys_smp/AnalysisFramework/Baobab/Metin/gammaplusb/2018/MC/TTGJets_TuneCP5_13TeV-amcatnloFXFX-madspin-pythia8/27089A38-D1FF-EB43-98F2-2474CBF7E8AC.root'
p657
aS'/eos/cms/store/group/phys_smp/AnalysisFramework/Baobab/Metin/gammaplusb/2018/MC/TTGJets_TuneCP5_13TeV-amcatnloFXFX-madspin-pythia8/555C4C0A-F5F3-2F46-B579-4C0BA8076812.root'
p658
aS'/eos/cms/store/group/phys_smp/AnalysisFramework/Baobab/Metin/gammaplusb/2018/MC/TTGJets_TuneCP5_13TeV-amcatnloFXFX-madspin-pythia8/699ACAA4-9DAB-2E46-BEC6-AB00BACF1BC5.root'
p659
aS'/eos/cms/store/group/phys_smp/AnalysisFramework/Baobab/Metin/gammaplusb/2018/MC/TTGJets_TuneCP5_13TeV-amcatnloFXFX-madspin-pythia8/5CAA4155-69FF-9945-B7DF-FA73B6E8AB6C.root'
p660
aS'/eos/cms/store/group/phys_smp/AnalysisFramework/Baobab/Metin/gammaplusb/2018/MC/TTGJets_TuneCP5_13TeV-amcatnloFXFX-madspin-pythia8/CBE204B2-58B4-7A4F-B898-B3C64AC73230.root'
p661
aS'/eos/cms/store/group/phys_smp/AnalysisFramework/Baobab/Metin/gammaplusb/2018/MC/TTGJets_TuneCP5_13TeV-amcatnloFXFX-madspin-pythia8/1A0AA186-F4C5-EC4B-AF76-A2A0A2CAF5A4.root'
p662
aS'/eos/cms/store/group/phys_smp/AnalysisFramework/Baobab/Metin/gammaplusb/2018/MC/TTGJets_TuneCP5_13TeV-amcatnloFXFX-madspin-pythia8/E22F825F-DAD5-4141-8B6F-83008683FC55.root'
p663
aS'/eos/cms/store/group/phys_smp/AnalysisFramework/Baobab/Metin/gammaplusb/2018/MC/TTGJets_TuneCP5_13TeV-amcatnloFXFX-madspin-pythia8/AF1D2099-1C0C-3B45-B929-4ED867DDFB2F.root'
p664
aS'/eos/cms/store/group/phys_smp/AnalysisFramework/Baobab/Metin/gammaplusb/2018/MC/TTGJets_TuneCP5_13TeV-amcatnloFXFX-madspin-pythia8/51D35219-5CA7-924C-9540-D3AB2E247CB8.root'
p665
aS'/eos/cms/store/group/phys_smp/AnalysisFramework/Baobab/Metin/gammaplusb/2018/MC/TTGJets_TuneCP5_13TeV-amcatnloFXFX-madspin-pythia8/A8E87FA7-09EB-E84C-AA26-2CC2805B1C7E.root'
p666
aS'/eos/cms/store/group/phys_smp/AnalysisFramework/Baobab/Metin/gammaplusb/2018/MC/TTGJets_TuneCP5_13TeV-amcatnloFXFX-madspin-pythia8/F54FEB01-AB6A-E941-ADAD-BDC576E16378.root'
p667
aS'/eos/cms/store/group/phys_smp/AnalysisFramework/Baobab/Metin/gammaplusb/2018/MC/TTGJets_TuneCP5_13TeV-amcatnloFXFX-madspin-pythia8/EA27694D-6A65-CF42-A206-ED4DCA2BC30B.root'
p668
aS'/eos/cms/store/group/phys_smp/AnalysisFramework/Baobab/Metin/gammaplusb/2018/MC/TTGJets_TuneCP5_13TeV-amcatnloFXFX-madspin-pythia8/415A3616-4B28-0243-910E-2C18F9F222C7.root'
p669
aS'/eos/cms/store/group/phys_smp/AnalysisFramework/Baobab/Metin/gammaplusb/2018/MC/TTGJets_TuneCP5_13TeV-amcatnloFXFX-madspin-pythia8/6FC4B6E5-B3FC-F64E-8A33-D639A1BF8684.root'
p670
aS'/eos/cms/store/group/phys_smp/AnalysisFramework/Baobab/Metin/gammaplusb/2018/MC/TTGJets_TuneCP5_13TeV-amcatnloFXFX-madspin-pythia8/A9D9D6D5-BE4E-7443-8877-86BED60DA1C1.root'
p671
aS'/eos/cms/store/group/phys_smp/AnalysisFramework/Baobab/Metin/gammaplusb/2018/MC/TTGJets_TuneCP5_13TeV-amcatnloFXFX-madspin-pythia8/75200A5E-9C2F-6C4A-9331-6E9DFD22502C.root'
p672
aS'/eos/cms/store/group/phys_smp/AnalysisFramework/Baobab/Metin/gammaplusb/2018/MC/TTGJets_TuneCP5_13TeV-amcatnloFXFX-madspin-pythia8/5973643F-B1A5-A047-8B7B-EFED3DBC8417.root'
p673
asg30
F4.078
sg31
S'/TTGJets_TuneCP5_13TeV-amcatnloFXFX-madspin-pythia8/RunIIAutumn18NanoAODv7-Nano02Apr2020_102X_upgrade2018_realistic_v21-v1/NANOAODSIM'
p674
ssg170
(dp675
g6
F12.52
sg7
F0.4022
sg8
F0.01255
sg9
(lp676
S'/eos/cms/store/group/phys_smp/AnalysisFramework/Baobab/Metin/gammaplusb/2018/MC/TGJets_TuneCP5_13TeV_amcatnlo_madspin_pythia8/CFAD2CD1-7787-3344-92A6-F350C83F48DA.root'
p677
aS'/eos/cms/store/group/phys_smp/AnalysisFramework/Baobab/Metin/gammaplusb/2018/MC/TGJets_TuneCP5_13TeV_amcatnlo_madspin_pythia8/42591249-294C-5944-AE0D-387D16ACC949.root'
p678
aS'/eos/cms/store/group/phys_smp/AnalysisFramework/Baobab/Metin/gammaplusb/2018/MC/TGJets_TuneCP5_13TeV_amcatnlo_madspin_pythia8/2A2A4165-4DA6-D343-9CAA-E98CFEFF77B9.root'
p679
aS'/eos/cms/store/group/phys_smp/AnalysisFramework/Baobab/Metin/gammaplusb/2018/MC/TGJets_TuneCP5_13TeV_amcatnlo_madspin_pythia8/CA2EB0A9-0356-6845-AFB1-A493BFEDA94B.root'
p680
aS'/eos/cms/store/group/phys_smp/AnalysisFramework/Baobab/Metin/gammaplusb/2018/MC/TGJets_TuneCP5_13TeV_amcatnlo_madspin_pythia8/9C6622FB-8E2D-7544-B854-0EF5CA2DDEC5.root'
p681
aS'/eos/cms/store/group/phys_smp/AnalysisFramework/Baobab/Metin/gammaplusb/2018/MC/TGJets_TuneCP5_13TeV_amcatnlo_madspin_pythia8/4F9DEA28-356C-914C-9A57-25595D904FB0.root'
p682
aS'/eos/cms/store/group/phys_smp/AnalysisFramework/Baobab/Metin/gammaplusb/2018/MC/TGJets_TuneCP5_13TeV_amcatnlo_madspin_pythia8/A174BC58-1458-3248-A422-19D5D3AD1332.root'
p683
aS'/eos/cms/store/group/phys_smp/AnalysisFramework/Baobab/Metin/gammaplusb/2018/MC/TGJets_TuneCP5_13TeV_amcatnlo_madspin_pythia8/E1001964-83C0-FF46-9C15-CD5274FC091D.root'
p684
aS'/eos/cms/store/group/phys_smp/AnalysisFramework/Baobab/Metin/gammaplusb/2018/MC/TGJets_TuneCP5_13TeV_amcatnlo_madspin_pythia8/87D2DCF1-9DA5-E246-9162-0B5927A4BD38.root'
p685
aS'/eos/cms/store/group/phys_smp/AnalysisFramework/Baobab/Metin/gammaplusb/2018/MC/TGJets_TuneCP5_13TeV_amcatnlo_madspin_pythia8/6378329D-F31C-A04E-8A10-9423CF89D7B3.root'
p686
aS'/eos/cms/store/group/phys_smp/AnalysisFramework/Baobab/Metin/gammaplusb/2018/MC/TGJets_TuneCP5_13TeV_amcatnlo_madspin_pythia8/DA2551CE-0FEC-714D-AB12-FDCC69BB9912.root'
p687
aS'/eos/cms/store/group/phys_smp/AnalysisFramework/Baobab/Metin/gammaplusb/2018/MC/TGJets_TuneCP5_13TeV_amcatnlo_madspin_pythia8/643F615B-78D4-E843-B3E8-D2DA4E5DDEB0.root'
p688
aS'/eos/cms/store/group/phys_smp/AnalysisFramework/Baobab/Metin/gammaplusb/2018/MC/TGJets_TuneCP5_13TeV_amcatnlo_madspin_pythia8/EC33CEE4-5339-F148-BF26-7B9C4306EDAE.root'
p689
aS'/eos/cms/store/group/phys_smp/AnalysisFramework/Baobab/Metin/gammaplusb/2018/MC/TGJets_TuneCP5_13TeV_amcatnlo_madspin_pythia8/33B3B8E7-A2A1-7C40-BEC1-DB4E674EFF4A.root'
p690
aS'/eos/cms/store/group/phys_smp/AnalysisFramework/Baobab/Metin/gammaplusb/2018/MC/TGJets_TuneCP5_13TeV_amcatnlo_madspin_pythia8/65801EA4-5A98-434B-A3D8-58470517E9C9.root'
p691
aS'/eos/cms/store/group/phys_smp/AnalysisFramework/Baobab/Metin/gammaplusb/2018/MC/TGJets_TuneCP5_13TeV_amcatnlo_madspin_pythia8/B204251E-9613-CA4A-9820-DDCC937A02D8.root'
p692
aS'/eos/cms/store/group/phys_smp/AnalysisFramework/Baobab/Metin/gammaplusb/2018/MC/TGJets_TuneCP5_13TeV_amcatnlo_madspin_pythia8/531C3232-8A02-A347-BF8C-402681EA321E.root'
p693
aS'/eos/cms/store/group/phys_smp/AnalysisFramework/Baobab/Metin/gammaplusb/2018/MC/TGJets_TuneCP5_13TeV_amcatnlo_madspin_pythia8/3DF6FEEE-501A-904F-B60E-C48EF0C86ED1.root'
p694
aS'/eos/cms/store/group/phys_smp/AnalysisFramework/Baobab/Metin/gammaplusb/2018/MC/TGJets_TuneCP5_13TeV_amcatnlo_madspin_pythia8/B18F6A32-D2C2-5D4C-84D8-CCB7D7A4E6ED.root'
p695
aS'/eos/cms/store/group/phys_smp/AnalysisFramework/Baobab/Metin/gammaplusb/2018/MC/TGJets_TuneCP5_13TeV_amcatnlo_madspin_pythia8/F224AA36-4510-954C-A5AF-E305E1B645F3.root'
p696
aS'/eos/cms/store/group/phys_smp/AnalysisFramework/Baobab/Metin/gammaplusb/2018/MC/TGJets_TuneCP5_13TeV_amcatnlo_madspin_pythia8/5D7F2D39-5175-8140-88A6-978E102551C0.root'
p697
aS'/eos/cms/store/group/phys_smp/AnalysisFramework/Baobab/Metin/gammaplusb/2018/MC/TGJets_TuneCP5_13TeV_amcatnlo_madspin_pythia8/64E20D7C-7024-1249-B283-43F80DC5879B.root'
p698
aS'/eos/cms/store/group/phys_smp/AnalysisFramework/Baobab/Metin/gammaplusb/2018/MC/TGJets_TuneCP5_13TeV_amcatnlo_madspin_pythia8/1474724C-4B6F-CB40-916F-E632E989F1AC.root'
p699
aS'/eos/cms/store/group/phys_smp/AnalysisFramework/Baobab/Metin/gammaplusb/2018/MC/TGJets_TuneCP5_13TeV_amcatnlo_madspin_pythia8/DBE7D55B-1BE8-8248-88BB-5FA76071DE61.root'
p700
aS'/eos/cms/store/group/phys_smp/AnalysisFramework/Baobab/Metin/gammaplusb/2018/MC/TGJets_TuneCP5_13TeV_amcatnlo_madspin_pythia8/6CE63736-1E3D-1F45-9492-39B398399B8C.root'
p701
aS'/eos/cms/store/group/phys_smp/AnalysisFramework/Baobab/Metin/gammaplusb/2018/MC/TGJets_TuneCP5_13TeV_amcatnlo_madspin_pythia8/08DEBBEB-732E-1945-9751-04B4E279B74C.root'
p702
aS'/eos/cms/store/group/phys_smp/AnalysisFramework/Baobab/Metin/gammaplusb/2018/MC/TGJets_TuneCP5_13TeV_amcatnlo_madspin_pythia8/FAFCE013-7736-FB4D-BC2E-0C4BD164545A.root'
p703
asg30
F3.055
sg31
S'/TGJets_TuneCP5_13TeV_amcatnlo_madspin_pythia8/RunIIAutumn18NanoAODv7-Nano02Apr2020_102X_upgrade2018_realistic_v21_ext1-v1/NANOAODSIM'
p704
ssg175
(dp705
g6
F28.2
sg7
F0.0034
sg8
F0.02827
sg9
(lp706
S'/eos/cms/store/group/phys_smp/AnalysisFramework/Baobab/Metin/gammaplusb/2018/MC/ST_tW_antitop_5f_inclusiveDecays_TuneCP5_13TeV-powheg-pythia8/D616DD99-A0B7-C745-A1EE-0A88476822BC.root'
p707
aS'/eos/cms/store/group/phys_smp/AnalysisFramework/Baobab/Metin/gammaplusb/2018/MC/ST_tW_antitop_5f_inclusiveDecays_TuneCP5_13TeV-powheg-pythia8/137CFFF4-B5BB-8043-B65D-8270000F4E99.root'
p708
aS'/eos/cms/store/group/phys_smp/AnalysisFramework/Baobab/Metin/gammaplusb/2018/MC/ST_tW_antitop_5f_inclusiveDecays_TuneCP5_13TeV-powheg-pythia8/D9CF885C-70F1-FC45-9715-A9DD20235046.root'
p709
aS'/eos/cms/store/group/phys_smp/AnalysisFramework/Baobab/Metin/gammaplusb/2018/MC/ST_tW_antitop_5f_inclusiveDecays_TuneCP5_13TeV-powheg-pythia8/24CF951E-3BFB-7042-931F-5694B452314D.root'
p710
aS'/eos/cms/store/group/phys_smp/AnalysisFramework/Baobab/Metin/gammaplusb/2018/MC/ST_tW_antitop_5f_inclusiveDecays_TuneCP5_13TeV-powheg-pythia8/7AAF3201-90C5-4E4B-8636-3E5863E50E17.root'
p711
aS'/eos/cms/store/group/phys_smp/AnalysisFramework/Baobab/Metin/gammaplusb/2018/MC/ST_tW_antitop_5f_inclusiveDecays_TuneCP5_13TeV-powheg-pythia8/5BCBD8AF-9D6C-5446-A03E-DCF4194FB0B6.root'
p712
aS'/eos/cms/store/group/phys_smp/AnalysisFramework/Baobab/Metin/gammaplusb/2018/MC/ST_tW_antitop_5f_inclusiveDecays_TuneCP5_13TeV-powheg-pythia8/8A8A652F-B172-3E4B-A410-703A58F748E8.root'
p713
aS'/eos/cms/store/group/phys_smp/AnalysisFramework/Baobab/Metin/gammaplusb/2018/MC/ST_tW_antitop_5f_inclusiveDecays_TuneCP5_13TeV-powheg-pythia8/19BAAA83-BC63-6E4D-A728-1999DADE5DCA.root'
p714
aS'/eos/cms/store/group/phys_smp/AnalysisFramework/Baobab/Metin/gammaplusb/2018/MC/ST_tW_antitop_5f_inclusiveDecays_TuneCP5_13TeV-powheg-pythia8/434CB982-C5FA-8A47-B6CC-4F044CE3F5B9.root'
p715
asg30
F34.97
sg31
S'/ST_tW_antitop_5f_inclusiveDecays_TuneCP5_13TeV-powheg-pythia8/RunIIAutumn18NanoAODv7-Nano02Apr2020_102X_upgrade2018_realistic_v21_ext1-v1/NANOAODSIM'
p716
ssss.