(dp0
I2016
(dp1
S'signal'
p2
(dp3
S'G1Jet_Pt'
p4
(dp5
S'G1Jet_Pt_250To400_NOExt'
p6
(dp7
S'xsec'
p8
F25.48
sS'fraction_negative_weight'
p9
F0.2331
sS'xsec_unc'
p10
F0.07909
sS'nevents'
p11
I1000000
sS'das_path'
p12
S'/G1Jet_Pt-250To400_TuneCUETP8M1_13TeV-amcatnlo-pythia8/RunIISummer16NanoAODv7-PUMoriond17_Nano02Apr2020_102X_mcRun2_asymptotic_v8-v1/NANOAODSIM'
p13
sS'equivalent_lumi'
p14
F11.18
sS'dir'
p15
S'/eos/user/e/ecasilar/SMPVJ_Gamma_BJETS/MC/G1Jet_Pt/GenMatching/G1Jet_Pt-250To400_TuneCUETP8M1_13TeV-amcatnlo-pythia8_NOExt/merged/'
p16
ssS'G1Jet_Pt_400To650_NOExt'
p17
(dp18
g8
F3.14
sg9
F0.2326
sg10
F0.007797
sg11
I982900
sg12
S'/G1Jet_Pt-400To650_TuneCUETP8M1_13TeV-amcatnlo-pythia8/RunIISummer16NanoAODv7-PUMoriond17_Nano02Apr2020_102X_mcRun2_asymptotic_v8-v1/NANOAODSIM'
p19
sg14
F91.08
sg15
S'/eos/user/e/ecasilar/SMPVJ_Gamma_BJETS/MC/G1Jet_Pt/GenMatching/G1Jet_Pt-400To650_TuneCUETP8M1_13TeV-amcatnlo-pythia8_NOExt/merged/'
p20
ssS'G1Jet_Pt_100To250_NOExt'
p21
(dp22
g8
F1155.0
sg9
F0.2257
sg10
F4.489
sg11
I998265
sg12
S'/G1Jet_Pt-100To250_TuneCUETP8M1_13TeV-amcatnlo-pythia8/RunIISummer16NanoAODv7-PUMoriond17_Nano02Apr2020_102X_mcRun2_asymptotic_v8-v1/NANOAODSIM'
p23
sg14
F0.2606
sg15
S'/eos/user/e/ecasilar/SMPVJ_Gamma_BJETS/MC/G1Jet_Pt/GenMatching/G1Jet_Pt-100To250_TuneCUETP8M1_13TeV-amcatnlo-pythia8_NOExt/merged/'
p24
ssS'G1Jet_Pt_50To100_NOExt'
p25
(dp26
g8
F13530.0
sg9
F0.2234
sg10
F55.01
sg11
I4962870
sg12
S'/G1Jet_Pt-50To100_TuneCUETP8M1_13TeV-amcatnlo-pythia8/RunIISummer16NanoAODv7-PUMoriond17_Nano02Apr2020_102X_mcRun2_asymptotic_v8-v1/NANOAODSIM'
p27
sg14
F0.02261
sg15
S'/eos/user/e/ecasilar/SMPVJ_Gamma_BJETS/MC/G1Jet_Pt/GenMatching/G1Jet_Pt-50To100_TuneCUETP8M1_13TeV-amcatnlo-pythia8_NOExt/merged/'
p28
ssS'G1Jet_Pt_650ToInf_NOExt'
p29
(dp30
g8
F0.2939
sg9
F0.2172
sg10
F0.0006189
sg11
I961024
sg12
S'/G1Jet_Pt-650ToInf_TuneCUETP8M1_13TeV-amcatnlo-pythia8/RunIISummer16NanoAODv7-PUMoriond17_Nano02Apr2020_102X_mcRun2_asymptotic_v8-v1/NANOAODSIM'
p31
sg14
F1088.0
sg15
S'/eos/user/e/ecasilar/SMPVJ_Gamma_BJETS/MC/G1Jet_Pt/GenMatching/G1Jet_Pt-650ToInf_TuneCUETP8M1_13TeV-amcatnlo-pythia8_NOExt/merged/'
p32
sssS'GJets'
p33
(dp34
g8
F365400.0
sg9
F0.0
sg10
F382.7
sg11
I19794775
sg12
S'/GJet_Pt-15To6000_TuneCUETP8M1-Flat_13TeV_pythia8_20M/RunIISummer16NanoAODv7-PUMoriond17_Nano02Apr2020_102X_mcRun2_asymptotic_v8-v1/NANOAODSIM'
p35
sg14
F0.002737
sg15
S'/eos/user/e/ecasilar/SMPVJ_Gamma_BJETS/MC/GJet_Pt-15To6000_TuneCUETP8M1-Flat_13TeV_pythia8_20M/'
p36
ssS'CR_G1Jet_Pt'
p37
(dp38
g6
(dp39
g8
F25.48
sg9
F0.2331
sg10
F0.07909
sg11
I1000000
sg12
g13
sg14
F11.18
sg15
S'/eos/user/e/ecasilar/SMPVJ_Gamma_BJETS/MC/G1Jet_Pt/High_PT_LooseNotTight/G1Jet_Pt-250To400_TuneCUETP8M1_13TeV-amcatnlo-pythia8_NOExt/'
p40
ssg17
(dp41
g8
F3.14
sg9
F0.2326
sg10
F0.007797
sg11
I982900
sg12
g19
sg14
F91.08
sg15
S'/eos/user/e/ecasilar/SMPVJ_Gamma_BJETS/MC/G1Jet_Pt/High_PT_LooseNotTight/G1Jet_Pt-400To650_TuneCUETP8M1_13TeV-amcatnlo-pythia8_NOExt/'
p42
ssg21
(dp43
g8
F1155.0
sg9
F0.2257
sg10
F4.489
sg11
I998265
sg12
g23
sg14
F0.2606
sg15
S'/eos/user/e/ecasilar/SMPVJ_Gamma_BJETS/MC/G1Jet_Pt/High_PT_LooseNotTight/G1Jet_Pt-100To250_TuneCUETP8M1_13TeV-amcatnlo-pythia8_NOExt/'
p44
ssg25
(dp45
g8
F13530.0
sg9
F0.2234
sg10
F55.01
sg11
I4962870
sg12
g27
sg14
F0.02261
sg15
S'/eos/user/e/ecasilar/SMPVJ_Gamma_BJETS/MC/G1Jet_Pt/High_PT_LooseNotTight/G1Jet_Pt-50To100_TuneCUETP8M1_13TeV-amcatnlo-pythia8_NOExt/'
p46
ssg29
(dp47
g8
F0.2939
sg9
F0.2172
sg10
F0.0006189
sg11
I961024
sg12
g31
sg14
F1088.0
sg15
S'/eos/user/e/ecasilar/SMPVJ_Gamma_BJETS/MC/G1Jet_Pt/High_PT_LooseNotTight/G1Jet_Pt-650ToInf_TuneCUETP8M1_13TeV-amcatnlo-pythia8_NOExt/'
p48
sssS'G1Jet_LHEGpt'
p49
(dp50
S'G1Jet_LHEGpt_250To400_2016'
p51
(dp52
g8
F26.99
sg9
F0.1697
sg10
F0.08345
sg11
I3004010
sg12
S'/G1Jet_LHEGpT-250To400_TuneCP5_13TeV-amcatnlo-pythia8/RunIISummer20UL16NanoAODv9-106X_mcRun2_asymptotic_v17-v1/NANOAODSIM'
p53
sg14
F17.17
sg15
S'/eos/cms/store/group/phys_smp/AnalysisFramework/Baobab/Metin/gammaplusb/2016/UL_MC/G1Jet/G1Jet_LHEGpT-250To400_TuneCP5_13TeV-amcatnlo-pythia8/'
p54
ssS'G1Jet_LHEGpt_400To675_2016'
p55
(dp56
g8
F3.395
sg9
F0.1638
sg10
F0.007753
sg11
I1000053
sg12
S'/G1Jet_LHEGpT-400To675_TuneCP5_13TeV-amcatnlo-pythia8/RunIISummer20UL16NanoAODv9-106X_mcRun2_asymptotic_v17-v1/NANOAODSIM'
p57
sg14
F133.2
sg15
S'/eos/cms/store/group/phys_smp/AnalysisFramework/Baobab/Metin/gammaplusb/2016/UL_MC/G1Jet/G1Jet_LHEGpT-400To675_TuneCP5_13TeV-amcatnlo-pythia8/'
p58
ssS'G1Jet_LHEGpt_150To250_2016'
p59
(dp60
g8
F2262.0
sg9
F0.1738
sg10
F0.6433
sg11
I5862211
sg12
S'/G1Jet_LHEGpT-150To250_TuneCP5_13TeV-amcatnlo-pythia8/RunIISummer20UL16NanoAODv9-106X_mcRun2_asymptotic_v17-v1/NANOAODSIM'
p61
sg14
F1.882
sg15
S'/eos/cms/store/group/phys_smp/AnalysisFramework/Baobab/Metin/gammaplusb/2016/UL_MC/G1Jet/G1Jet_LHEGpT-150To250_TuneCP5_13TeV-amcatnlo-pythia8/'
p62
ssS'G1Jet_LHEGpt_675ToInf_2016'
p63
(dp64
g8
F0.2478
sg9
F0.1584
sg10
F0.0005027
sg11
I249174
sg12
S'/G1Jet_LHEGpT-675ToInf_TuneCP5_13TeV-amcatnlo-pythia8/RunIISummer20UL16NanoAODv9-106X_mcRun2_asymptotic_v17-v1/NANOAODSIM'
p65
sg14
F1883.0
sg15
S'/eos/cms/store/group/phys_smp/AnalysisFramework/Baobab/Metin/gammaplusb/2016/UL_MC/G1Jet/G1Jet_LHEGpT-675ToInf_TuneCP5_13TeV-amcatnlo-pythia8/'
p66
sssS'GJets_Pt'
p67
(dp68
S'GJets_Pt_100To200'
p69
(dp70
g8
F1032.0
sg9
F0.01085
sg10
F7.109
sg11
I498029
sg12
S'/GJets_Pt-100To200_13TeV-sherpa/RunIISummer16NanoAODv7-PUMoriond17_Nano02Apr2020_102X_mcRun2_asymptotic_v8-v1/NANOAODSIM'
p71
sg14
F0.9342
sg15
S'/eos/user/e/ecasilar/SMPVJ_Gamma_BJETS/MC/GJets_Pt-100To200_13TeV-sherpa/'
p72
ssS'GJets_Pt_1000To2000'
p73
(dp74
g8
F0.02092
sg9
F0.01466
sg10
F0.0001703
sg11
I399578
sg12
S'/GJets_Pt-1000To2000_13TeV-sherpa/RunIISummer16NanoAODv7-PUMoriond17_Nano02Apr2020_102X_mcRun2_asymptotic_v8-v1/NANOAODSIM'
p75
sg14
F45040.0
sg15
S'/eos/user/e/ecasilar/SMPVJ_Gamma_BJETS/MC/GJets_Pt-1000To2000_13TeV-sherpa/'
p76
ssS'GJets_Pt_20To100'
p77
(dp78
g8
F137800.0
sg9
F0.01828
sg10
F7.109
sg11
I498342
sg12
S'/GJets_Pt-20To100_13TeV-sherpa/RunIISummer16NanoAODv7-PUMoriond17_Nano02Apr2020_102X_mcRun2_asymptotic_v8-v1/NANOAODSIM'
p79
sg14
F0.006737
sg15
S'/eos/user/e/ecasilar/SMPVJ_Gamma_BJETS/MC/GJets_Pt-20To100_13TeV-sherpa/'
p80
ssS'GJets_Pt_2000To5000'
p81
(dp82
g8
F7.451e-05
sg9
F0.1247
sg10
F7.843e-07
sg11
I299739
sg12
S'/GJets_Pt-2000To5000_13TeV-sherpa/RunIISummer16NanoAODv7-PUMoriond17_Nano02Apr2020_102X_mcRun2_asymptotic_v8-v1/NANOAODSIM'
p83
sg14
F7537000.0
sg15
S'/eos/user/e/ecasilar/SMPVJ_Gamma_BJETS/MC/GJets_Pt-2000To5000_13TeV-sherpa/'
p84
ssS'GJets_Pt_500To1000'
p85
(dp86
g8
F0.9904
sg9
F0.01163
sg10
F0.00919
sg11
I484865
sg12
S'/GJets_Pt-500To1000_13TeV-sherpa/RunIISummer16NanoAODv7-PUMoriond17_Nano02Apr2020_102X_mcRun2_asymptotic_v8-v1/NANOAODSIM'
p87
sg14
F940.6
sg15
S'/eos/user/e/ecasilar/SMPVJ_Gamma_BJETS/MC/GJets_Pt-500To1000_13TeV-sherpa/'
p88
ssS'GJets_Pt_200To500'
p89
(dp90
g8
F70.15
sg9
F0.01032
sg10
F0.6311
sg11
I476434
sg12
S'/GJets_Pt-200To500_13TeV-sherpa/RunIISummer16NanoAODv7-PUMoriond17_Nano02Apr2020_102X_mcRun2_asymptotic_v8-v1/NANOAODSIM'
p91
sg14
F13.97
sg15
S'/eos/user/e/ecasilar/SMPVJ_Gamma_BJETS/MC/GJets_Pt-200To500_13TeV-sherpa/'
p92
sssS'GJets_HT'
p93
(dp94
S'GJets_HT_400To600'
p95
(dp96
g8
F274.4
sg9
F0.0
sg10
F0.8368
sg11
I2530341
sg12
S'/GJets_HT-400To600_TuneCUETP8M1_13TeV-madgraphMLM-pythia8/RunIISummer16NanoAODv7-PUMoriond17_Nano02Apr2020_102X_mcRun2_asymptotic_v8_ext1-v1/NANOAODSIM'
p97
sg14
F3.612
sg15
S'/eos/user/e/ecasilar/SMPVJ_Gamma_BJETS/MC/GJets_HT-400To600_TuneCUETP8M1_13TeV-madgraphMLM-pythia8/'
p98
ssS'GJets_HT_200To400'
p99
(dp100
g8
F2305.0
sg9
F0.0
sg10
F6.945
sg11
I10404907
sg12
S'/GJets_HT-200To400_TuneCUETP8M1_13TeV-madgraphMLM-pythia8/RunIISummer16NanoAODv7-PUMoriond17_Nano02Apr2020_102X_mcRun2_asymptotic_v8_ext1-v1/NANOAODSIM'
p101
sg14
F0.4316
sg15
S'/eos/user/e/ecasilar/SMPVJ_Gamma_BJETS/MC/GJets_HT-200To400_TuneCUETP8M1_13TeV-madgraphMLM-pythia8/'
p102
ssS'GJets_HT_100To200'
p103
(dp104
g8
F9238.0
sg9
F0.0
sg10
F27.11
sg11
I4972282
sg12
S'/GJets_HT-100To200_TuneCUETP8M1_13TeV-madgraphMLM-pythia8/RunIISummer16NanoAODv7-PUMoriond17_Nano02Apr2020_102X_mcRun2_asymptotic_v8_ext1-v1/NANOAODSIM'
p105
sg14
F0.1087
sg15
S'/eos/user/e/ecasilar/SMPVJ_Gamma_BJETS/MC/GJets_HT-100To200_TuneCUETP8M1_13TeV-madgraphMLM-pythia8/'
p106
ssS'GJets_HT_600ToInf'
p107
(dp108
g8
F93.46
sg9
F0.0
sg10
F0.2861
sg11
I2616911
sg12
S'/GJets_HT-600ToInf_TuneCUETP8M1_13TeV-madgraphMLM-pythia8/RunIISummer16NanoAODv7-PUMoriond17_Nano02Apr2020_102X_mcRun2_asymptotic_v8_ext1-v1/NANOAODSIM'
p109
sg14
F10.61
sg15
S'/eos/user/e/ecasilar/SMPVJ_Gamma_BJETS/MC/GJets_HT-600ToInf_TuneCUETP8M1_13TeV-madgraphMLM-pythia8/'
p110
ssS'GJets_HT_40To100'
p111
(dp112
g8
F20790.0
sg9
F0.0
sg10
F59.82
sg11
I4858154
sg12
S'/GJets_HT-40To100_TuneCUETP8M1_13TeV-madgraphMLM-pythia8/RunIISummer16NanoAODv7-PUMoriond17_Nano02Apr2020_102X_mcRun2_asymptotic_v8_ext1-v1/NANOAODSIM'
p113
sg14
F0.04811
sg15
S'/eos/user/e/ecasilar/SMPVJ_Gamma_BJETS/MC/GJets_HT-40To100_TuneCUETP8M1_13TeV-madgraphMLM-pythia8/'
p114
ssssS'bkg'
p115
(dp116
S'CR_QCD_HT'
p117
(dp118
S'QCD_HT_1500To2000'
p119
(dp120
g8
F119.9
sg9
F0.0
sg10
F0.1159
sg11
I7868538
sg12
S'/QCD_HT1500to2000_TuneCUETP8M1_13TeV-madgraphMLM-pythia8/RunIISummer16NanoAODv7-PUMoriond17_Nano02Apr2020_102X_mcRun2_asymptotic_v8_ext1-v1/NANOAODSIM'
p121
sg14
F8.335
sg15
S'/eos/user/e/ecasilar/SMPVJ_Gamma_BJETS/MC/QCD_HT/High_PT_LooseNotTight/QCD_HT1500to2000_TuneCUETP8M1_13TeV-madgraphMLM-pythia8/'
p122
ssS'QCD_HT_200To300'
p123
(dp124
g8
F1712000.0
sg9
F0.0
sg10
F1626.0
sg11
I38857977
sg12
S'/QCD_HT200to300_TuneCUETP8M1_13TeV-madgraphMLM-pythia8/RunIISummer16NanoAODv7-PUMoriond17_Nano02Apr2020_102X_mcRun2_asymptotic_v8_ext1-v1/NANOAODSIM'
p125
sg14
F0.0005846
sg15
S'/eos/user/e/ecasilar/SMPVJ_Gamma_BJETS/MC/QCD_HT/High_PT_LooseNotTight/QCD_HT200to300_TuneCUETP8M1_13TeV-madgraphMLM-pythia8/'
p126
ssS'QCD_HT_2000ToInf'
p127
(dp128
g8
F25.24
sg9
F0.0
sg10
F0.02437
sg11
I3812534
sg12
S'/QCD_HT2000toInf_TuneCUETP8M1_13TeV-madgraphMLM-pythia8/RunIISummer16NanoAODv7-PUMoriond17_Nano02Apr2020_102X_mcRun2_asymptotic_v8_ext1-v1/NANOAODSIM'
p129
sg14
F39.6
sg15
S'/eos/user/e/ecasilar/SMPVJ_Gamma_BJETS/MC/QCD_HT/High_PT_LooseNotTight/QCD_HT2000toInf_TuneCUETP8M1_13TeV-madgraphMLM-pythia8/'
p130
ssS'QCD_HT_700To1000'
p131
(dp132
g8
F6831.0
sg9
F0.0
sg10
F6.593
sg11
I21604533
sg12
S'/QCD_HT700to1000_TuneCUETP8M1_13TeV-madgraphMLM-pythia8/RunIISummer16NanoAODv7-PUMoriond17_Nano02Apr2020_102X_mcRun2_asymptotic_v8_ext1-v1/NANOAODSIM'
p133
sg14
F0.1464
sg15
S'/eos/user/e/ecasilar/SMPVJ_Gamma_BJETS/MC/QCD_HT/High_PT_LooseNotTight/QCD_HT700to1000_TuneCUETP8M1_13TeV-madgraphMLM-pythia8/'
p134
ssS'QCD_HT_100To200'
p135
(dp136
g8
F27990000.0
sg9
F0.0
sg10
F26130.0
sg11
I82293477
sg12
S'/QCD_HT100to200_TuneCUETP8M1_13TeV-madgraphMLM-pythia8/RunIISummer16NanoAODv7-PUMoriond17_Nano02Apr2020_102X_mcRun2_asymptotic_v8-v1/NANOAODSIM'
p137
sg14
F3.564e-05
sg15
S'/eos/user/e/ecasilar/SMPVJ_Gamma_BJETS/MC/QCD_HT/High_PT_LooseNotTight/QCD_HT100to200_TuneCUETP8M1_13TeV-madgraphMLM-pythia8/'
p138
ssS'QCD_HT_300To500'
p139
(dp140
g8
F347700.0
sg9
F0.0
sg10
F332.9
sg11
I37516961
sg12
S'/QCD_HT300to500_TuneCUETP8M1_13TeV-madgraphMLM-pythia8/RunIISummer16NanoAODv7-PUMoriond17_Nano02Apr2020_102X_mcRun2_asymptotic_v8_ext1-v1/NANOAODSIM'
p141
sg14
F0.002878
sg15
S'/eos/user/e/ecasilar/SMPVJ_Gamma_BJETS/MC/QCD_HT/High_PT_LooseNotTight/QCD_HT300to500_TuneCUETP8M1_13TeV-madgraphMLM-pythia8/'
p142
ssS'QCD_HT_50To100'
p143
(dp144
g8
F246400000.0
sg9
F0.0
sg10
F218700.0
sg11
I4180469
sg12
S'/QCD_HT50to100_TuneCUETP8M1_13TeV-madgraphMLM-pythia8/RunIISummer16NanoAODv7-PUMoriond17_Nano02Apr2020_102X_mcRun2_asymptotic_v8-v1/NANOAODSIM'
p145
sg14
F4.061e-06
sg15
S'/eos/user/e/ecasilar/SMPVJ_Gamma_BJETS/MC/QCD_HT/High_PT_LooseNotTight/QCD_HT50to100_TuneCUETP8M1_13TeV-madgraphMLM-pythia8/'
p146
ssS'QCD_HT_500To700'
p147
(dp148
g8
F32100.0
sg9
F0.0
sg10
F30.88
sg11
I44061488
sg12
S'/QCD_HT500to700_TuneCUETP8M1_13TeV-madgraphMLM-pythia8/RunIISummer16NanoAODv7-PUMoriond17_Nano02Apr2020_102X_mcRun2_asymptotic_v8_ext1-v1/NANOAODSIM'
p149
sg14
F0.03119
sg15
S'/eos/user/e/ecasilar/SMPVJ_Gamma_BJETS/MC/QCD_HT/High_PT_LooseNotTight/QCD_HT500to700_TuneCUETP8M1_13TeV-madgraphMLM-pythia8/'
p150
ssS'QCD_HT_1000To1500'
p151
(dp152
g8
F1207.0
sg9
F0.0
sg10
F1.166
sg11
I10360193
sg12
S'/QCD_HT1000to1500_TuneCUETP8M1_13TeV-madgraphMLM-pythia8/RunIISummer16NanoAODv7-PUMoriond17_Nano02Apr2020_102X_mcRun2_asymptotic_v8_ext1-v1/NANOAODSIM'
p153
sg14
F0.8285
sg15
S'/eos/user/e/ecasilar/SMPVJ_Gamma_BJETS/MC/QCD_HT/High_PT_LooseNotTight/QCD_HT1000to1500_TuneCUETP8M1_13TeV-madgraphMLM-pythia8/'
p154
sssS'QCD'
p155
(dp156
g8
F1370000000.0
sg9
F0.0
sg10
F2159000.0
sg11
I9879256
sg12
S'/QCD_Pt-15to7000_TuneCUETP8M1_FlatP6_13TeV_pythia8/RunIISummer16NanoAODv7-PUMoriond17_Nano02Apr2020_102X_mcRun2_asymptotic_v8-v1/NANOAODSIM'
p157
sg14
F7.301e-07
sg15
S'/eos/user/e/ecasilar/SMPVJ_Gamma_BJETS/MC/QCD_Pt-15to7000_TuneCUETP8M1_FlatP6_13TeV_pythia8/'
p158
ssS'TTGJets'
p159
(dp160
g8
F3.795
sg9
F0.3381
sg10
F0.02629
sg11
I9877942
sg12
S'/TTGJets_TuneCP5_13TeV-amcatnloFXFX-madspin-pythia8/RunIIFall17NanoAODv7-PU2017_12Apr2018_Nano02Apr2020_102X_mc2017_realistic_v8_ext1-v1/NANOAODSIM'
p161
sg14
F27.63
sg15
S'/eos/user/e/ecasilar/SMPVJ_Gamma_BJETS/MC/TTGJets_TuneCUETP8M1_13TeV-amcatnloFXFX-madspin-pythia8/'
p162
ssS'QCD_HT_UL2016'
p163
(dp164
S'QCD_HT_UL2016_300To500'
p165
(dp166
g8
F324500.0
sg9
F0.0
sg10
F75.53
sg11
I16747056
sg12
S'/QCD_HT300to500_TuneCP5_PSWeights_13TeV-madgraph-pythia8/RunIISummer20UL16NanoAODv9-106X_mcRun2_asymptotic_v17-v1/NANOAODSIM'
p167
sg14
F0.003082
sg15
S'/eos/cms/store/group/phys_smp/AnalysisFramework/Baobab/Metin/gammaplusb/2016/UL_MC/QCD_HT/QCD_HT300to500_TuneCP5_PSWeights_13TeV-madgraph-pythia8/'
p168
ssS'QCD_HT_UL2016_200To300'
p169
(dp170
g8
F1553000.0
sg9
F0.0
sg10
F349.9
sg11
I17569141
sg12
S'/QCD_HT200to300_TuneCP5_PSWeights_13TeV-madgraph-pythia8/RunIISummer20UL16NanoAODv9-106X_mcRun2_asymptotic_v17-v1/NANOAODSIM'
p171
sg14
F0.000644
sg15
S'/eos/cms/store/group/phys_smp/AnalysisFramework/Baobab/Metin/gammaplusb/2016/UL_MC/QCD_HT/QCD_HT200to300_TuneCP5_PSWeights_13TeV-madgraph-pythia8/'
p172
ssS'QCD_HT_UL2016_2000ToInf'
p173
(dp174
g8
F22.04
sg9
F0.0
sg10
F0.0156
sg11
I1847781
sg12
S'/QCD_HT2000toInf_TuneCP5_PSWeights_13TeV-madgraph-pythia8/RunIISummer20UL16NanoAODv9-106X_mcRun2_asymptotic_v17-v1/NANOAODSIM'
p175
sg14
F45.38
sg15
S'/eos/cms/store/group/phys_smp/AnalysisFramework/Baobab/Metin/gammaplusb/2016/UL_MC/QCD_HT/QCD_HT2000toInf_TuneCP5_PSWeights_13TeV-madgraph-pythia8/'
p176
ssS'QCD_HT_UL2016_1500To2000'
p177
(dp178
g8
F108.3
sg9
F0.0
sg10
F0.05823
sg11
I3003707
sg12
S'/QCD_HT1500to2000_TuneCP5_PSWeights_13TeV-madgraph-pythia8/RunIISummer20UL16NanoAODv9-106X_mcRun2_asymptotic_v17-v1/NANOAODSIM'
p179
sg14
F9.23
sg15
S'/eos/cms/store/group/phys_smp/AnalysisFramework/Baobab/Metin/gammaplusb/2016/UL_MC/QCD_HT/QCD_HT1500to2000_TuneCP5_PSWeights_13TeV-madgraph-pythia8/'
p180
ssS'QCD_HT_UL2016_50To100'
p181
(dp182
g8
F186000000.0
sg9
F0.0
sg10
F48970.0
sg11
I11197186
sg12
S'/QCD_HT50to100_TuneCP5_PSWeights_13TeV-madgraph-pythia8/RunIISummer20UL16NanoAODv9-106X_mcRun2_asymptotic_v17-v1/NANOAODSIM'
p183
sg14
F5.377e-06
sg15
S'/eos/cms/store/group/phys_smp/AnalysisFramework/Baobab/Metin/gammaplusb/2016/UL_MC/QCD_HT/QCD_HT50to100_TuneCP5_PSWeights_13TeV-madgraph-pythia8/'
p184
ssS'QCD_HT_UL2016_700To1000'
p185
(dp186
g8
F6437.0
sg9
F0.0
sg10
F1.658
sg11
I13750537
sg12
S'/QCD_HT700to1000_TuneCP5_PSWeights_13TeV-madgraph-pythia8/RunIISummer20UL16NanoAODv9-106X_mcRun2_asymptotic_v17-v1/NANOAODSIM'
p187
sg14
F0.1554
sg15
S'/eos/cms/store/group/phys_smp/AnalysisFramework/Baobab/Metin/gammaplusb/2016/UL_MC/QCD_HT/QCD_HT700to1000_TuneCP5_PSWeights_13TeV-madgraph-pythia8/'
p188
ssS'QCD_HT_UL2016_1000To1500'
p189
(dp190
g8
F1122.0
sg9
F0.0
sg10
F0.5173
sg11
I4365993
sg12
S'/QCD_HT1000to1500_TuneCP5_PSWeights_13TeV-madgraph-pythia8/RunIISummer20UL16NanoAODv9-106X_mcRun2_asymptotic_v17-v1/NANOAODSIM'
p191
sg14
F0.8911
sg15
S'/eos/cms/store/group/phys_smp/AnalysisFramework/Baobab/Metin/gammaplusb/2016/UL_MC/QCD_HT/QCD_HT1000to1500_TuneCP5_PSWeights_13TeV-madgraph-pythia8/'
p192
ssS'QCD_HT_UL2016_500To700'
p193
(dp194
g8
F30280.0
sg9
F0.0
sg10
F7.439
sg11
I14212819
sg12
S'/QCD_HT500to700_TuneCP5_PSWeights_13TeV-madgraph-pythia8/RunIISummer20UL16NanoAODv9-106X_mcRun2_asymptotic_v17-v1/NANOAODSIM'
p195
sg14
F0.03303
sg15
S'/eos/cms/store/group/phys_smp/AnalysisFramework/Baobab/Metin/gammaplusb/2016/UL_MC/QCD_HT/QCD_HT500to700_TuneCP5_PSWeights_13TeV-madgraph-pythia8/'
p196
ssS'QCD_HT_UL2016_100To200'
p197
(dp198
g8
F23650000.0
sg9
F0.0
sg10
F4467.0
sg11
I23717410
sg12
S'/QCD_HT100to200_TuneCP5_PSWeights_13TeV-madgraph-pythia8/RunIISummer20UL16NanoAODv9-106X_mcRun2_asymptotic_v17-v1/NANOAODSIM'
p199
sg14
F4.229e-05
sg15
S'/eos/cms/store/group/phys_smp/AnalysisFramework/Baobab/Metin/gammaplusb/2016/UL_MC/QCD_HT/QCD_HT100to200_TuneCP5_PSWeights_13TeV-madgraph-pythia8/'
p200
sssS'ST_t_channel_top'
p201
(dp202
g8
F136.82
sg9
F0.0
sg10
F0.0
sg11
I58403420
sg12
S'/ST_t-channel_top_4f_inclusiveDecays_13TeV-powhegV2-madspin-pythia8_TuneCUETP8M1/RunIISummer16NanoAODv7-PUMoriond17_Nano02Apr2020_102X_mcRun2_asymptotic_v8-v2/NANOAODSIM'
p203
sg14
F0.0
sg15
S'/eos/user/e/ecasilar/SMPVJ_Gamma_BJETS/MC/ST_t-channel_top_4f_inclusiveDecays_13TeV-powhegV2-madspin-pythia8_TuneCUETP8M1/'
p204
ssS'ST_t_channel_antitop'
p205
(dp206
g8
F81.42
sg9
F0.0
sg10
F0.0
sg11
I38811017
sg12
S'/ST_t-channel_antitop_4f_inclusiveDecays_13TeV-powhegV2-madspin-pythia8_TuneCUETP8M1/RunIISummer16NanoAODv7-PUMoriond17_Nano02Apr2020_102X_mcRun2_asymptotic_v8-v1/NANOAODSIM'
p207
sg14
F0.0
sg15
S'/eos/user/e/ecasilar/SMPVJ_Gamma_BJETS/MC/ST_t-channel_antitop_4f_inclusiveDecays_13TeV-powhegV2-madspin-pythia8_TuneCUETP8M1/'
p208
ssS'TGJets'
p209
(dp210
g8
F2.967
sg9
F0.4008
sg10
F0.01052
sg11
I1556996
sg12
S'/TGJets_TuneCP5_13TeV_amcatnlo_madspin_pythia8/RunIIFall17NanoAODv7-PU2017_12Apr2018_Nano02Apr2020_102X_mc2017_realistic_v8-v1/NANOAODSIM'
p211
sg14
F13.27
sg15
S'/eos/user/e/ecasilar/SMPVJ_Gamma_BJETS/MC/TGJets_TuneCUETP8M1_13TeV_amcatnlo_madspin_pythia8/'
p212
ssS'ST_tW_antitop'
p213
(dp214
g8
F38.06
sg9
F0.0
sg10
F0.03055
sg11
I6933094
sg12
S'/ST_tW_antitop_5f_inclusiveDecays_13TeV-powheg-pythia8_TuneCUETP8M1/RunIISummer16NanoAODv7-PUMoriond17_Nano02Apr2020_102X_mcRun2_asymptotic_v8_ext1-v1/NANOAODSIM'
p215
sg14
F26.27
sg15
S'/eos/user/e/ecasilar/SMPVJ_Gamma_BJETS/MC/ST_tW_antitop_5f_inclusiveDecays_13TeV-powheg-pythia8_TuneCUETP8M1/'
p216
ssS'QCD_HT'
p217
(dp218
g119
(dp219
g8
F119.9
sg9
F0.0
sg10
F0.1159
sg11
I7868538
sg12
g121
sg14
F8.335
sg15
S'/eos/user/e/ecasilar/SMPVJ_Gamma_BJETS/MC/QCD_HT/GenMatching/QCD_HT1500to2000_TuneCUETP8M1_13TeV-madgraphMLM-pythia8/merged/'
p220
ssg123
(dp221
g8
F1712000.0
sg9
F0.0
sg10
F1626.0
sg11
I38857977
sg12
g125
sg14
F0.0005846
sg15
S'/eos/user/e/ecasilar/SMPVJ_Gamma_BJETS/MC/QCD_HT/GenMatching/QCD_HT200to300_TuneCUETP8M1_13TeV-madgraphMLM-pythia8/merged/'
p222
ssg127
(dp223
g8
F25.24
sg9
F0.0
sg10
F0.02437
sg11
I3812534
sg12
g129
sg14
F39.6
sg15
S'/eos/user/e/ecasilar/SMPVJ_Gamma_BJETS/MC/QCD_HT/GenMatching/QCD_HT2000toInf_TuneCUETP8M1_13TeV-madgraphMLM-pythia8/merged/'
p224
ssg131
(dp225
g8
F6831.0
sg9
F0.0
sg10
F6.593
sg11
I21604533
sg12
g133
sg14
F0.1464
sg15
S'/eos/user/e/ecasilar/SMPVJ_Gamma_BJETS/MC/QCD_HT/GenMatching/QCD_HT700to1000_TuneCUETP8M1_13TeV-madgraphMLM-pythia8/merged/'
p226
ssg135
(dp227
g8
F27990000.0
sg9
F0.0
sg10
F26130.0
sg11
I82293477
sg12
g137
sg14
F3.564e-05
sg15
S'/eos/user/e/ecasilar/SMPVJ_Gamma_BJETS/MC/QCD_HT/GenMatching/QCD_HT100to200_TuneCUETP8M1_13TeV-madgraphMLM-pythia8/merged/'
p228
ssg139
(dp229
g8
F347700.0
sg9
F0.0
sg10
F332.9
sg11
I37516961
sg12
g141
sg14
F0.002878
sg15
S'/eos/user/e/ecasilar/SMPVJ_Gamma_BJETS/MC/QCD_HT/GenMatching/QCD_HT300to500_TuneCUETP8M1_13TeV-madgraphMLM-pythia8/merged/'
p230
ssg143
(dp231
g8
F246400000.0
sg9
F0.0
sg10
F218700.0
sg11
I4180469
sg12
g145
sg14
F4.061e-06
sg15
S'/eos/user/e/ecasilar/SMPVJ_Gamma_BJETS/MC/QCD_HT/GenMatching/QCD_HT50to100_TuneCUETP8M1_13TeV-madgraphMLM-pythia8/merged/'
p232
ssg147
(dp233
g8
F32100.0
sg9
F0.0
sg10
F30.88
sg11
I44061488
sg12
g149
sg14
F0.03119
sg15
S'/eos/user/e/ecasilar/SMPVJ_Gamma_BJETS/MC/QCD_HT/GenMatching/QCD_HT500to700_TuneCUETP8M1_13TeV-madgraphMLM-pythia8/merged/'
p234
ssg151
(dp235
g8
F1207.0
sg9
F0.0
sg10
F1.166
sg11
I10360193
sg12
g153
sg14
F0.8285
sg15
S'/eos/user/e/ecasilar/SMPVJ_Gamma_BJETS/MC/QCD_HT/GenMatching/QCD_HT1000to1500_TuneCUETP8M1_13TeV-madgraphMLM-pythia8/merged/'
p236
sssS'TTJets'
p237
(dp238
g8
F511.3
sg9
F0.0
sg10
F1.412
sg11
I10199051
sg12
S'/TTJets_TuneCUETP8M1_13TeV-madgraphMLM-pythia8/RunIISummer16NanoAODv7-PUMoriond17_Nano02Apr2020_102X_mcRun2_asymptotic_v8-v1/NANOAODSIM'
p239
sg14
F1.956
sg15
S'/eos/user/e/ecasilar/SMPVJ_Gamma_BJETS/MC/TTJets_TuneCUETP8M1_13TeV-madgraphMLM-pythia8/'
p240
ssS'ST_s_channel'
p241
(dp242
g8
F10.12
sg9
F0.1857
sg10
F0.01334
sg11
I2917199
sg12
S'/ST_s-channel_4f_InclusiveDecays_13TeV-amcatnlo-pythia8/RunIISummer16NanoAODv7-PUMoriond17_Nano02Apr2020_102X_mcRun2_asymptotic_v8-v1/NANOAODSIM'
p243
sg14
F39.05
sg15
S'/eos/user/e/ecasilar/SMPVJ_Gamma_BJETS/MC/ST_s-channel_4f_InclusiveDecays_13TeV-amcatnlo-pythia8/'
p244
ssS'QCD_h1'
p245
(dp246
g8
F964800.0
sg9
F0.0
sg10
F92360.0
sg11
I9497268
sg12
S'/QCD_Pt-15to7000_TuneCUETHS1_FlatP6_13TeV_herwigpp/RunIISummer16NanoAODv7-PUMoriond17_Nano02Apr2020_102X_mcRun2_asymptotic_v8-v1/NANOAODSIM'
p247
sg14
F7.301e-07
sg15
S'/eos/user/e/ecasilar/SMPVJ_Gamma_BJETS/MC/QCD_Pt-15to7000_TuneCUETHS1_FlatP6_13TeV_herwigpp/'
p248
ssS'QCD_h2'
p249
(dp250
g8
F309800000.0
sg9
F0.0
sg10
F7932000.0
sg11
I9865688
sg12
S'/QCD_Pt-15to7000_TuneCUETHS1_Flat_13TeV_herwigpp/RunIISummer16NanoAODv7-PUMoriond17_Nano02Apr2020_102X_mcRun2_asymptotic_v8-v1/NANOAODSIM'
p251
sg14
F7.301e-07
sg15
S'/eos/user/e/ecasilar/SMPVJ_Gamma_BJETS/MC/QCD_Pt-15to7000_TuneCUETHS1_Flat_13TeV_herwigpp/'
p252
ssS'ST_tW_top'
p253
(dp254
g8
F38.09
sg9
F0.0
sg10
F0.0305
sg11
I6952830
sg12
S'/ST_tW_top_5f_inclusiveDecays_13TeV-powheg-pythia8_TuneCUETP8M1/RunIISummer16NanoAODv7-PUMoriond17_Nano02Apr2020_102X_mcRun2_asymptotic_v8_ext1-v1/NANOAODSIM'
p255
sg14
F26.25
sg15
S'/eos/user/e/ecasilar/SMPVJ_Gamma_BJETS/MC/ST_tW_top_5f_inclusiveDecays_13TeV-powheg-pythia8_TuneCUETP8M1/'
p256
sssS'data'
p257
(dp258
S'SinglePhoton_merged'
p259
(dp260
S'C'
p261
(dp262
g8
I1
sg9
F0.0
sg10
I1
sg15
S'/eos/user/m/myalvac/GPlusBJets/Run2016C_02Apr2020-v1/merged_HLT_120/'
p263
sg14
I1
sg12
S'/SinglePhoton/Run2016C-02Apr2020-v1/NANOAOD'
p264
ssS'B'
p265
(dp266
g8
I1
sg9
F0.0
sg10
I1
sg15
S'/eos/user/m/myalvac/GPlusBJets/Run2016B_02Apr2020-v1/merged_HLT_120/'
p267
sg14
I1
sg12
S'/SinglePhoton/Run2016B-02Apr2020_ver2-v1/NANOAOD'
p268
ssS'E'
p269
(dp270
g8
I1
sg9
F0.0
sg10
I1
sg15
S'/eos/user/m/myalvac/GPlusBJets/Run2016E_02Apr2020-v1/merged_HLT_120/'
p271
sg14
I1
sg12
S'/SinglePhoton/Run2016E-02Apr2020-v1/NANOAOD'
p272
ssS'D'
p273
(dp274
g8
I1
sg9
F0.0
sg10
I1
sg15
S'/eos/user/m/myalvac/GPlusBJets/Run2016D_02Apr2020-v1/merged_HLT_120/'
p275
sg14
I1
sg12
S'/SinglePhoton/Run2016D-02Apr2020-v1/NANOAOD'
p276
ssS'G'
p277
(dp278
g8
I1
sg9
F0.0
sg10
I1
sg15
S'/eos/user/m/myalvac/GPlusBJets/Run2016G_02Apr2020-v1/merged_HLT_120/'
p279
sg14
I1
sg12
S'/SinglePhoton/Run2016G-02Apr2020-v1/NANOAOD'
p280
ssS'F'
p281
(dp282
g8
I1
sg9
F0.0
sg10
I1
sg15
S'/eos/user/m/myalvac/GPlusBJets/Run2016F_02Apr2020-v1/merged_HLT_120/'
p283
sg14
I1
sg12
S'/SinglePhoton/Run2016F-02Apr2020-v1/NANOAOD'
p284
ssS'H'
p285
(dp286
g8
I1
sg9
F0.0
sg10
I1
sg15
S'/eos/user/m/myalvac/GPlusBJets/Run2016H_02Apr2020-v1/merged_HLT_120/'
p287
sg14
I1
sg12
S'/SinglePhoton/Run2016H-02Apr2020-v1/NANOAOD'
p288
sssS'SinglePhoton_36_NoDC_L1'
p289
(dp290
g261
(dp291
g8
I1
sg9
F0.0
sg10
I1
sg15
S'/eos/user/m/myalvac/GPlusBJets/HLT_36_L1_Prescaled/L1_Prescaled/data/2016/SinglePhoton_36_NoDoubleCount/Low_PT/Run2016C_02Apr2020-v1/'
p292
sg14
I1
sg12
g264
ssg265
(dp293
g8
I1
sg9
F0.0
sg10
I1
sg15
S'/eos/user/m/myalvac/GPlusBJets/HLT_36_L1_Prescaled/L1_Prescaled/data/2016/SinglePhoton_36_NoDoubleCount/Low_PT/Run2016B_02Apr2020-v1/'
p294
sg14
I1
sg12
g268
ssg269
(dp295
g8
I1
sg9
F0.0
sg10
I1
sg15
S'/eos/user/m/myalvac/GPlusBJets/HLT_36_L1_Prescaled/L1_Prescaled/data/2016/SinglePhoton_36_NoDoubleCount/Low_PT/Run2016E_02Apr2020-v1/'
p296
sg14
I1
sg12
g272
ssg273
(dp297
g8
I1
sg9
F0.0
sg10
I1
sg15
S'/eos/user/m/myalvac/GPlusBJets/HLT_36_L1_Prescaled/L1_Prescaled/data/2016/SinglePhoton_36_NoDoubleCount/Low_PT/Run2016D_02Apr2020-v1/'
p298
sg14
I1
sg12
g276
ssg277
(dp299
g8
I1
sg9
F0.0
sg10
I1
sg15
S'/eos/user/m/myalvac/GPlusBJets/HLT_36_L1_Prescaled/L1_Prescaled/data/2016/SinglePhoton_36_NoDoubleCount/Low_PT/Run2016G_02Apr2020-v1/'
p300
sg14
I1
sg12
g280
ssg281
(dp301
g8
I1
sg9
F0.0
sg10
I1
sg15
S'/eos/user/m/myalvac/GPlusBJets/HLT_36_L1_Prescaled/L1_Prescaled/data/2016/SinglePhoton_36_NoDoubleCount/Low_PT/Run2016F_02Apr2020-v1/'
p302
sg14
I1
sg12
g284
ssg285
(dp303
g8
I1
sg9
F0.0
sg10
I1
sg15
S'/eos/user/m/myalvac/GPlusBJets/HLT_36_L1_Prescaled/L1_Prescaled/data/2016/SinglePhoton_36_NoDoubleCount/Low_PT/Run2016H_02Apr2020-v1/'
p304
sg14
I1
sg12
g288
sssS'CR_SinglePhoton'
p305
(dp306
g261
(dp307
g8
I1
sg9
F0.0
sg10
I1
sg15
S'/eos/user/e/ecasilar/SMPVJ_Gamma_BJETS//data/2016/SinglePhoton/High_PT_LooseNotTight/Run2016C_02Apr2020-v1/merged/'
p308
sg14
I1
sg12
g264
ssg265
(dp309
g8
I1
sg9
F0.0
sg10
I1
sg15
S'/eos/user/e/ecasilar/SMPVJ_Gamma_BJETS//data/2016/SinglePhoton/High_PT_LooseNotTight/Run2016B_02Apr2020-v1/merged/'
p310
sg14
I1
sg12
g268
ssg269
(dp311
g8
I1
sg9
F0.0
sg10
I1
sg15
S'/eos/user/e/ecasilar/SMPVJ_Gamma_BJETS//data/2016/SinglePhoton/High_PT_LooseNotTight/Run2016E_02Apr2020-v1/merged/'
p312
sg14
I1
sg12
g272
ssg273
(dp313
g8
I1
sg9
F0.0
sg10
I1
sg15
S'/eos/user/e/ecasilar/SMPVJ_Gamma_BJETS//data/2016/SinglePhoton/High_PT_LooseNotTight/Run2016D_02Apr2020-v1/merged/'
p314
sg14
I1
sg12
g276
ssg277
(dp315
g8
I1
sg9
F0.0
sg10
I1
sg15
S'/eos/user/e/ecasilar/SMPVJ_Gamma_BJETS//data/2016/SinglePhoton/High_PT_LooseNotTight/Run2016G_02Apr2020-v1/merged/'
p316
sg14
I1
sg12
g280
ssg281
(dp317
g8
I1
sg9
F0.0
sg10
I1
sg15
S'/eos/user/e/ecasilar/SMPVJ_Gamma_BJETS//data/2016/SinglePhoton/High_PT_LooseNotTight/Run2016F_02Apr2020-v1/merged/'
p318
sg14
I1
sg12
g284
ssg285
(dp319
g8
I1
sg9
F0.0
sg10
I1
sg15
S'/eos/user/e/ecasilar/SMPVJ_Gamma_BJETS//data/2016/SinglePhoton/High_PT_LooseNotTight/Run2016H_02Apr2020-v1/merged/'
p320
sg14
I1
sg12
g288
sssS'SinglePhoton_UL'
p321
(dp322
S'F_noHIPM'
p323
(dp324
g8
I1
sg9
F0.0
sg10
I1
sg15
S'/eos/cms/store/group/phys_smp/AnalysisFramework/Baobab/Metin/gammaplusb/2016/data/SinglePhoton/UL/run2016F_noHIPM/'
p325
sg14
I1
sg12
S'/SinglePhoton/Run2016F-UL2016_MiniAODv2_NanoAODv9-v1/NANOAOD'
p326
ssg261
(dp327
g8
I1
sg9
F0.0
sg10
I1
sg15
S'/eos/cms/store/group/phys_smp/AnalysisFramework/Baobab/Metin/gammaplusb/2016/data/SinglePhoton/UL/Run2016C/'
p328
sg14
I1
sg12
S'/SinglePhoton/Run2016C-HIPM_UL2016_MiniAODv2_NanoAODv9-v1/NANOAOD'
p329
ssg269
(dp330
g8
I1
sg9
F0.0
sg10
I1
sg15
S'/eos/cms/store/group/phys_smp/AnalysisFramework/Baobab/Metin/gammaplusb/2016/data/SinglePhoton/UL/Run2016E/'
p331
sg14
I1
sg12
S'/SinglePhoton/Run2016E-HIPM_UL2016_MiniAODv2_NanoAODv9-v1/NANOAOD'
p332
ssg273
(dp333
g8
I1
sg9
F0.0
sg10
I1
sg15
S'/eos/cms/store/group/phys_smp/AnalysisFramework/Baobab/Metin/gammaplusb/2016/data/SinglePhoton/UL/Run2016D/'
p334
sg14
I1
sg12
S'/SinglePhoton/Run2016D-HIPM_UL2016_MiniAODv2_NanoAODv9-v1/NANOAOD'
p335
ssg277
(dp336
g8
I1
sg9
F0.0
sg10
I1
sg15
S'/eos/cms/store/group/phys_smp/AnalysisFramework/Baobab/Metin/gammaplusb/2016/data/SinglePhoton/UL/Run2016G/'
p337
sg14
I1
sg12
S'/SinglePhoton/Run2016G-UL2016_MiniAODv2_NanoAODv9-v2/NANOAOD'
p338
ssg281
(dp339
g8
I1
sg9
F0.0
sg10
I1
sg15
S'/eos/cms/store/group/phys_smp/AnalysisFramework/Baobab/Metin/gammaplusb/2016/data/SinglePhoton/UL/Run2016F/'
p340
sg14
I1
sg12
S'/SinglePhoton/Run2016F-HIPM_UL2016_MiniAODv2_NanoAODv9-v1/NANOAOD'
p341
ssS'B_ver2'
p342
(dp343
g8
I1
sg9
F0.0
sg10
I1
sg15
S'/eos/cms/store/group/phys_smp/AnalysisFramework/Baobab/Metin/gammaplusb/2016/data/SinglePhoton/UL/B_ver2/'
p344
sg14
I1
sg12
S'/SinglePhoton/Run2016B-ver2_HIPM_UL2016_MiniAODv2_NanoAODv9-v1/NANOAOD'
p345
ssg285
(dp346
g8
I1
sg9
F0.0
sg10
I1
sg15
S'/eos/cms/store/group/phys_smp/AnalysisFramework/Baobab/Metin/gammaplusb/2016/data/SinglePhoton/UL/Run2016H/'
p347
sg14
I1
sg12
S'/SinglePhoton/Run2016H-UL2016_MiniAODv2_NanoAODv9-v2/NANOAOD'
p348
ssS'B_ver1'
p349
(dp350
g8
I1
sg9
F0.0
sg10
I1
sg15
S'/eos/cms/store/group/phys_smp/AnalysisFramework/Baobab/Metin/gammaplusb/2016/data/SinglePhoton/UL/B_ver1/'
p351
sg14
I1
sg12
S'/SinglePhoton/Run2016B-ver1_HIPM_UL2016_MiniAODv2_NanoAODv9-v1/NANOAOD'
p352
sssS'SingleMuon_prescaled_NoPtCut'
p353
(dp354
g261
(dp355
g8
I1
sg9
F0.0
sg10
I1
sg15
S'/eos/user/e/ecasilar/SMPVJ_Gamma_BJETS/data/2016/SingleMuon_Trigger_Scaled_NoPtCut/Run2016C_02Apr2020-v1'
p356
sg14
I1
sg12
S'/SingleMuon/Run2016C-02Apr2020-v1/NANOAOD'
p357
ssg265
(dp358
g8
I1
sg9
F0.0
sg10
I1
sg15
S'/eos/user/e/ecasilar/SMPVJ_Gamma_BJETS/data/2016/SingleMuon_Trigger_Scaled_NoPtCut/Run2016B_02Apr2020-v1'
p359
sg14
I1
sg12
S'/SingleMuon/Run2016B-02Apr2020_ver2-v1/NANOAOD'
p360
ssg269
(dp361
g8
I1
sg9
F0.0
sg10
I1
sg15
S'/eos/user/e/ecasilar/SMPVJ_Gamma_BJETS/data/2016/SingleMuon_Trigger_Scaled_NoPtCut/Run2016E_02Apr2020-v1'
p362
sg14
I1
sg12
S'/SingleMuon/Run2016E-02Apr2020-v1/NANOAOD'
p363
ssg273
(dp364
g8
I1
sg9
F0.0
sg10
I1
sg15
S'/eos/user/e/ecasilar/SMPVJ_Gamma_BJETS/data/2016/SingleMuon_Trigger_Scaled_NoPtCut/Run2016D_02Apr2020-v1'
p365
sg14
I1
sg12
S'/SingleMuon/Run2016D-02Apr2020-v1/NANOAOD'
p366
ssg277
(dp367
g8
I1
sg9
F0.0
sg10
I1
sg15
S'/eos/user/e/ecasilar/SMPVJ_Gamma_BJETS/data/2016/SingleMuon_Trigger_Scaled_NoPtCut/Run2016G_02Apr2020-v1'
p368
sg14
I1
sg12
S'/SingleMuon/Run2016G-02Apr2020-v1/NANOAOD'
p369
ssg281
(dp370
g8
I1
sg9
F0.0
sg10
I1
sg15
S'/eos/user/e/ecasilar/SMPVJ_Gamma_BJETS/data/2016/SingleMuon_Trigger_Scaled_NoPtCut/Run2016F_02Apr2020-v1'
p371
sg14
I1
sg12
S'/SingleMuon/Run2016F-02Apr2020-v1/NANOAOD'
p372
ssg285
(dp373
g8
I1
sg9
F0.0
sg10
I1
sg15
S'/eos/user/e/ecasilar/SMPVJ_Gamma_BJETS/data/2016/SingleMuon_Trigger_Scaled_NoPtCut/Run2016H_02Apr2020-v1'
p374
sg14
I1
sg12
S'/SingleMuon/Run2016H-02Apr2020-v1/NANOAOD'
p375
sssS'SingleMuon_prescaled'
p376
(dp377
g261
(dp378
g8
I1
sg9
F0.0
sg10
I1
sg15
S'/eos/user/e/ecasilar/SMPVJ_Gamma_BJETS/data/2016/SingleMuon_Trigger_Scaled/Run2016C_02Apr2020-v1'
p379
sg14
I1
sg12
g357
ssg265
(dp380
g8
I1
sg9
F0.0
sg10
I1
sg15
S'/eos/user/e/ecasilar/SMPVJ_Gamma_BJETS/data/2016/SingleMuon_Trigger_Scaled/Run2016B_02Apr2020-v1'
p381
sg14
I1
sg12
g360
ssg269
(dp382
g8
I1
sg9
F0.0
sg10
I1
sg15
S'/eos/user/e/ecasilar/SMPVJ_Gamma_BJETS/data/2016/SingleMuon_Trigger_Scaled/Run2016E_02Apr2020-v1'
p383
sg14
I1
sg12
g363
ssg273
(dp384
g8
I1
sg9
F0.0
sg10
I1
sg15
S'/eos/user/e/ecasilar/SMPVJ_Gamma_BJETS/data/2016/SingleMuon_Trigger_Scaled/Run2016D_02Apr2020-v1'
p385
sg14
I1
sg12
g366
ssg277
(dp386
g8
I1
sg9
F0.0
sg10
I1
sg15
S'/eos/user/e/ecasilar/SMPVJ_Gamma_BJETS/data/2016/SingleMuon_Trigger_Scaled/Run2016G_02Apr2020-v1'
p387
sg14
I1
sg12
g369
ssg281
(dp388
g8
I1
sg9
F0.0
sg10
I1
sg15
S'/eos/user/e/ecasilar/SMPVJ_Gamma_BJETS/data/2016/SingleMuon_Trigger_Scaled/Run2016F_02Apr2020-v1'
p389
sg14
I1
sg12
g372
ssg285
(dp390
g8
I1
sg9
F0.0
sg10
I1
sg15
S'/eos/user/e/ecasilar/SMPVJ_Gamma_BJETS/data/2016/SingleMuon_Trigger_Scaled/Run2016H_02Apr2020-v1'
p391
sg14
I1
sg12
g375
sssS'SinglePhoton'
p392
(dp393
g261
(dp394
g8
I1
sg9
F0.0
sg10
I1
sg15
S'/eos/user/e/ecasilar/SMPVJ_Gamma_BJETS//data/2016/SinglePhoton/High_PT/Run2016C_02Apr2020-v1/'
p395
sg14
I1
sg12
g264
ssg265
(dp396
g8
I1
sg9
F0.0
sg10
I1
sg15
S'/eos/user/e/ecasilar/SMPVJ_Gamma_BJETS//data/2016/SinglePhoton/High_PT/Run2016B_02Apr2020-v1/'
p397
sg14
I1
sg12
g268
ssg269
(dp398
g8
I1
sg9
F0.0
sg10
I1
sg15
S'/eos/user/e/ecasilar/SMPVJ_Gamma_BJETS//data/2016/SinglePhoton/High_PT/Run2016E_02Apr2020-v1/'
p399
sg14
I1
sg12
g272
ssg273
(dp400
g8
I1
sg9
F0.0
sg10
I1
sg15
S'/eos/user/e/ecasilar/SMPVJ_Gamma_BJETS//data/2016/SinglePhoton/High_PT/Run2016D_02Apr2020-v1/'
p401
sg14
I1
sg12
g276
ssg277
(dp402
g8
I1
sg9
F0.0
sg10
I1
sg15
S'/eos/user/e/ecasilar/SMPVJ_Gamma_BJETS//data/2016/SinglePhoton/High_PT/Run2016G_02Apr2020-v1/'
p403
sg14
I1
sg12
g280
ssg281
(dp404
g8
I1
sg9
F0.0
sg10
I1
sg15
S'/eos/user/e/ecasilar/SMPVJ_Gamma_BJETS//data/2016/SinglePhoton/High_PT/Run2016F_02Apr2020-v1/'
p405
sg14
I1
sg12
g284
ssg285
(dp406
g8
I1
sg9
F0.0
sg10
I1
sg15
S'/eos/user/e/ecasilar/SMPVJ_Gamma_BJETS//data/2016/SinglePhoton/High_PT/Run2016H_02Apr2020-v1/'
p407
sg14
I1
sg12
g288
sssS'SingleMuon'
p408
(dp409
g261
(dp410
g8
I1
sg9
F0.0
sg10
I1
sg15
S'/eos/user/e/ecasilar/SMPVJ_Gamma_BJETS/data/2016/SingleMuon/Low_PT/Run2016C_02Apr2020-v1/'
p411
sg14
I1
sg12
g357
ssg265
(dp412
g8
I1
sg9
F0.0
sg10
I1
sg15
S'/eos/user/e/ecasilar/SMPVJ_Gamma_BJETS/data/2016/SingleMuon/Low_PT/Run2016B_02Apr2020-v1/'
p413
sg14
I1
sg12
g360
ssg269
(dp414
g8
I1
sg9
F0.0
sg10
I1
sg15
S'/eos/user/e/ecasilar/SMPVJ_Gamma_BJETS/data/2016/SingleMuon/Low_PT/Run2016E_02Apr2020-v1/'
p415
sg14
I1
sg12
g363
ssg273
(dp416
g8
I1
sg9
F0.0
sg10
I1
sg15
S'/eos/user/e/ecasilar/SMPVJ_Gamma_BJETS/data/2016/SingleMuon/Low_PT/Run2016D_02Apr2020-v1/'
p417
sg14
I1
sg12
g366
ssg277
(dp418
g8
I1
sg9
F0.0
sg10
I1
sg15
S'/eos/user/e/ecasilar/SMPVJ_Gamma_BJETS/data/2016/SingleMuon/Low_PT/Run2016G_02Apr2020-v1/'
p419
sg14
I1
sg12
g369
ssg281
(dp420
g8
I1
sg9
F0.0
sg10
I1
sg15
S'/eos/user/e/ecasilar/SMPVJ_Gamma_BJETS/data/2016/SingleMuon/Low_PT/Run2016F_02Apr2020-v1/'
p421
sg14
I1
sg12
g372
ssg285
(dp422
g8
I1
sg9
F0.0
sg10
I1
sg15
S'/eos/user/e/ecasilar/SMPVJ_Gamma_BJETS/data/2016/SingleMuon/Low_PT/Run2016H_02Apr2020-v1/'
p423
sg14
I1
sg12
g375
sssS'SingleMuon_prescaled_NoPtCut_merged'
p424
(dp425
g261
(dp426
g8
I1
sg9
F0.0
sg10
I1
sg15
S'/eos/user/e/ecasilar/SMPVJ_Gamma_BJETS/data/2016/SingleMuon_Trigger_Scaled_NoPtCut/Run2016C_02Apr2020-v1/merged'
p427
sg14
I1
sg12
g357
ssg265
(dp428
g8
I1
sg9
F0.0
sg10
I1
sg15
S'/eos/user/e/ecasilar/SMPVJ_Gamma_BJETS/data/2016/SingleMuon_Trigger_Scaled_NoPtCut/Run2016B_02Apr2020-v1/merged'
p429
sg14
I1
sg12
g360
ssg269
(dp430
g8
I1
sg9
F0.0
sg10
I1
sg15
S'/eos/user/e/ecasilar/SMPVJ_Gamma_BJETS/data/2016/SingleMuon_Trigger_Scaled_NoPtCut/Run2016E_02Apr2020-v1/merged'
p431
sg14
I1
sg12
g363
ssg273
(dp432
g8
I1
sg9
F0.0
sg10
I1
sg15
S'/eos/user/e/ecasilar/SMPVJ_Gamma_BJETS/data/2016/SingleMuon_Trigger_Scaled_NoPtCut/Run2016D_02Apr2020-v1/merged'
p433
sg14
I1
sg12
g366
ssg277
(dp434
g8
I1
sg9
F0.0
sg10
I1
sg15
S'/eos/user/e/ecasilar/SMPVJ_Gamma_BJETS/data/2016/SingleMuon_Trigger_Scaled_NoPtCut/Run2016G_02Apr2020-v1/merged'
p435
sg14
I1
sg12
g369
ssg281
(dp436
g8
I1
sg9
F0.0
sg10
I1
sg15
S'/eos/user/e/ecasilar/SMPVJ_Gamma_BJETS/data/2016/SingleMuon_Trigger_Scaled_NoPtCut/Run2016F_02Apr2020-v1/merged'
p437
sg14
I1
sg12
g372
ssg285
(dp438
g8
I1
sg9
F0.0
sg10
I1
sg15
S'/eos/user/e/ecasilar/SMPVJ_Gamma_BJETS/data/2016/SingleMuon_Trigger_Scaled_NoPtCut/Run2016H_02Apr2020-v1/merged'
p439
sg14
I1
sg12
g375
sssS'SinglePhoton_prescaled_NoPtCut_merged'
p440
(dp441
g261
(dp442
g8
I1
sg9
F0.0
sg10
I1
sg15
S'/eos/user/e/ecasilar/SMPVJ_Gamma_BJETS/data/2016/SinglePhoton_Trigger_Scaled_NoPtCut/Run2016C_02Apr2020-v1/merged'
p443
sg14
I1
sg12
g264
ssg265
(dp444
g8
I1
sg9
F0.0
sg10
I1
sg15
S'/eos/user/e/ecasilar/SMPVJ_Gamma_BJETS/data/2016/SinglePhoton_Trigger_Scaled_NoPtCut/Run2016B_02Apr2020-v1/merged'
p445
sg14
I1
sg12
g268
ssg269
(dp446
g8
I1
sg9
F0.0
sg10
I1
sg15
S'/eos/user/e/ecasilar/SMPVJ_Gamma_BJETS/data/2016/SinglePhoton_Trigger_Scaled_NoPtCut/Run2016E_02Apr2020-v1/merged'
p447
sg14
I1
sg12
g272
ssg273
(dp448
g8
I1
sg9
F0.0
sg10
I1
sg15
S'/eos/user/e/ecasilar/SMPVJ_Gamma_BJETS/data/2016/SinglePhoton_Trigger_Scaled_NoPtCut/Run2016D_02Apr2020-v1/merged'
p449
sg14
I1
sg12
g276
ssg277
(dp450
g8
I1
sg9
F0.0
sg10
I1
sg15
S'/eos/user/e/ecasilar/SMPVJ_Gamma_BJETS/data/2016/SinglePhoton_Trigger_Scaled_NoPtCut/Run2016G_02Apr2020-v1/merged'
p451
sg14
I1
sg12
g280
ssg281
(dp452
g8
I1
sg9
F0.0
sg10
I1
sg15
S'/eos/user/e/ecasilar/SMPVJ_Gamma_BJETS/data/2016/SinglePhoton_Trigger_Scaled_NoPtCut/Run2016F_02Apr2020-v1/merged'
p453
sg14
I1
sg12
g284
ssg285
(dp454
g8
I1
sg9
F0.0
sg10
I1
sg15
S'/eos/user/e/ecasilar/SMPVJ_Gamma_BJETS/data/2016/SinglePhoton_Trigger_Scaled_NoPtCut/Run2016H_02Apr2020-v1/merged'
p455
sg14
I1
sg12
g288
sssS'SinglePhoton_36_NoDoubleCount'
p456
(dp457
g261
(dp458
g8
I1
sg9
F0.0
sg10
I1
sg15
S'/eos/user/m/myalvac/GPlusBJets/HLT_36_L1_Prescaled/data/2016/SinglePhoton_36/Low_PT/Run2016C_02Apr2020-v1/'
p459
sg14
I1
sg12
g264
ssg265
(dp460
g8
I1
sg9
F0.0
sg10
I1
sg15
S'/eos/user/m/myalvac/GPlusBJets/HLT_36_L1_Prescaled/data/2016/SinglePhoton_36/Low_PT/Run2016B_02Apr2020-v1/'
p461
sg14
I1
sg12
g268
ssg269
(dp462
g8
I1
sg9
F0.0
sg10
I1
sg15
S'/eos/user/m/myalvac/GPlusBJets/HLT_36_L1_Prescaled/data/2016/SinglePhoton_36/Low_PT/Run2016E_02Apr2020-v1/'
p463
sg14
I1
sg12
g272
ssg273
(dp464
g8
I1
sg9
F0.0
sg10
I1
sg15
S'/eos/user/m/myalvac/GPlusBJets/HLT_36_L1_Prescaled/data/2016/SinglePhoton_36/Low_PT/Run2016D_02Apr2020-v1/'
p465
sg14
I1
sg12
g276
ssg277
(dp466
g8
I1
sg9
F0.0
sg10
I1
sg15
S'/eos/user/m/myalvac/GPlusBJets/HLT_36_L1_Prescaled/data/2016/SinglePhoton_36/Low_PT/Run2016G_02Apr2020-v1/'
p467
sg14
I1
sg12
g280
ssg281
(dp468
g8
I1
sg9
F0.0
sg10
I1
sg15
S'/eos/user/m/myalvac/GPlusBJets/HLT_36_L1_Prescaled/data/2016/SinglePhoton_36/Low_PT/Run2016F_02Apr2020-v1/'
p469
sg14
I1
sg12
g284
ssg285
(dp470
g8
I1
sg9
F0.0
sg10
I1
sg15
S'/eos/user/m/myalvac/GPlusBJets/HLT_36_L1_Prescaled/data/2016/SinglePhoton_36/Low_PT/Run2016H_02Apr2020-v1/'
p471
sg14
I1
sg12
g288
sssssI2017
(dp472
g257
(dp473
S'SingleMuon_UL'
p474
(dp475
g261
(dp476
g8
I1
sg9
F0.0
sg10
I1
sg15
S'/eos/user/e/ecasilar/SMPVJ_Gamma_BJETS/data/2017/SingleMuon_UL/Run2017C-UL2017_02Dec2019-v1'
p477
sg14
I1
sg12
S'/SingleMuon/Run2017C-UL2017_02Dec2019-v1/NANOAOD'
p478
ssg265
(dp479
g8
I1
sg9
F0.0
sg10
I1
sg15
S'/eos/user/e/ecasilar/SMPVJ_Gamma_BJETS/data/2017/SingleMuon_UL/Run2017B-UL2017_02Dec2019-v1'
p480
sg14
I1
sg12
S'/SingleMuon/Run2017B-UL2017_02Dec2019-v1/NANOAOD'
p481
ssg269
(dp482
g8
I1
sg9
F0.0
sg10
I1
sg15
S'/eos/user/e/ecasilar/SMPVJ_Gamma_BJETS/data/2017/SingleMuon_UL/Run2017E-UL2017_02Dec2019-v1'
p483
sg14
I1
sg12
S'/SingleMuon/Run2017E-UL2017_02Dec2019-v1/NANOAOD'
p484
ssg273
(dp485
g8
I1
sg9
F0.0
sg10
I1
sg15
S'/eos/user/e/ecasilar/SMPVJ_Gamma_BJETS/data/2017/SingleMuon_UL/Run2017D-UL2017_02Dec2019-v1'
p486
sg14
I1
sg12
S'/SingleMuon/Run2017D-UL2017_02Dec2019-v1/NANOAOD'
p487
ssg281
(dp488
g8
I1
sg9
F0.0
sg10
I1
sg15
S'/eos/user/e/ecasilar/SMPVJ_Gamma_BJETS/data/2017/SingleMuon_UL/Run2017F-UL2017_02Dec2019-v1'
p489
sg14
I1
sg12
S'/SingleMuon/Run2017F-UL2017_02Dec2019-v1/NANOAOD'
p490
sssg408
(dp491
g261
(dp492
g8
I1
sg9
F0.0
sg10
I1
sg15
S'/eos/user/e/ecasilar/SMPVJ_Gamma_BJETS/data/2017/SingleMuon/Run2017C-02Apr2020-v1'
p493
sg14
I1
sg12
S'/SingleMuon/Run2017C-02Apr2020-v1/NANOAOD'
p494
ssg265
(dp495
g8
I1
sg9
F0.0
sg10
I1
sg15
S'/eos/user/e/ecasilar/SMPVJ_Gamma_BJETS/data/2017/SingleMuon/Run2017B-02Apr2020-v1'
p496
sg14
I1
sg12
S'/SingleMuon/Run2017B-02Apr2020-v1/NANOAOD'
p497
ssg269
(dp498
g8
I1
sg9
F0.0
sg10
I1
sg15
S'/eos/user/e/ecasilar/SMPVJ_Gamma_BJETS/data/2017/SingleMuon/Run2017E-02Apr2020-v1'
p499
sg14
I1
sg12
S'/SingleMuon/Run2017E-02Apr2020-v1/NANOAOD'
p500
ssg273
(dp501
g8
I1
sg9
F0.0
sg10
I1
sg15
S'/eos/user/e/ecasilar/SMPVJ_Gamma_BJETS/data/2017/SingleMuon/Run2017D-02Apr2020-v1'
p502
sg14
I1
sg12
S'/SingleMuon/Run2017D-02Apr2020-v1/NANOAOD'
p503
ssg281
(dp504
g8
I1
sg9
F0.0
sg10
I1
sg15
S'/eos/user/e/ecasilar/SMPVJ_Gamma_BJETS/data/2017/SingleMuon/Run2017F-02Apr2020-v1'
p505
sg14
I1
sg12
S'/SingleMuon/Run2017F-02Apr2020-v1/NANOAOD'
p506
sssS'SingleMuon_UL_prescaled_NoPtCut_merged'
p507
(dp508
g261
(dp509
g8
I1
sg9
F0.0
sg10
I1
sg15
S'/eos/user/e/ecasilar/SMPVJ_Gamma_BJETS/data/2017/SingleMuon_UL_Trigger_Scaled_NoPtCut/Run2017C-UL2017_02Dec2019-v1/merged'
p510
sg14
I1
sg12
g478
ssg265
(dp511
g8
I1
sg9
F0.0
sg10
I1
sg15
S'/eos/user/e/ecasilar/SMPVJ_Gamma_BJETS/data/2017/SingleMuon_UL_Trigger_Scaled_NoPtCut/Run2017B-UL2017_02Dec2019-v1/merged'
p512
sg14
I1
sg12
g481
ssg269
(dp513
g8
I1
sg9
F0.0
sg10
I1
sg15
S'/eos/user/e/ecasilar/SMPVJ_Gamma_BJETS/data/2017/SingleMuon_UL_Trigger_Scaled_NoPtCut/Run2017E-UL2017_02Dec2019-v1/merged'
p514
sg14
I1
sg12
g484
ssg273
(dp515
g8
I1
sg9
F0.0
sg10
I1
sg15
S'/eos/user/e/ecasilar/SMPVJ_Gamma_BJETS/data/2017/SingleMuon_UL_Trigger_Scaled_NoPtCut/Run2017D-UL2017_02Dec2019-v1/merged'
p516
sg14
I1
sg12
g487
ssg281
(dp517
g8
I1
sg9
F0.0
sg10
I1
sg15
S'/eos/user/e/ecasilar/SMPVJ_Gamma_BJETS/data/2017/SingleMuon_UL_Trigger_Scaled_NoPtCut/Run2017F-UL2017_02Dec2019-v1/merged'
p518
sg14
I1
sg12
g490
sssS'SingleMuon_UL_prescaled_NoPtCut'
p519
(dp520
g261
(dp521
g8
I1
sg9
F0.0
sg10
I1
sg15
S'/eos/user/e/ecasilar/SMPVJ_Gamma_BJETS/data/2017/SingleMuon_UL_Trigger_Scaled_NoPtCut/Run2017C-UL2017_02Dec2019-v1'
p522
sg14
I1
sg12
g478
ssg265
(dp523
g8
I1
sg9
F0.0
sg10
I1
sg15
S'/eos/user/e/ecasilar/SMPVJ_Gamma_BJETS/data/2017/SingleMuon_UL_Trigger_Scaled_NoPtCut/Run2017B-UL2017_02Dec2019-v1'
p524
sg14
I1
sg12
g481
ssg269
(dp525
g8
I1
sg9
F0.0
sg10
I1
sg15
S'/eos/user/e/ecasilar/SMPVJ_Gamma_BJETS/data/2017/SingleMuon_UL_Trigger_Scaled_NoPtCut/Run2017E-UL2017_02Dec2019-v1'
p526
sg14
I1
sg12
g484
ssg273
(dp527
g8
I1
sg9
F0.0
sg10
I1
sg15
S'/eos/user/e/ecasilar/SMPVJ_Gamma_BJETS/data/2017/SingleMuon_UL_Trigger_Scaled_NoPtCut/Run2017D-UL2017_02Dec2019-v1'
p528
sg14
I1
sg12
g487
ssg281
(dp529
g8
I1
sg9
F0.0
sg10
I1
sg15
S'/eos/user/e/ecasilar/SMPVJ_Gamma_BJETS/data/2017/SingleMuon_UL_Trigger_Scaled_NoPtCut/Run2017F-UL2017_02Dec2019-v1'
p530
sg14
I1
sg12
g490
sssssI2018
(dp531
g257
(dp532
g474
(dp533
S'A'
p534
(dp535
g8
I1
sg9
F0.0
sg10
I1
sg15
S'/eos/user/e/ecasilar/SMPVJ_Gamma_BJETS/data/2018/SingleMuon_UL/Run2018A-UL2018_MiniAODv1_NanoAODv2-v1'
p536
sg14
I1
sg12
S'/SingleMuon/Run2018E-UL2018_MiniAODv1_NanoAODv2-v1/NANOAOD'
p537
ssg261
(dp538
g8
I1
sg9
F0.0
sg10
I1
sg15
S'/eos/user/e/ecasilar/SMPVJ_Gamma_BJETS/data/2018/SingleMuon_UL/Run2018C-UL2018_MiniAODv1_NanoAODv2-v1'
p539
sg14
I1
sg12
S'/SingleMuon/Run2018C-UL2018_MiniAODv1_NanoAODv2-v1/NANOAOD'
p540
ssg265
(dp541
g8
I1
sg9
F0.0
sg10
I1
sg15
S'/eos/user/e/ecasilar/SMPVJ_Gamma_BJETS/data/2018/SingleMuon_UL/Run2018B-UL2018_MiniAODv1_NanoAODv2-v1'
p542
sg14
I1
sg12
S'/SingleMuon/Run2018B-UL2018_MiniAODv1_NanoAODv2-v1/NANOAOD'
p543
ssg273
(dp544
g8
I1
sg9
F0.0
sg10
I1
sg15
S'/eos/user/e/ecasilar/SMPVJ_Gamma_BJETS/data/2018/SingleMuon_UL/Run2018D-UL2018_MiniAODv1_NanoAODv2-v1'
p545
sg14
I1
sg12
S'/SingleMuon/Run2018D-UL2018_MiniAODv1_NanoAODv2-v1/NANOAOD'
p546
sssg408
(dp547
g534
(dp548
g8
I1
sg9
F0.0
sg10
I1
sg15
S'/eos/user/e/ecasilar/SMPVJ_Gamma_BJETS/data/2018/SingleMuon/Run2018A-02Apr2020-v1'
p549
sg14
I1
sg12
S'/SingleMuon/Run2018E-02Apr2020-v1/NANOAOD'
p550
ssg261
(dp551
g8
I1
sg9
F0.0
sg10
I1
sg15
S'/eos/user/e/ecasilar/SMPVJ_Gamma_BJETS/data/2018/SingleMuon/Run2018C-02Apr2020-v1'
p552
sg14
I1
sg12
S'/SingleMuon/Run2018C-02Apr2020-v1/NANOAOD'
p553
ssg265
(dp554
g8
I1
sg9
F0.0
sg10
I1
sg15
S'/eos/user/e/ecasilar/SMPVJ_Gamma_BJETS/data/2018/SingleMuon/Run2018B-02Apr2020-v1'
p555
sg14
I1
sg12
S'/SingleMuon/Run2018B-02Apr2020-v1/NANOAOD'
p556
ssg273
(dp557
g8
I1
sg9
F0.0
sg10
I1
sg15
S'/eos/user/e/ecasilar/SMPVJ_Gamma_BJETS/data/2018/SingleMuon/Run2018D-02Apr2020-v1'
p558
sg14
I1
sg12
S'/SingleMuon/Run2018D-02Apr2020-v1/NANOAOD'
p559
sssg507
(dp560
g534
(dp561
g8
I1
sg9
F0.0
sg10
I1
sg15
S'/eos/user/e/ecasilar/SMPVJ_Gamma_BJETS/data/2018/SingleMuon_UL_Trigger_Scaled_NoPtCut/Run2018A-UL2018_MiniAODv1_NanoAODv2-v1/merged'
p562
sg14
I1
sg12
g537
ssg261
(dp563
g8
I1
sg9
F0.0
sg10
I1
sg15
S'/eos/user/e/ecasilar/SMPVJ_Gamma_BJETS/data/2018/SingleMuon_UL_Trigger_Scaled_NoPtCut/Run2018C-UL2018_MiniAODv1_NanoAODv2-v1/merged'
p564
sg14
I1
sg12
g540
ssg265
(dp565
g8
I1
sg9
F0.0
sg10
I1
sg15
S'/eos/user/e/ecasilar/SMPVJ_Gamma_BJETS/data/2018/SingleMuon_UL_Trigger_Scaled_NoPtCut/Run2018B-UL2018_MiniAODv1_NanoAODv2-v1/merged'
p566
sg14
I1
sg12
g543
ssg273
(dp567
g8
I1
sg9
F0.0
sg10
I1
sg15
S'/eos/user/e/ecasilar/SMPVJ_Gamma_BJETS/data/2018/SingleMuon_UL_Trigger_Scaled_NoPtCut/Run2018D-UL2018_MiniAODv1_NanoAODv2-v1/merged'
p568
sg14
I1
sg12
g546
sssg519
(dp569
g534
(dp570
g8
I1
sg9
F0.0
sg10
I1
sg15
S'/eos/user/e/ecasilar/SMPVJ_Gamma_BJETS/data/2018/SingleMuon_UL_Trigger_Scaled_NoPtCut/Run2018A-UL2018_MiniAODv1_NanoAODv2-v1'
p571
sg14
I1
sg12
g537
ssg261
(dp572
g8
I1
sg9
F0.0
sg10
I1
sg15
S'/eos/user/e/ecasilar/SMPVJ_Gamma_BJETS/data/2018/SingleMuon_UL_Trigger_Scaled_NoPtCut/Run2018C-UL2018_MiniAODv1_NanoAODv2-v1'
p573
sg14
I1
sg12
g540
ssg265
(dp574
g8
I1
sg9
F0.0
sg10
I1
sg15
S'/eos/user/e/ecasilar/SMPVJ_Gamma_BJETS/data/2018/SingleMuon_UL_Trigger_Scaled_NoPtCut/Run2018B-UL2018_MiniAODv1_NanoAODv2-v1'
p575
sg14
I1
sg12
g543
ssg273
(dp576
g8
I1
sg9
F0.0
sg10
I1
sg15
S'/eos/user/e/ecasilar/SMPVJ_Gamma_BJETS/data/2018/SingleMuon_UL_Trigger_Scaled_NoPtCut/Run2018D-UL2018_MiniAODv1_NanoAODv2-v1'
p577
sg14
I1
sg12
g546
sssss.