(dp0
I2016
(dp1
S'signal'
p2
(dp3
S'GJets'
p4
(dp5
S'equivalent_lumi'
p6
F0.002737
sS'fraction_negative_weight'
p7
F0.0
sS'xsec_unc'
p8
F382.7
sS'files_list'
p9
(lp10
S'/eos/cms/store/group/phys_smp/AnalysisFramework/Baobab/Metin/gammaplusb/2016/MC/GJet_Pt-15To6000_TuneCUETP8M1-Flat_13TeV_pythia8_20M/9EB2EEA4-040D-1741-B6C3-00C258AB250F.root'
p11
aS'/eos/cms/store/group/phys_smp/AnalysisFramework/Baobab/Metin/gammaplusb/2016/MC/GJet_Pt-15To6000_TuneCUETP8M1-Flat_13TeV_pythia8_20M/69F96C18-30C7-A543-9680-762EFBEDF08D.root'
p12
aS'/eos/cms/store/group/phys_smp/AnalysisFramework/Baobab/Metin/gammaplusb/2016/MC/GJet_Pt-15To6000_TuneCUETP8M1-Flat_13TeV_pythia8_20M/07E054B9-5C9E-A643-81D3-8DC5A690B9FD.root'
p13
aS'/eos/cms/store/group/phys_smp/AnalysisFramework/Baobab/Metin/gammaplusb/2016/MC/GJet_Pt-15To6000_TuneCUETP8M1-Flat_13TeV_pythia8_20M/6F854800-984C-3A40-ADBA-061CBC8E1CF3.root'
p14
aS'/eos/cms/store/group/phys_smp/AnalysisFramework/Baobab/Metin/gammaplusb/2016/MC/GJet_Pt-15To6000_TuneCUETP8M1-Flat_13TeV_pythia8_20M/D4774EF1-0FA7-B540-A324-F651318C0F70.root'
p15
aS'/eos/cms/store/group/phys_smp/AnalysisFramework/Baobab/Metin/gammaplusb/2016/MC/GJet_Pt-15To6000_TuneCUETP8M1-Flat_13TeV_pythia8_20M/1475B7CE-79A9-454A-8D7E-6051C14492AA.root'
p16
aS'/eos/cms/store/group/phys_smp/AnalysisFramework/Baobab/Metin/gammaplusb/2016/MC/GJet_Pt-15To6000_TuneCUETP8M1-Flat_13TeV_pythia8_20M/4C12FD63-403C-1549-B43A-78274748E6C6.root'
p17
aS'/eos/cms/store/group/phys_smp/AnalysisFramework/Baobab/Metin/gammaplusb/2016/MC/GJet_Pt-15To6000_TuneCUETP8M1-Flat_13TeV_pythia8_20M/B05FEE00-A3AB-3748-9528-F588A5418583.root'
p18
aS'/eos/cms/store/group/phys_smp/AnalysisFramework/Baobab/Metin/gammaplusb/2016/MC/GJet_Pt-15To6000_TuneCUETP8M1-Flat_13TeV_pythia8_20M/28B13F47-0652-6B4D-8681-4AFAB66DA3D3.root'
p19
aS'/eos/cms/store/group/phys_smp/AnalysisFramework/Baobab/Metin/gammaplusb/2016/MC/GJet_Pt-15To6000_TuneCUETP8M1-Flat_13TeV_pythia8_20M/B5D3F5B1-DB8E-0643-891E-16166EC20F45.root'
p20
aS'/eos/cms/store/group/phys_smp/AnalysisFramework/Baobab/Metin/gammaplusb/2016/MC/GJet_Pt-15To6000_TuneCUETP8M1-Flat_13TeV_pythia8_20M/6FB08C96-4807-3641-8EF8-71C09C44A3E3.root'
p21
aS'/eos/cms/store/group/phys_smp/AnalysisFramework/Baobab/Metin/gammaplusb/2016/MC/GJet_Pt-15To6000_TuneCUETP8M1-Flat_13TeV_pythia8_20M/6721EECC-1AEF-B54C-8238-37994FA4C157.root'
p22
aS'/eos/cms/store/group/phys_smp/AnalysisFramework/Baobab/Metin/gammaplusb/2016/MC/GJet_Pt-15To6000_TuneCUETP8M1-Flat_13TeV_pythia8_20M/064A46AE-2831-224E-ABB1-B198580554D2.root'
p23
aS'/eos/cms/store/group/phys_smp/AnalysisFramework/Baobab/Metin/gammaplusb/2016/MC/GJet_Pt-15To6000_TuneCUETP8M1-Flat_13TeV_pythia8_20M/E3FED932-CDBA-BD4B-B7BE-6E74B29C314A.root'
p24
aS'/eos/cms/store/group/phys_smp/AnalysisFramework/Baobab/Metin/gammaplusb/2016/MC/GJet_Pt-15To6000_TuneCUETP8M1-Flat_13TeV_pythia8_20M/ED7269EC-1239-BC44-9133-0F45E11AC767.root'
p25
aS'/eos/cms/store/group/phys_smp/AnalysisFramework/Baobab/Metin/gammaplusb/2016/MC/GJet_Pt-15To6000_TuneCUETP8M1-Flat_13TeV_pythia8_20M/02D6BDCA-23D6-AF47-8F13-9854DB66A097.root'
p26
aS'/eos/cms/store/group/phys_smp/AnalysisFramework/Baobab/Metin/gammaplusb/2016/MC/GJet_Pt-15To6000_TuneCUETP8M1-Flat_13TeV_pythia8_20M/16055EEC-609C-0D45-9CFC-1B7F96EB166B.root'
p27
aS'/eos/cms/store/group/phys_smp/AnalysisFramework/Baobab/Metin/gammaplusb/2016/MC/GJet_Pt-15To6000_TuneCUETP8M1-Flat_13TeV_pythia8_20M/C80AF98E-7945-EB4A-B275-5B8CB61D6E74.root'
p28
aS'/eos/cms/store/group/phys_smp/AnalysisFramework/Baobab/Metin/gammaplusb/2016/MC/GJet_Pt-15To6000_TuneCUETP8M1-Flat_13TeV_pythia8_20M/1B377402-2059-C443-8ED8-AB6E1E9A26B2.root'
p29
asS'xsec'
p30
F365400.0
sS'das_path'
p31
S'/GJet_Pt-15To6000_TuneCUETP8M1-Flat_13TeV_pythia8_20M/RunIISummer16NanoAODv7-PUMoriond17_Nano02Apr2020_102X_mcRun2_asymptotic_v8-v1/NANOAODSIM'
p32
sssS'bkg'
p33
(dp34
S'ST_t_channel_antitop'
p35
(dp36
g6
F0.0
sg7
F0.0
sg8
F0.0
sg9
(lp37
S'/eos/cms/store/group/phys_smp/AnalysisFramework/Baobab/Metin/gammaplusb/2016/MC/ST_t-channel_antitop_4f_inclusiveDecays_13TeV-powhegV2-madspin-pythia8_TuneCUETP8M1/0B5D572C-3204-D64A-8BF1-1EB88AD8C05F.root'
p38
aS'/eos/cms/store/group/phys_smp/AnalysisFramework/Baobab/Metin/gammaplusb/2016/MC/ST_t-channel_antitop_4f_inclusiveDecays_13TeV-powhegV2-madspin-pythia8_TuneCUETP8M1/0C99AB3B-1664-C04C-AAA3-B4A168EA67E9.root'
p39
aS'/eos/cms/store/group/phys_smp/AnalysisFramework/Baobab/Metin/gammaplusb/2016/MC/ST_t-channel_antitop_4f_inclusiveDecays_13TeV-powhegV2-madspin-pythia8_TuneCUETP8M1/0CE13F16-D132-4540-8810-86EE76C45646.root'
p40
aS'/eos/cms/store/group/phys_smp/AnalysisFramework/Baobab/Metin/gammaplusb/2016/MC/ST_t-channel_antitop_4f_inclusiveDecays_13TeV-powhegV2-madspin-pythia8_TuneCUETP8M1/0DFE4459-8449-F242-AAAC-EADBEB590687.root'
p41
aS'/eos/cms/store/group/phys_smp/AnalysisFramework/Baobab/Metin/gammaplusb/2016/MC/ST_t-channel_antitop_4f_inclusiveDecays_13TeV-powhegV2-madspin-pythia8_TuneCUETP8M1/0E8AE564-E216-BA49-A08B-95D71D17E333.root'
p42
aS'/eos/cms/store/group/phys_smp/AnalysisFramework/Baobab/Metin/gammaplusb/2016/MC/ST_t-channel_antitop_4f_inclusiveDecays_13TeV-powhegV2-madspin-pythia8_TuneCUETP8M1/0EBE66AC-8E72-254A-8C79-389D061B7565.root'
p43
aS'/eos/cms/store/group/phys_smp/AnalysisFramework/Baobab/Metin/gammaplusb/2016/MC/ST_t-channel_antitop_4f_inclusiveDecays_13TeV-powhegV2-madspin-pythia8_TuneCUETP8M1/20760427-D90E-2249-A3C0-EABB3FB00825.root'
p44
aS'/eos/cms/store/group/phys_smp/AnalysisFramework/Baobab/Metin/gammaplusb/2016/MC/ST_t-channel_antitop_4f_inclusiveDecays_13TeV-powhegV2-madspin-pythia8_TuneCUETP8M1/2E242BE6-C046-C54B-B5AE-56BF6CA2C908.root'
p45
aS'/eos/cms/store/group/phys_smp/AnalysisFramework/Baobab/Metin/gammaplusb/2016/MC/ST_t-channel_antitop_4f_inclusiveDecays_13TeV-powhegV2-madspin-pythia8_TuneCUETP8M1/2F35ECB8-4392-6948-AC1D-208DDEF202E7.root'
p46
aS'/eos/cms/store/group/phys_smp/AnalysisFramework/Baobab/Metin/gammaplusb/2016/MC/ST_t-channel_antitop_4f_inclusiveDecays_13TeV-powhegV2-madspin-pythia8_TuneCUETP8M1/362C88D8-580F-E542-A665-6E03DB676747.root'
p47
aS'/eos/cms/store/group/phys_smp/AnalysisFramework/Baobab/Metin/gammaplusb/2016/MC/ST_t-channel_antitop_4f_inclusiveDecays_13TeV-powhegV2-madspin-pythia8_TuneCUETP8M1/36F07C7B-BA1E-124D-8445-7A93D9A6FD6C.root'
p48
aS'/eos/cms/store/group/phys_smp/AnalysisFramework/Baobab/Metin/gammaplusb/2016/MC/ST_t-channel_antitop_4f_inclusiveDecays_13TeV-powhegV2-madspin-pythia8_TuneCUETP8M1/3D260CF0-CA3A-134F-8F33-F58D3768981E.root'
p49
aS'/eos/cms/store/group/phys_smp/AnalysisFramework/Baobab/Metin/gammaplusb/2016/MC/ST_t-channel_antitop_4f_inclusiveDecays_13TeV-powhegV2-madspin-pythia8_TuneCUETP8M1/3ED007ED-6047-0641-A22C-A64C6C15B2C5.root'
p50
aS'/eos/cms/store/group/phys_smp/AnalysisFramework/Baobab/Metin/gammaplusb/2016/MC/ST_t-channel_antitop_4f_inclusiveDecays_13TeV-powhegV2-madspin-pythia8_TuneCUETP8M1/3F05E206-FE61-A547-A4FD-0A664D650887.root'
p51
aS'/eos/cms/store/group/phys_smp/AnalysisFramework/Baobab/Metin/gammaplusb/2016/MC/ST_t-channel_antitop_4f_inclusiveDecays_13TeV-powhegV2-madspin-pythia8_TuneCUETP8M1/49BE0D12-C0AC-0D44-B0F3-519158A569F3.root'
p52
aS'/eos/cms/store/group/phys_smp/AnalysisFramework/Baobab/Metin/gammaplusb/2016/MC/ST_t-channel_antitop_4f_inclusiveDecays_13TeV-powhegV2-madspin-pythia8_TuneCUETP8M1/5020E7DD-18D6-3B4E-8614-78BE5BDCB08A.root'
p53
aS'/eos/cms/store/group/phys_smp/AnalysisFramework/Baobab/Metin/gammaplusb/2016/MC/ST_t-channel_antitop_4f_inclusiveDecays_13TeV-powhegV2-madspin-pythia8_TuneCUETP8M1/51C724DC-4869-9642-88F8-6F0B6007353C.root'
p54
aS'/eos/cms/store/group/phys_smp/AnalysisFramework/Baobab/Metin/gammaplusb/2016/MC/ST_t-channel_antitop_4f_inclusiveDecays_13TeV-powhegV2-madspin-pythia8_TuneCUETP8M1/5C1B4B6A-B789-C848-83E6-ADFB1C227CA1.root'
p55
aS'/eos/cms/store/group/phys_smp/AnalysisFramework/Baobab/Metin/gammaplusb/2016/MC/ST_t-channel_antitop_4f_inclusiveDecays_13TeV-powhegV2-madspin-pythia8_TuneCUETP8M1/673FBF26-3CA1-7C48-BF7B-11EEA7141B6F.root'
p56
aS'/eos/cms/store/group/phys_smp/AnalysisFramework/Baobab/Metin/gammaplusb/2016/MC/ST_t-channel_antitop_4f_inclusiveDecays_13TeV-powhegV2-madspin-pythia8_TuneCUETP8M1/73228750-F35F-7449-B7DC-328AAE092F35.root'
p57
aS'/eos/cms/store/group/phys_smp/AnalysisFramework/Baobab/Metin/gammaplusb/2016/MC/ST_t-channel_antitop_4f_inclusiveDecays_13TeV-powhegV2-madspin-pythia8_TuneCUETP8M1/84FBE1E9-441B-0642-9A85-8281A4C23CF0.root'
p58
aS'/eos/cms/store/group/phys_smp/AnalysisFramework/Baobab/Metin/gammaplusb/2016/MC/ST_t-channel_antitop_4f_inclusiveDecays_13TeV-powhegV2-madspin-pythia8_TuneCUETP8M1/85DFC480-ED12-794E-ACDB-2CBAC2F85D38.root'
p59
aS'/eos/cms/store/group/phys_smp/AnalysisFramework/Baobab/Metin/gammaplusb/2016/MC/ST_t-channel_antitop_4f_inclusiveDecays_13TeV-powhegV2-madspin-pythia8_TuneCUETP8M1/8C5B15E0-82D7-794D-8D21-37DBB45D4BD7.root'
p60
aS'/eos/cms/store/group/phys_smp/AnalysisFramework/Baobab/Metin/gammaplusb/2016/MC/ST_t-channel_antitop_4f_inclusiveDecays_13TeV-powhegV2-madspin-pythia8_TuneCUETP8M1/96240BF5-7B6C-524D-A442-206017968A77.root'
p61
aS'/eos/cms/store/group/phys_smp/AnalysisFramework/Baobab/Metin/gammaplusb/2016/MC/ST_t-channel_antitop_4f_inclusiveDecays_13TeV-powhegV2-madspin-pythia8_TuneCUETP8M1/965C967C-8702-DC4B-9704-C3E98F83E410.root'
p62
aS'/eos/cms/store/group/phys_smp/AnalysisFramework/Baobab/Metin/gammaplusb/2016/MC/ST_t-channel_antitop_4f_inclusiveDecays_13TeV-powhegV2-madspin-pythia8_TuneCUETP8M1/A0A17359-AA1E-474E-B931-D7CD4FEFAF71.root'
p63
aS'/eos/cms/store/group/phys_smp/AnalysisFramework/Baobab/Metin/gammaplusb/2016/MC/ST_t-channel_antitop_4f_inclusiveDecays_13TeV-powhegV2-madspin-pythia8_TuneCUETP8M1/B4575AA4-3649-AF47-9021-9EC346939094.root'
p64
aS'/eos/cms/store/group/phys_smp/AnalysisFramework/Baobab/Metin/gammaplusb/2016/MC/ST_t-channel_antitop_4f_inclusiveDecays_13TeV-powhegV2-madspin-pythia8_TuneCUETP8M1/BC4A3EB4-B482-6340-A5AF-C6A1C16B28C3.root'
p65
aS'/eos/cms/store/group/phys_smp/AnalysisFramework/Baobab/Metin/gammaplusb/2016/MC/ST_t-channel_antitop_4f_inclusiveDecays_13TeV-powhegV2-madspin-pythia8_TuneCUETP8M1/C62D396C-388E-3946-8B59-8A54D7E1FEC2.root'
p66
aS'/eos/cms/store/group/phys_smp/AnalysisFramework/Baobab/Metin/gammaplusb/2016/MC/ST_t-channel_antitop_4f_inclusiveDecays_13TeV-powhegV2-madspin-pythia8_TuneCUETP8M1/D1DB77FA-9943-8245-8A55-744FB05D859E.root'
p67
aS'/eos/cms/store/group/phys_smp/AnalysisFramework/Baobab/Metin/gammaplusb/2016/MC/ST_t-channel_antitop_4f_inclusiveDecays_13TeV-powhegV2-madspin-pythia8_TuneCUETP8M1/D36228A7-A246-B441-AB3E-520BAABA2F2C.root'
p68
aS'/eos/cms/store/group/phys_smp/AnalysisFramework/Baobab/Metin/gammaplusb/2016/MC/ST_t-channel_antitop_4f_inclusiveDecays_13TeV-powhegV2-madspin-pythia8_TuneCUETP8M1/D779909F-FC59-2C4E-B1AB-2C380F26C91F.root'
p69
aS'/eos/cms/store/group/phys_smp/AnalysisFramework/Baobab/Metin/gammaplusb/2016/MC/ST_t-channel_antitop_4f_inclusiveDecays_13TeV-powhegV2-madspin-pythia8_TuneCUETP8M1/D9B5691F-5DD6-9846-8CA0-8CF86EC04534.root'
p70
aS'/eos/cms/store/group/phys_smp/AnalysisFramework/Baobab/Metin/gammaplusb/2016/MC/ST_t-channel_antitop_4f_inclusiveDecays_13TeV-powhegV2-madspin-pythia8_TuneCUETP8M1/E7D1201C-1608-AF48-89CA-20595C529CAD.root'
p71
aS'/eos/cms/store/group/phys_smp/AnalysisFramework/Baobab/Metin/gammaplusb/2016/MC/ST_t-channel_antitop_4f_inclusiveDecays_13TeV-powhegV2-madspin-pythia8_TuneCUETP8M1/EB0EF3D0-2C00-B340-9368-3BA0EFE711F5.root'
p72
aS'/eos/cms/store/group/phys_smp/AnalysisFramework/Baobab/Metin/gammaplusb/2016/MC/ST_t-channel_antitop_4f_inclusiveDecays_13TeV-powhegV2-madspin-pythia8_TuneCUETP8M1/F8E99E89-D2FA-D343-9822-A4DDDBABC586.root'
p73
asg30
F81.42
sg31
S'/ST_t-channel_antitop_4f_inclusiveDecays_13TeV-powhegV2-madspin-pythia8_TuneCUETP8M1/RunIISummer16NanoAODv7-PUMoriond17_Nano02Apr2020_102X_mcRun2_asymptotic_v8-v1/NANOAODSIM'
p74
ssS'ST_s_channel'
p75
(dp76
g6
F115.3
sg7
F0.1885
sg8
F0.004584
sg9
(lp77
S'/eos/cms/store/group/phys_smp/AnalysisFramework/Baobab/Metin/gammaplusb/2016/MC/ST_s-channel_4f_leptonDecays_13TeV-amcatnlo-pythia8_TuneCUETP8M1/5F48CFB3-83C5-9748-9006-00C6AB0F84D9.root'
p78
aS'/eos/cms/store/group/phys_smp/AnalysisFramework/Baobab/Metin/gammaplusb/2016/MC/ST_s-channel_4f_leptonDecays_13TeV-amcatnlo-pythia8_TuneCUETP8M1/62D9D2FC-E76F-B24B-AA8F-40870C6204C2.root'
p79
aS'/eos/cms/store/group/phys_smp/AnalysisFramework/Baobab/Metin/gammaplusb/2016/MC/ST_s-channel_4f_leptonDecays_13TeV-amcatnlo-pythia8_TuneCUETP8M1/7F7F13FF-CDE2-7745-BE5E-0D3837CC9224.root'
p80
asg30
F3.365
sg31
S'/ST_s-channel_4f_leptonDecays_13TeV-amcatnlo-pythia8_TuneCUETP8M1/RunIISummer16NanoAODv7-PUMoriond17_Nano02Apr2020_102X_mcRun2_asymptotic_v8-v1/NANOAODSIM'
p81
ssS'ST_t_channel_top'
p82
(dp83
g6
F0.0
sg7
F0.0
sg8
F0.0
sg9
(lp84
S'/eos/cms/store/group/phys_smp/AnalysisFramework/Baobab/Metin/gammaplusb/2016/MC/ST_t-channel_top_4f_inclusiveDecays_13TeV-powhegV2-madspin-pythia8_TuneCUETP8M1/102C3F90-6497-FB41-8B17-FDEDA109F2A6.root'
p85
aS'/eos/cms/store/group/phys_smp/AnalysisFramework/Baobab/Metin/gammaplusb/2016/MC/ST_t-channel_top_4f_inclusiveDecays_13TeV-powhegV2-madspin-pythia8_TuneCUETP8M1/9272651C-0DD7-264D-8A80-14FF51B59218.root'
p86
aS'/eos/cms/store/group/phys_smp/AnalysisFramework/Baobab/Metin/gammaplusb/2016/MC/ST_t-channel_top_4f_inclusiveDecays_13TeV-powhegV2-madspin-pythia8_TuneCUETP8M1/4D499923-771C-7349-ADBC-6605C7718008.root'
p87
aS'/eos/cms/store/group/phys_smp/AnalysisFramework/Baobab/Metin/gammaplusb/2016/MC/ST_t-channel_top_4f_inclusiveDecays_13TeV-powhegV2-madspin-pythia8_TuneCUETP8M1/481266D3-DCAA-1948-AA93-6F47044ABBB5.root'
p88
aS'/eos/cms/store/group/phys_smp/AnalysisFramework/Baobab/Metin/gammaplusb/2016/MC/ST_t-channel_top_4f_inclusiveDecays_13TeV-powhegV2-madspin-pythia8_TuneCUETP8M1/652E0F27-4893-F348-9E55-F3184EC8142D.root'
p89
aS'/eos/cms/store/group/phys_smp/AnalysisFramework/Baobab/Metin/gammaplusb/2016/MC/ST_t-channel_top_4f_inclusiveDecays_13TeV-powhegV2-madspin-pythia8_TuneCUETP8M1/C41F9149-5384-A242-81D9-55B48E7479E9.root'
p90
aS'/eos/cms/store/group/phys_smp/AnalysisFramework/Baobab/Metin/gammaplusb/2016/MC/ST_t-channel_top_4f_inclusiveDecays_13TeV-powhegV2-madspin-pythia8_TuneCUETP8M1/C332FF3B-95B7-4145-AE5E-4E77AB2CBB19.root'
p91
aS'/eos/cms/store/group/phys_smp/AnalysisFramework/Baobab/Metin/gammaplusb/2016/MC/ST_t-channel_top_4f_inclusiveDecays_13TeV-powhegV2-madspin-pythia8_TuneCUETP8M1/90429AA7-96DF-C443-83E8-C7BF901FF3CD.root'
p92
aS'/eos/cms/store/group/phys_smp/AnalysisFramework/Baobab/Metin/gammaplusb/2016/MC/ST_t-channel_top_4f_inclusiveDecays_13TeV-powhegV2-madspin-pythia8_TuneCUETP8M1/33726DB0-6A9F-CC43-A52C-D53492A1BDD7.root'
p93
aS'/eos/cms/store/group/phys_smp/AnalysisFramework/Baobab/Metin/gammaplusb/2016/MC/ST_t-channel_top_4f_inclusiveDecays_13TeV-powhegV2-madspin-pythia8_TuneCUETP8M1/FE98054A-D93A-1A41-A4F4-B12F1BDF9AED.root'
p94
aS'/eos/cms/store/group/phys_smp/AnalysisFramework/Baobab/Metin/gammaplusb/2016/MC/ST_t-channel_top_4f_inclusiveDecays_13TeV-powhegV2-madspin-pythia8_TuneCUETP8M1/560E4202-5B27-CB4F-8B6C-43D8E8000170.root'
p95
aS'/eos/cms/store/group/phys_smp/AnalysisFramework/Baobab/Metin/gammaplusb/2016/MC/ST_t-channel_top_4f_inclusiveDecays_13TeV-powhegV2-madspin-pythia8_TuneCUETP8M1/8D3C56A5-B422-5D4E-A2E4-44BA19B8FB63.root'
p96
aS'/eos/cms/store/group/phys_smp/AnalysisFramework/Baobab/Metin/gammaplusb/2016/MC/ST_t-channel_top_4f_inclusiveDecays_13TeV-powhegV2-madspin-pythia8_TuneCUETP8M1/E58562B5-26AC-FC42-AFA7-DFEE098A8296.root'
p97
aS'/eos/cms/store/group/phys_smp/AnalysisFramework/Baobab/Metin/gammaplusb/2016/MC/ST_t-channel_top_4f_inclusiveDecays_13TeV-powhegV2-madspin-pythia8_TuneCUETP8M1/9918EA1F-8AEF-064B-8788-F60FA512C4AC.root'
p98
aS'/eos/cms/store/group/phys_smp/AnalysisFramework/Baobab/Metin/gammaplusb/2016/MC/ST_t-channel_top_4f_inclusiveDecays_13TeV-powhegV2-madspin-pythia8_TuneCUETP8M1/7EB18EDD-3D1F-C043-9815-215FEF67F4FB.root'
p99
aS'/eos/cms/store/group/phys_smp/AnalysisFramework/Baobab/Metin/gammaplusb/2016/MC/ST_t-channel_top_4f_inclusiveDecays_13TeV-powhegV2-madspin-pythia8_TuneCUETP8M1/0DD8241F-788F-D04E-BB2E-0AB7A5F8CD94.root'
p100
aS'/eos/cms/store/group/phys_smp/AnalysisFramework/Baobab/Metin/gammaplusb/2016/MC/ST_t-channel_top_4f_inclusiveDecays_13TeV-powhegV2-madspin-pythia8_TuneCUETP8M1/CA828D22-1C57-C043-ACD1-5550890FCD0F.root'
p101
aS'/eos/cms/store/group/phys_smp/AnalysisFramework/Baobab/Metin/gammaplusb/2016/MC/ST_t-channel_top_4f_inclusiveDecays_13TeV-powhegV2-madspin-pythia8_TuneCUETP8M1/BEDDE8CC-9DF4-8C4F-AB31-1FF15A0FCED0.root'
p102
aS'/eos/cms/store/group/phys_smp/AnalysisFramework/Baobab/Metin/gammaplusb/2016/MC/ST_t-channel_top_4f_inclusiveDecays_13TeV-powhegV2-madspin-pythia8_TuneCUETP8M1/41A03B75-C0AE-AD48-B21C-19BA4CD35723.root'
p103
aS'/eos/cms/store/group/phys_smp/AnalysisFramework/Baobab/Metin/gammaplusb/2016/MC/ST_t-channel_top_4f_inclusiveDecays_13TeV-powhegV2-madspin-pythia8_TuneCUETP8M1/0A33760A-F32F-3C4B-974F-27727D264A6C.root'
p104
aS'/eos/cms/store/group/phys_smp/AnalysisFramework/Baobab/Metin/gammaplusb/2016/MC/ST_t-channel_top_4f_inclusiveDecays_13TeV-powhegV2-madspin-pythia8_TuneCUETP8M1/1354ED71-B31E-1D46-AE36-A486CCB60F03.root'
p105
aS'/eos/cms/store/group/phys_smp/AnalysisFramework/Baobab/Metin/gammaplusb/2016/MC/ST_t-channel_top_4f_inclusiveDecays_13TeV-powhegV2-madspin-pythia8_TuneCUETP8M1/9194FDFA-0646-AB48-B7A7-34765C6B1619.root'
p106
aS'/eos/cms/store/group/phys_smp/AnalysisFramework/Baobab/Metin/gammaplusb/2016/MC/ST_t-channel_top_4f_inclusiveDecays_13TeV-powhegV2-madspin-pythia8_TuneCUETP8M1/9308DC2E-2D27-804C-9802-38171302497C.root'
p107
aS'/eos/cms/store/group/phys_smp/AnalysisFramework/Baobab/Metin/gammaplusb/2016/MC/ST_t-channel_top_4f_inclusiveDecays_13TeV-powhegV2-madspin-pythia8_TuneCUETP8M1/CFFF5BFA-7CA6-2D4C-B8B6-071D1A331645.root'
p108
aS'/eos/cms/store/group/phys_smp/AnalysisFramework/Baobab/Metin/gammaplusb/2016/MC/ST_t-channel_top_4f_inclusiveDecays_13TeV-powhegV2-madspin-pythia8_TuneCUETP8M1/564D6177-A0F3-E94D-A6A2-CD1EE4353153.root'
p109
aS'/eos/cms/store/group/phys_smp/AnalysisFramework/Baobab/Metin/gammaplusb/2016/MC/ST_t-channel_top_4f_inclusiveDecays_13TeV-powhegV2-madspin-pythia8_TuneCUETP8M1/4D9D1D6F-B3FA-C644-AB91-7ABE8DA19E7A.root'
p110
aS'/eos/cms/store/group/phys_smp/AnalysisFramework/Baobab/Metin/gammaplusb/2016/MC/ST_t-channel_top_4f_inclusiveDecays_13TeV-powhegV2-madspin-pythia8_TuneCUETP8M1/AF566CC8-CC3C-FD44-A8FF-63FA4D59CFE1.root'
p111
aS'/eos/cms/store/group/phys_smp/AnalysisFramework/Baobab/Metin/gammaplusb/2016/MC/ST_t-channel_top_4f_inclusiveDecays_13TeV-powhegV2-madspin-pythia8_TuneCUETP8M1/D11D40C2-A648-594D-9AC1-7AF26DB40CDD.root'
p112
aS'/eos/cms/store/group/phys_smp/AnalysisFramework/Baobab/Metin/gammaplusb/2016/MC/ST_t-channel_top_4f_inclusiveDecays_13TeV-powhegV2-madspin-pythia8_TuneCUETP8M1/EE5319BA-96A8-E34C-B176-01CC4F597444.root'
p113
aS'/eos/cms/store/group/phys_smp/AnalysisFramework/Baobab/Metin/gammaplusb/2016/MC/ST_t-channel_top_4f_inclusiveDecays_13TeV-powhegV2-madspin-pythia8_TuneCUETP8M1/A43252D0-E2D5-8544-BD4B-4FB9EA00CB79.root'
p114
aS'/eos/cms/store/group/phys_smp/AnalysisFramework/Baobab/Metin/gammaplusb/2016/MC/ST_t-channel_top_4f_inclusiveDecays_13TeV-powhegV2-madspin-pythia8_TuneCUETP8M1/D9A494C9-E799-0D41-AA6D-798480D55ACF.root'
p115
aS'/eos/cms/store/group/phys_smp/AnalysisFramework/Baobab/Metin/gammaplusb/2016/MC/ST_t-channel_top_4f_inclusiveDecays_13TeV-powhegV2-madspin-pythia8_TuneCUETP8M1/17DC95FA-8574-9043-8B70-28A59C3798A6.root'
p116
aS'/eos/cms/store/group/phys_smp/AnalysisFramework/Baobab/Metin/gammaplusb/2016/MC/ST_t-channel_top_4f_inclusiveDecays_13TeV-powhegV2-madspin-pythia8_TuneCUETP8M1/1F9AB02D-166C-344D-951B-45AA6B34F08F.root'
p117
aS'/eos/cms/store/group/phys_smp/AnalysisFramework/Baobab/Metin/gammaplusb/2016/MC/ST_t-channel_top_4f_inclusiveDecays_13TeV-powhegV2-madspin-pythia8_TuneCUETP8M1/AA8B244C-B760-DF40-BB4A-B85A191C3058.root'
p118
aS'/eos/cms/store/group/phys_smp/AnalysisFramework/Baobab/Metin/gammaplusb/2016/MC/ST_t-channel_top_4f_inclusiveDecays_13TeV-powhegV2-madspin-pythia8_TuneCUETP8M1/61A161B6-B1B2-C043-91D0-6D603C662F90.root'
p119
aS'/eos/cms/store/group/phys_smp/AnalysisFramework/Baobab/Metin/gammaplusb/2016/MC/ST_t-channel_top_4f_inclusiveDecays_13TeV-powhegV2-madspin-pythia8_TuneCUETP8M1/2B0B52E8-8CB2-5545-AEDA-2804F7255043.root'
p120
aS'/eos/cms/store/group/phys_smp/AnalysisFramework/Baobab/Metin/gammaplusb/2016/MC/ST_t-channel_top_4f_inclusiveDecays_13TeV-powhegV2-madspin-pythia8_TuneCUETP8M1/3EC7D8EC-EBBC-604A-A2FD-3CA23E858728.root'
p121
aS'/eos/cms/store/group/phys_smp/AnalysisFramework/Baobab/Metin/gammaplusb/2016/MC/ST_t-channel_top_4f_inclusiveDecays_13TeV-powhegV2-madspin-pythia8_TuneCUETP8M1/867D7101-EB24-4840-BAD3-6340A374CCFB.root'
p122
aS'/eos/cms/store/group/phys_smp/AnalysisFramework/Baobab/Metin/gammaplusb/2016/MC/ST_t-channel_top_4f_inclusiveDecays_13TeV-powhegV2-madspin-pythia8_TuneCUETP8M1/E90E0DE5-3BF1-0F46-BB70-45EA444DA4A0.root'
p123
aS'/eos/cms/store/group/phys_smp/AnalysisFramework/Baobab/Metin/gammaplusb/2016/MC/ST_t-channel_top_4f_inclusiveDecays_13TeV-powhegV2-madspin-pythia8_TuneCUETP8M1/3D47FA0A-7214-FA46-9548-2448483B3E49.root'
p124
aS'/eos/cms/store/group/phys_smp/AnalysisFramework/Baobab/Metin/gammaplusb/2016/MC/ST_t-channel_top_4f_inclusiveDecays_13TeV-powhegV2-madspin-pythia8_TuneCUETP8M1/39252CDE-07B8-3849-9FAD-2CCF799191A1.root'
p125
aS'/eos/cms/store/group/phys_smp/AnalysisFramework/Baobab/Metin/gammaplusb/2016/MC/ST_t-channel_top_4f_inclusiveDecays_13TeV-powhegV2-madspin-pythia8_TuneCUETP8M1/791A7597-F9D7-B84B-A9BA-FE3C1DC1B799.root'
p126
aS'/eos/cms/store/group/phys_smp/AnalysisFramework/Baobab/Metin/gammaplusb/2016/MC/ST_t-channel_top_4f_inclusiveDecays_13TeV-powhegV2-madspin-pythia8_TuneCUETP8M1/9F54B8E2-8D9D-BE4D-95CA-3854656BE7C8.root'
p127
aS'/eos/cms/store/group/phys_smp/AnalysisFramework/Baobab/Metin/gammaplusb/2016/MC/ST_t-channel_top_4f_inclusiveDecays_13TeV-powhegV2-madspin-pythia8_TuneCUETP8M1/F6E8EE8D-4E63-4841-861A-3A1C10564B8B.root'
p128
asg30
F136.82
sg31
S'/ST_t-channel_top_4f_inclusiveDecays_13TeV-powhegV2-madspin-pythia8_TuneCUETP8M1/RunIISummer16NanoAODv7-PUMoriond17_Nano02Apr2020_102X_mcRun2_asymptotic_v8-v2/NANOAODSIM'
p129
ssS'ST_tW_top'
p130
(dp131
g6
F26.25
sg7
F0.0
sg8
F0.0305
sg9
(lp132
S'/eos/cms/store/group/phys_smp/AnalysisFramework/Baobab/Metin/gammaplusb/2016/MC/ST_tW_top_5f_inclusiveDecays_13TeV-powheg-pythia8_TuneCUETP8M1/432C6718-4006-A64E-B4DE-6452D9C484F8.root'
p133
aS'/eos/cms/store/group/phys_smp/AnalysisFramework/Baobab/Metin/gammaplusb/2016/MC/ST_tW_top_5f_inclusiveDecays_13TeV-powheg-pythia8_TuneCUETP8M1/6967CC9C-7660-F74C-A213-194038057DBD.root'
p134
aS'/eos/cms/store/group/phys_smp/AnalysisFramework/Baobab/Metin/gammaplusb/2016/MC/ST_tW_top_5f_inclusiveDecays_13TeV-powheg-pythia8_TuneCUETP8M1/72688701-B216-824B-8AF2-FFE739EC3B8B.root'
p135
aS'/eos/cms/store/group/phys_smp/AnalysisFramework/Baobab/Metin/gammaplusb/2016/MC/ST_tW_top_5f_inclusiveDecays_13TeV-powheg-pythia8_TuneCUETP8M1/A1C7A9B7-B316-734C-B10D-4E9DAACA6E24.root'
p136
aS'/eos/cms/store/group/phys_smp/AnalysisFramework/Baobab/Metin/gammaplusb/2016/MC/ST_tW_top_5f_inclusiveDecays_13TeV-powheg-pythia8_TuneCUETP8M1/AAEDE92B-01D5-E346-B847-71B7EF90FA05.root'
p137
aS'/eos/cms/store/group/phys_smp/AnalysisFramework/Baobab/Metin/gammaplusb/2016/MC/ST_tW_top_5f_inclusiveDecays_13TeV-powheg-pythia8_TuneCUETP8M1/D1F8A9A8-66CF-5347-9DC8-DD9003A58505.root'
p138
aS'/eos/cms/store/group/phys_smp/AnalysisFramework/Baobab/Metin/gammaplusb/2016/MC/ST_tW_top_5f_inclusiveDecays_13TeV-powheg-pythia8_TuneCUETP8M1/F9E98ED1-FB5D-C84D-B4E1-E903E046FA7A.root'
p139
asg30
F38.09
sg31
S'/ST_tW_top_5f_inclusiveDecays_13TeV-powheg-pythia8_TuneCUETP8M1/RunIISummer16NanoAODv7-PUMoriond17_Nano02Apr2020_102X_mcRun2_asymptotic_v8_ext1-v1/NANOAODSIM'
p140
ssS'QCD'
p141
(dp142
g6
F7.301e-07
sg7
F0.0
sg8
F2159000.0
sg9
(lp143
S'/eos/cms/store/group/phys_smp/AnalysisFramework/Baobab/Metin/gammaplusb/2016/MC/QCD_Pt-15to7000_TuneCUETP8M1_FlatP6_13TeV_pythia8/CAEC809C-4BBB-5C47-83A6-95D0115B7990.root'
p144
aS'/eos/cms/store/group/phys_smp/AnalysisFramework/Baobab/Metin/gammaplusb/2016/MC/QCD_Pt-15to7000_TuneCUETP8M1_FlatP6_13TeV_pythia8/99C8CFB3-5A41-D648-A265-726784B484A7.root'
p145
aS'/eos/cms/store/group/phys_smp/AnalysisFramework/Baobab/Metin/gammaplusb/2016/MC/QCD_Pt-15to7000_TuneCUETP8M1_FlatP6_13TeV_pythia8/1F00A0AB-D54A-4C4E-AD1C-7E9FBC7ABF7B.root'
p146
aS'/eos/cms/store/group/phys_smp/AnalysisFramework/Baobab/Metin/gammaplusb/2016/MC/QCD_Pt-15to7000_TuneCUETP8M1_FlatP6_13TeV_pythia8/228C82F3-E242-4945-8C23-3E11EC5FFB46.root'
p147
aS'/eos/cms/store/group/phys_smp/AnalysisFramework/Baobab/Metin/gammaplusb/2016/MC/QCD_Pt-15to7000_TuneCUETP8M1_FlatP6_13TeV_pythia8/DB6EC975-58EB-8746-A5AC-78EEAA2AB086.root'
p148
aS'/eos/cms/store/group/phys_smp/AnalysisFramework/Baobab/Metin/gammaplusb/2016/MC/QCD_Pt-15to7000_TuneCUETP8M1_FlatP6_13TeV_pythia8/C646A254-9DCC-3D42-88FE-5BF7BA212ED8.root'
p149
aS'/eos/cms/store/group/phys_smp/AnalysisFramework/Baobab/Metin/gammaplusb/2016/MC/QCD_Pt-15to7000_TuneCUETP8M1_FlatP6_13TeV_pythia8/9C910F9D-70DE-3F4D-BBEF-0C5DD3678BDC.root'
p150
aS'/eos/cms/store/group/phys_smp/AnalysisFramework/Baobab/Metin/gammaplusb/2016/MC/QCD_Pt-15to7000_TuneCUETP8M1_FlatP6_13TeV_pythia8/5DA66C2A-B37B-734F-83EE-4EF46572FE93.root'
p151
aS'/eos/cms/store/group/phys_smp/AnalysisFramework/Baobab/Metin/gammaplusb/2016/MC/QCD_Pt-15to7000_TuneCUETP8M1_FlatP6_13TeV_pythia8/7B99C2BE-F143-A642-A3D4-6DFD83E00C6B.root'
p152
aS'/eos/cms/store/group/phys_smp/AnalysisFramework/Baobab/Metin/gammaplusb/2016/MC/QCD_Pt-15to7000_TuneCUETP8M1_FlatP6_13TeV_pythia8/EA01882A-79E7-FC48-B8E8-55EF167E473D.root'
p153
aS'/eos/cms/store/group/phys_smp/AnalysisFramework/Baobab/Metin/gammaplusb/2016/MC/QCD_Pt-15to7000_TuneCUETP8M1_FlatP6_13TeV_pythia8/5EE750B3-84B5-7A49-9FF5-65FCFBD118D9.root'
p154
asg30
F1370000000.0
sg31
S'/GJet_Pt-15To6000_TuneCP5-Flat_13TeV_pythia8/RunIIFall17NanoAODv7-PU2017_12Apr2018_Nano02Apr2020_102X_mc2017_realistic_v8-v1/NANOAODSIM'
p155
ssS'TTGJets'
p156
(dp157
g6
F27.63
sg7
F0.3381
sg8
F0.02629
sg9
(lp158
S'/eos/cms/store/group/phys_smp/AnalysisFramework/Baobab/Metin/gammaplusb/2016/MC/TTGJets_TuneCUETP8M1_13TeV-amcatnloFXFX-madspin-pythia8/38643309-8D31-924F-B0D1-7057E954C7A9.root'
p159
aS'/eos/cms/store/group/phys_smp/AnalysisFramework/Baobab/Metin/gammaplusb/2016/MC/TTGJets_TuneCUETP8M1_13TeV-amcatnloFXFX-madspin-pythia8/34C10AB2-D417-DD4F-A2E6-1E965B8FCC59.root'
p160
aS'/eos/cms/store/group/phys_smp/AnalysisFramework/Baobab/Metin/gammaplusb/2016/MC/TTGJets_TuneCUETP8M1_13TeV-amcatnloFXFX-madspin-pythia8/877EA64D-65CD-644D-961A-805A2DA5605C.root'
p161
aS'/eos/cms/store/group/phys_smp/AnalysisFramework/Baobab/Metin/gammaplusb/2016/MC/TTGJets_TuneCUETP8M1_13TeV-amcatnloFXFX-madspin-pythia8/F3CB99A0-2B5E-3341-8B6A-340C6792E5F1.root'
p162
aS'/eos/cms/store/group/phys_smp/AnalysisFramework/Baobab/Metin/gammaplusb/2016/MC/TTGJets_TuneCUETP8M1_13TeV-amcatnloFXFX-madspin-pythia8/D8A0203B-4AF3-C841-8A27-BA41E7173158.root'
p163
aS'/eos/cms/store/group/phys_smp/AnalysisFramework/Baobab/Metin/gammaplusb/2016/MC/TTGJets_TuneCUETP8M1_13TeV-amcatnloFXFX-madspin-pythia8/4E4B6918-2513-E84B-9E42-CA30C1040BAC.root'
p164
aS'/eos/cms/store/group/phys_smp/AnalysisFramework/Baobab/Metin/gammaplusb/2016/MC/TTGJets_TuneCUETP8M1_13TeV-amcatnloFXFX-madspin-pythia8/B712CC24-1EF6-9245-980D-F710792904F3.root'
p165
aS'/eos/cms/store/group/phys_smp/AnalysisFramework/Baobab/Metin/gammaplusb/2016/MC/TTGJets_TuneCUETP8M1_13TeV-amcatnloFXFX-madspin-pythia8/AF20F1C3-D549-6341-9A51-83E3C9DB8251.root'
p166
aS'/eos/cms/store/group/phys_smp/AnalysisFramework/Baobab/Metin/gammaplusb/2016/MC/TTGJets_TuneCUETP8M1_13TeV-amcatnloFXFX-madspin-pythia8/58D34A9B-8628-6244-B621-453B276599FB.root'
p167
aS'/eos/cms/store/group/phys_smp/AnalysisFramework/Baobab/Metin/gammaplusb/2016/MC/TTGJets_TuneCUETP8M1_13TeV-amcatnloFXFX-madspin-pythia8/CF614110-CE1C-A149-954A-618751A7A309.root'
p168
asg30
F3.795
sg31
S'/TTGJets_TuneCP5_13TeV-amcatnloFXFX-madspin-pythia8/RunIIFall17NanoAODv7-PU2017_12Apr2018_Nano02Apr2020_102X_mc2017_realistic_v8_ext1-v1/NANOAODSIM'
p169
ssS'TTbar'
p170
(dp171
g6
F1.369
sg7
F0.0
sg8
F0.5572
sg9
(lp172
S'/eos/cms/store/group/phys_smp/AnalysisFramework/Baobab/Metin/gammaplusb/2016/MC/TT_TuneCUETP8M2T4_13TeV-powheg-pythia8/55E36402-4BDA-2745-874E-8D812B1D8242.root'
p173
aS'/eos/cms/store/group/phys_smp/AnalysisFramework/Baobab/Metin/gammaplusb/2016/MC/TT_TuneCUETP8M2T4_13TeV-powheg-pythia8/2489BF9B-95F8-2D4F-BB1C-878EF77E32E4.root'
p174
aS'/eos/cms/store/group/phys_smp/AnalysisFramework/Baobab/Metin/gammaplusb/2016/MC/TT_TuneCUETP8M2T4_13TeV-powheg-pythia8/CBF8AA62-ABB8-664D-824C-D21C2A6928DF.root'
p175
aS'/eos/cms/store/group/phys_smp/AnalysisFramework/Baobab/Metin/gammaplusb/2016/MC/TT_TuneCUETP8M2T4_13TeV-powheg-pythia8/27E63137-2F08-0F4E-A23B-DEBBC329132D.root'
p176
aS'/eos/cms/store/group/phys_smp/AnalysisFramework/Baobab/Metin/gammaplusb/2016/MC/TT_TuneCUETP8M2T4_13TeV-powheg-pythia8/4B5705A8-9C21-A24A-B219-4A2D58590CF8.root'
p177
aS'/eos/cms/store/group/phys_smp/AnalysisFramework/Baobab/Metin/gammaplusb/2016/MC/TT_TuneCUETP8M2T4_13TeV-powheg-pythia8/3CF604D3-E75E-B84B-9CFC-E23415A66EAF.root'
p178
aS'/eos/cms/store/group/phys_smp/AnalysisFramework/Baobab/Metin/gammaplusb/2016/MC/TT_TuneCUETP8M2T4_13TeV-powheg-pythia8/7A22D2FC-8E91-1A4E-B9EA-C2BC961C90A1.root'
p179
aS'/eos/cms/store/group/phys_smp/AnalysisFramework/Baobab/Metin/gammaplusb/2016/MC/TT_TuneCUETP8M2T4_13TeV-powheg-pythia8/4469E12F-4F39-3542-ACAC-98DD963552B1.root'
p180
aS'/eos/cms/store/group/phys_smp/AnalysisFramework/Baobab/Metin/gammaplusb/2016/MC/TT_TuneCUETP8M2T4_13TeV-powheg-pythia8/E92461F2-244B-A342-9539-2044263B5DB4.root'
p181
aS'/eos/cms/store/group/phys_smp/AnalysisFramework/Baobab/Metin/gammaplusb/2016/MC/TT_TuneCUETP8M2T4_13TeV-powheg-pythia8/28FD84C7-31F5-9540-8A19-DEA67C7B445D.root'
p182
aS'/eos/cms/store/group/phys_smp/AnalysisFramework/Baobab/Metin/gammaplusb/2016/MC/TT_TuneCUETP8M2T4_13TeV-powheg-pythia8/B2F72288-B052-F441-9357-FBDA21099052.root'
p183
aS'/eos/cms/store/group/phys_smp/AnalysisFramework/Baobab/Metin/gammaplusb/2016/MC/TT_TuneCUETP8M2T4_13TeV-powheg-pythia8/17460E09-6E6A-1E41-9C5D-57801B894F4C.root'
p184
aS'/eos/cms/store/group/phys_smp/AnalysisFramework/Baobab/Metin/gammaplusb/2016/MC/TT_TuneCUETP8M2T4_13TeV-powheg-pythia8/771592A0-D7AA-4F4C-8A1E-FA055003D42F.root'
p185
aS'/eos/cms/store/group/phys_smp/AnalysisFramework/Baobab/Metin/gammaplusb/2016/MC/TT_TuneCUETP8M2T4_13TeV-powheg-pythia8/E5EF9219-6C5E-DB4A-98C7-E80F90B65820.root'
p186
aS'/eos/cms/store/group/phys_smp/AnalysisFramework/Baobab/Metin/gammaplusb/2016/MC/TT_TuneCUETP8M2T4_13TeV-powheg-pythia8/B33633F5-4195-574C-8C3B-B9E276DB0C6D.root'
p187
aS'/eos/cms/store/group/phys_smp/AnalysisFramework/Baobab/Metin/gammaplusb/2016/MC/TT_TuneCUETP8M2T4_13TeV-powheg-pythia8/96A28BA1-84B0-D648-9530-CDE6BF8BA811.root'
p188
aS'/eos/cms/store/group/phys_smp/AnalysisFramework/Baobab/Metin/gammaplusb/2016/MC/TT_TuneCUETP8M2T4_13TeV-powheg-pythia8/E78BC391-B211-A74D-8F65-38F9C6E79C8F.root'
p189
aS'/eos/cms/store/group/phys_smp/AnalysisFramework/Baobab/Metin/gammaplusb/2016/MC/TT_TuneCUETP8M2T4_13TeV-powheg-pythia8/729A2DA5-35C0-9A45-A308-8E5EEAC832F7.root'
p190
aS'/eos/cms/store/group/phys_smp/AnalysisFramework/Baobab/Metin/gammaplusb/2016/MC/TT_TuneCUETP8M2T4_13TeV-powheg-pythia8/B4868D4D-995F-F04C-9D71-B727D3B909A1.root'
p191
aS'/eos/cms/store/group/phys_smp/AnalysisFramework/Baobab/Metin/gammaplusb/2016/MC/TT_TuneCUETP8M2T4_13TeV-powheg-pythia8/6F370B35-7FBB-D447-82B6-B27172F38A08.root'
p192
aS'/eos/cms/store/group/phys_smp/AnalysisFramework/Baobab/Metin/gammaplusb/2016/MC/TT_TuneCUETP8M2T4_13TeV-powheg-pythia8/CABBE07D-C2BC-6E43-BA5E-EC12DBFA02B0.root'
p193
aS'/eos/cms/store/group/phys_smp/AnalysisFramework/Baobab/Metin/gammaplusb/2016/MC/TT_TuneCUETP8M2T4_13TeV-powheg-pythia8/BA11004E-42EA-F948-BA61-4B06DD713905.root'
p194
aS'/eos/cms/store/group/phys_smp/AnalysisFramework/Baobab/Metin/gammaplusb/2016/MC/TT_TuneCUETP8M2T4_13TeV-powheg-pythia8/2F9235B9-FFB1-0D45-A799-CC8638DBAE42.root'
p195
aS'/eos/cms/store/group/phys_smp/AnalysisFramework/Baobab/Metin/gammaplusb/2016/MC/TT_TuneCUETP8M2T4_13TeV-powheg-pythia8/144749A8-46BD-0347-AE08-DAE2D97978B3.root'
p196
aS'/eos/cms/store/group/phys_smp/AnalysisFramework/Baobab/Metin/gammaplusb/2016/MC/TT_TuneCUETP8M2T4_13TeV-powheg-pythia8/16345871-ACFD-3C4E-95B3-E3004AB51DEC.root'
p197
aS'/eos/cms/store/group/phys_smp/AnalysisFramework/Baobab/Metin/gammaplusb/2016/MC/TT_TuneCUETP8M2T4_13TeV-powheg-pythia8/977FA2C0-CB9C-0A42-ACD7-9F6EA31E550E.root'
p198
aS'/eos/cms/store/group/phys_smp/AnalysisFramework/Baobab/Metin/gammaplusb/2016/MC/TT_TuneCUETP8M2T4_13TeV-powheg-pythia8/4386B3E9-8F18-064D-8EB5-48F187AB6F5F.root'
p199
aS'/eos/cms/store/group/phys_smp/AnalysisFramework/Baobab/Metin/gammaplusb/2016/MC/TT_TuneCUETP8M2T4_13TeV-powheg-pythia8/8D84E92A-9C46-444D-BA7C-99C90F4D016C.root'
p200
aS'/eos/cms/store/group/phys_smp/AnalysisFramework/Baobab/Metin/gammaplusb/2016/MC/TT_TuneCUETP8M2T4_13TeV-powheg-pythia8/31E64DA8-3656-F84C-80BC-D8FC0B53F010.root'
p201
aS'/eos/cms/store/group/phys_smp/AnalysisFramework/Baobab/Metin/gammaplusb/2016/MC/TT_TuneCUETP8M2T4_13TeV-powheg-pythia8/B9A9F56A-8FAE-B040-9463-7A84A461BFEE.root'
p202
aS'/eos/cms/store/group/phys_smp/AnalysisFramework/Baobab/Metin/gammaplusb/2016/MC/TT_TuneCUETP8M2T4_13TeV-powheg-pythia8/70669282-362C-6748-A4F8-BDDC89544455.root'
p203
aS'/eos/cms/store/group/phys_smp/AnalysisFramework/Baobab/Metin/gammaplusb/2016/MC/TT_TuneCUETP8M2T4_13TeV-powheg-pythia8/4E3BB9A0-B1D4-E540-8E5E-D9DB746F47EA.root'
p204
aS'/eos/cms/store/group/phys_smp/AnalysisFramework/Baobab/Metin/gammaplusb/2016/MC/TT_TuneCUETP8M2T4_13TeV-powheg-pythia8/32E55375-44BE-5045-AE15-73D974583CA6.root'
p205
aS'/eos/cms/store/group/phys_smp/AnalysisFramework/Baobab/Metin/gammaplusb/2016/MC/TT_TuneCUETP8M2T4_13TeV-powheg-pythia8/4F1CC710-244E-564F-A40A-2754C6D0CEDD.root'
p206
aS'/eos/cms/store/group/phys_smp/AnalysisFramework/Baobab/Metin/gammaplusb/2016/MC/TT_TuneCUETP8M2T4_13TeV-powheg-pythia8/6031E889-0D7D-5C4A-B912-22ECCD3C6D21.root'
p207
aS'/eos/cms/store/group/phys_smp/AnalysisFramework/Baobab/Metin/gammaplusb/2016/MC/TT_TuneCUETP8M2T4_13TeV-powheg-pythia8/38DD49DF-2DA9-DB49-AE40-4E0271CBCE8A.root'
p208
aS'/eos/cms/store/group/phys_smp/AnalysisFramework/Baobab/Metin/gammaplusb/2016/MC/TT_TuneCUETP8M2T4_13TeV-powheg-pythia8/D6097941-0665-4240-BF3F-B850C9FB84A5.root'
p209
aS'/eos/cms/store/group/phys_smp/AnalysisFramework/Baobab/Metin/gammaplusb/2016/MC/TT_TuneCUETP8M2T4_13TeV-powheg-pythia8/8D5D922E-9B1E-594B-927A-FE1FCF6EECF6.root'
p210
aS'/eos/cms/store/group/phys_smp/AnalysisFramework/Baobab/Metin/gammaplusb/2016/MC/TT_TuneCUETP8M2T4_13TeV-powheg-pythia8/35E368E4-9128-B241-B016-D770FD5943CE.root'
p211
aS'/eos/cms/store/group/phys_smp/AnalysisFramework/Baobab/Metin/gammaplusb/2016/MC/TT_TuneCUETP8M2T4_13TeV-powheg-pythia8/8802A641-4023-1C4C-BF75-1406DE8DB3B9.root'
p212
aS'/eos/cms/store/group/phys_smp/AnalysisFramework/Baobab/Metin/gammaplusb/2016/MC/TT_TuneCUETP8M2T4_13TeV-powheg-pythia8/2E615B74-FF6F-1543-9374-D339D25C694C.root'
p213
aS'/eos/cms/store/group/phys_smp/AnalysisFramework/Baobab/Metin/gammaplusb/2016/MC/TT_TuneCUETP8M2T4_13TeV-powheg-pythia8/628212BA-C219-AB46-AF51-87BDE4738459.root'
p214
aS'/eos/cms/store/group/phys_smp/AnalysisFramework/Baobab/Metin/gammaplusb/2016/MC/TT_TuneCUETP8M2T4_13TeV-powheg-pythia8/CD30B92E-6AC4-C146-8C0C-30638AF7E359.root'
p215
aS'/eos/cms/store/group/phys_smp/AnalysisFramework/Baobab/Metin/gammaplusb/2016/MC/TT_TuneCUETP8M2T4_13TeV-powheg-pythia8/D84D2ED2-138A-4F4A-AD67-C4260717FCD5.root'
p216
aS'/eos/cms/store/group/phys_smp/AnalysisFramework/Baobab/Metin/gammaplusb/2016/MC/TT_TuneCUETP8M2T4_13TeV-powheg-pythia8/22F9AA26-D33B-154E-B91A-8BFA7FDE2A37.root'
p217
aS'/eos/cms/store/group/phys_smp/AnalysisFramework/Baobab/Metin/gammaplusb/2016/MC/TT_TuneCUETP8M2T4_13TeV-powheg-pythia8/145F0CF5-964E-A14E-9D08-4C9AE6B7C9AD.root'
p218
aS'/eos/cms/store/group/phys_smp/AnalysisFramework/Baobab/Metin/gammaplusb/2016/MC/TT_TuneCUETP8M2T4_13TeV-powheg-pythia8/0107DB30-D4F3-9A41-8DE7-EE52BC1CD7C1.root'
p219
aS'/eos/cms/store/group/phys_smp/AnalysisFramework/Baobab/Metin/gammaplusb/2016/MC/TT_TuneCUETP8M2T4_13TeV-powheg-pythia8/CD4B5831-9890-F543-9659-A32E1406567F.root'
p220
aS'/eos/cms/store/group/phys_smp/AnalysisFramework/Baobab/Metin/gammaplusb/2016/MC/TT_TuneCUETP8M2T4_13TeV-powheg-pythia8/5064DC87-4B5B-0E43-BA1E-06DC1E2D114D.root'
p221
aS'/eos/cms/store/group/phys_smp/AnalysisFramework/Baobab/Metin/gammaplusb/2016/MC/TT_TuneCUETP8M2T4_13TeV-powheg-pythia8/12DE23DA-62BE-8443-9C44-B3C8E827B7B2.root'
p222
aS'/eos/cms/store/group/phys_smp/AnalysisFramework/Baobab/Metin/gammaplusb/2016/MC/TT_TuneCUETP8M2T4_13TeV-powheg-pythia8/0B8DCF7F-58D6-4E45-A2B0-601307A6582C.root'
p223
aS'/eos/cms/store/group/phys_smp/AnalysisFramework/Baobab/Metin/gammaplusb/2016/MC/TT_TuneCUETP8M2T4_13TeV-powheg-pythia8/0C81BB68-84A1-A946-8B97-917F64303E46.root'
p224
aS'/eos/cms/store/group/phys_smp/AnalysisFramework/Baobab/Metin/gammaplusb/2016/MC/TT_TuneCUETP8M2T4_13TeV-powheg-pythia8/7D9ADE50-01DA-884A-9097-281B8FD39418.root'
p225
aS'/eos/cms/store/group/phys_smp/AnalysisFramework/Baobab/Metin/gammaplusb/2016/MC/TT_TuneCUETP8M2T4_13TeV-powheg-pythia8/1E6B696F-C0E5-C449-A0CF-C5F07E0AD11A.root'
p226
aS'/eos/cms/store/group/phys_smp/AnalysisFramework/Baobab/Metin/gammaplusb/2016/MC/TT_TuneCUETP8M2T4_13TeV-powheg-pythia8/AE393C87-6B0F-A84B-A259-BE7522F4A326.root'
p227
aS'/eos/cms/store/group/phys_smp/AnalysisFramework/Baobab/Metin/gammaplusb/2016/MC/TT_TuneCUETP8M2T4_13TeV-powheg-pythia8/457370BC-3536-2D45-B6CA-5D3EC1731426.root'
p228
aS'/eos/cms/store/group/phys_smp/AnalysisFramework/Baobab/Metin/gammaplusb/2016/MC/TT_TuneCUETP8M2T4_13TeV-powheg-pythia8/4B349396-84BE-374C-B23A-A2F9B927DB0B.root'
p229
aS'/eos/cms/store/group/phys_smp/AnalysisFramework/Baobab/Metin/gammaplusb/2016/MC/TT_TuneCUETP8M2T4_13TeV-powheg-pythia8/A3B4A9C3-3BAF-FA45-A22D-84A0F4A1C94A.root'
p230
aS'/eos/cms/store/group/phys_smp/AnalysisFramework/Baobab/Metin/gammaplusb/2016/MC/TT_TuneCUETP8M2T4_13TeV-powheg-pythia8/2E2A3638-0E56-074F-A7EB-3EF98EC41B23.root'
p231
aS'/eos/cms/store/group/phys_smp/AnalysisFramework/Baobab/Metin/gammaplusb/2016/MC/TT_TuneCUETP8M2T4_13TeV-powheg-pythia8/C4BD90BE-E14E-CD4E-8AC8-528F237AFCA0.root'
p232
aS'/eos/cms/store/group/phys_smp/AnalysisFramework/Baobab/Metin/gammaplusb/2016/MC/TT_TuneCUETP8M2T4_13TeV-powheg-pythia8/8B061CDA-D651-EB46-8F33-8A6DEEC50A93.root'
p233
aS'/eos/cms/store/group/phys_smp/AnalysisFramework/Baobab/Metin/gammaplusb/2016/MC/TT_TuneCUETP8M2T4_13TeV-powheg-pythia8/EC20A200-C098-2B45-B3FB-EFEA3C40F9FA.root'
p234
aS'/eos/cms/store/group/phys_smp/AnalysisFramework/Baobab/Metin/gammaplusb/2016/MC/TT_TuneCUETP8M2T4_13TeV-powheg-pythia8/7F5B75FA-E1AF-5847-9A8A-113B94881F7F.root'
p235
aS'/eos/cms/store/group/phys_smp/AnalysisFramework/Baobab/Metin/gammaplusb/2016/MC/TT_TuneCUETP8M2T4_13TeV-powheg-pythia8/CAB65C98-583F-BC4D-8809-7E7E4FD85351.root'
p236
aS'/eos/cms/store/group/phys_smp/AnalysisFramework/Baobab/Metin/gammaplusb/2016/MC/TT_TuneCUETP8M2T4_13TeV-powheg-pythia8/0353B73E-1745-3548-839A-52034B43EE12.root'
p237
aS'/eos/cms/store/group/phys_smp/AnalysisFramework/Baobab/Metin/gammaplusb/2016/MC/TT_TuneCUETP8M2T4_13TeV-powheg-pythia8/6661F42C-63FA-6D4A-91E5-B6FA870D6836.root'
p238
aS'/eos/cms/store/group/phys_smp/AnalysisFramework/Baobab/Metin/gammaplusb/2016/MC/TT_TuneCUETP8M2T4_13TeV-powheg-pythia8/B5B1BCC7-4C1F-8142-A43D-6AF4D1839D04.root'
p239
aS'/eos/cms/store/group/phys_smp/AnalysisFramework/Baobab/Metin/gammaplusb/2016/MC/TT_TuneCUETP8M2T4_13TeV-powheg-pythia8/C87401B9-1DC2-A44E-A08B-BADB67F39FA3.root'
p240
aS'/eos/cms/store/group/phys_smp/AnalysisFramework/Baobab/Metin/gammaplusb/2016/MC/TT_TuneCUETP8M2T4_13TeV-powheg-pythia8/CB9EEE25-79E4-F143-AF0F-FF19B464738C.root'
p241
aS'/eos/cms/store/group/phys_smp/AnalysisFramework/Baobab/Metin/gammaplusb/2016/MC/TT_TuneCUETP8M2T4_13TeV-powheg-pythia8/CC7D0612-9149-7F45-8039-D57095A3D82D.root'
p242
aS'/eos/cms/store/group/phys_smp/AnalysisFramework/Baobab/Metin/gammaplusb/2016/MC/TT_TuneCUETP8M2T4_13TeV-powheg-pythia8/8410D7B9-8578-0A4D-BF3D-12BC8DA2935F.root'
p243
asg30
F730.6
sg31
S'/TT_TuneCUETP8M2T4_13TeV-powheg-pythia8/RunIISummer16NanoAODv7-PUMoriond17_Nano02Apr2020_102X_mcRun2_asymptotic_v8-v1/NANOAODSIM'
p244
ssS'TGJets'
p245
(dp246
g6
F13.27
sg7
F0.4008
sg8
F0.01052
sg9
(lp247
S'/eos/cms/store/group/phys_smp/AnalysisFramework/Baobab/Metin/gammaplusb/2016/MC/TGJets_TuneCUETP8M1_13TeV_amcatnlo_madspin_pythia8/BF81AD4A-06FB-E74B-8FF4-1A783DB6A6E1.root'
p248
asg30
F2.967
sg31
S'/TGJets_TuneCP5_13TeV_amcatnlo_madspin_pythia8/RunIIFall17NanoAODv7-PU2017_12Apr2018_Nano02Apr2020_102X_mc2017_realistic_v8-v1/NANOAODSIM'
p249
ssS'ST_tW_antitop'
p250
(dp251
g6
F26.27
sg7
F0.0
sg8
F0.03055
sg9
(lp252
S'/eos/cms/store/group/phys_smp/AnalysisFramework/Baobab/Metin/gammaplusb/2016/MC/ST_tW_antitop_5f_inclusiveDecays_13TeV-powheg-pythia8_TuneCUETP8M1/033AF8F4-BCF8-4849-B5AA-09F2EC1BD92A.root'
p253
aS'/eos/cms/store/group/phys_smp/AnalysisFramework/Baobab/Metin/gammaplusb/2016/MC/ST_tW_antitop_5f_inclusiveDecays_13TeV-powheg-pythia8_TuneCUETP8M1/43449425-3561-3D45-B1B1-966928E88E51.root'
p254
aS'/eos/cms/store/group/phys_smp/AnalysisFramework/Baobab/Metin/gammaplusb/2016/MC/ST_tW_antitop_5f_inclusiveDecays_13TeV-powheg-pythia8_TuneCUETP8M1/4F3F667C-3C0D-334C-B10A-016E241D6277.root'
p255
aS'/eos/cms/store/group/phys_smp/AnalysisFramework/Baobab/Metin/gammaplusb/2016/MC/ST_tW_antitop_5f_inclusiveDecays_13TeV-powheg-pythia8_TuneCUETP8M1/62306AE9-81A2-674E-BC71-53635B219AD5.root'
p256
aS'/eos/cms/store/group/phys_smp/AnalysisFramework/Baobab/Metin/gammaplusb/2016/MC/ST_tW_antitop_5f_inclusiveDecays_13TeV-powheg-pythia8_TuneCUETP8M1/9600DABA-7791-7E4F-B7DD-11774216285F.root'
p257
aS'/eos/cms/store/group/phys_smp/AnalysisFramework/Baobab/Metin/gammaplusb/2016/MC/ST_tW_antitop_5f_inclusiveDecays_13TeV-powheg-pythia8_TuneCUETP8M1/C8702686-4FC3-D94D-A0FB-FD71F2B513BC.root'
p258
aS'/eos/cms/store/group/phys_smp/AnalysisFramework/Baobab/Metin/gammaplusb/2016/MC/ST_tW_antitop_5f_inclusiveDecays_13TeV-powheg-pythia8_TuneCUETP8M1/D7502507-5A89-6541-91CD-28BF9B5DE967.root'
p259
aS'/eos/cms/store/group/phys_smp/AnalysisFramework/Baobab/Metin/gammaplusb/2016/MC/ST_tW_antitop_5f_inclusiveDecays_13TeV-powheg-pythia8_TuneCUETP8M1/DB95A360-C2C4-FA49-A33B-9AEAE4E5DD16.root'
p260
aS'/eos/cms/store/group/phys_smp/AnalysisFramework/Baobab/Metin/gammaplusb/2016/MC/ST_tW_antitop_5f_inclusiveDecays_13TeV-powheg-pythia8_TuneCUETP8M1/DD38FB18-5B81-BA48-BD28-2E901ACC58B8.root'
p261
aS'/eos/cms/store/group/phys_smp/AnalysisFramework/Baobab/Metin/gammaplusb/2016/MC/ST_tW_antitop_5f_inclusiveDecays_13TeV-powheg-pythia8_TuneCUETP8M1/E24C11AA-26DD-9A4F-AC39-67C011C9D658.root'
p262
asg30
F38.06
sg31
S'/ST_tW_antitop_5f_inclusiveDecays_13TeV-powheg-pythia8_TuneCUETP8M1/RunIISummer16NanoAODv7-PUMoriond17_Nano02Apr2020_102X_mcRun2_asymptotic_v8_ext1-v1/NANOAODSIM'
p263
ssssI2017
(dp264
g2
(dp265
g4
(dp266
g6
F0.003534
sg7
F0.0
sg8
F299.4
sg9
(lp267
S'/eos/cms/store/group/phys_smp/AnalysisFramework/Baobab/Metin/gammaplusb/2017/MC/GJet_Pt-15To6000_TuneCP5-Flat_13TeV_pythia8/15719DE0-E88D-B548-9DEF-AFEE589925D7.root'
p268
aS'/eos/cms/store/group/phys_smp/AnalysisFramework/Baobab/Metin/gammaplusb/2017/MC/GJet_Pt-15To6000_TuneCP5-Flat_13TeV_pythia8/0FC13082-8A6D-6541-9C7C-2966B3590FF4.root'
p269
aS'/eos/cms/store/group/phys_smp/AnalysisFramework/Baobab/Metin/gammaplusb/2017/MC/GJet_Pt-15To6000_TuneCP5-Flat_13TeV_pythia8/B5423023-4479-8046-9EFE-4D754EADF20F.root'
p270
aS'/eos/cms/store/group/phys_smp/AnalysisFramework/Baobab/Metin/gammaplusb/2017/MC/GJet_Pt-15To6000_TuneCP5-Flat_13TeV_pythia8/F223243A-9C89-234F-8A61-539A6318EC89.root'
p271
aS'/eos/cms/store/group/phys_smp/AnalysisFramework/Baobab/Metin/gammaplusb/2017/MC/GJet_Pt-15To6000_TuneCP5-Flat_13TeV_pythia8/28753A5D-767D-094C-9C75-22BBA1D42329.root'
p272
aS'/eos/cms/store/group/phys_smp/AnalysisFramework/Baobab/Metin/gammaplusb/2017/MC/GJet_Pt-15To6000_TuneCP5-Flat_13TeV_pythia8/5E745717-FB52-8644-B88B-F045755537EB.root'
p273
aS'/eos/cms/store/group/phys_smp/AnalysisFramework/Baobab/Metin/gammaplusb/2017/MC/GJet_Pt-15To6000_TuneCP5-Flat_13TeV_pythia8/31CF18DC-747F-114D-AE4B-3D884F6CC02A.root'
p274
aS'/eos/cms/store/group/phys_smp/AnalysisFramework/Baobab/Metin/gammaplusb/2017/MC/GJet_Pt-15To6000_TuneCP5-Flat_13TeV_pythia8/51889DC9-DBDB-E543-BB6B-F83990932F3A.root'
p275
aS'/eos/cms/store/group/phys_smp/AnalysisFramework/Baobab/Metin/gammaplusb/2017/MC/GJet_Pt-15To6000_TuneCP5-Flat_13TeV_pythia8/E4B0CB0B-5CAF-2A42-A42B-E932DCB9BE60.root'
p276
aS'/eos/cms/store/group/phys_smp/AnalysisFramework/Baobab/Metin/gammaplusb/2017/MC/GJet_Pt-15To6000_TuneCP5-Flat_13TeV_pythia8/FA7CBAA6-72EC-7A4F-B8B5-2C960D081A86.root'
p277
aS'/eos/cms/store/group/phys_smp/AnalysisFramework/Baobab/Metin/gammaplusb/2017/MC/GJet_Pt-15To6000_TuneCP5-Flat_13TeV_pythia8/194AF5BA-5983-7C48-BFB2-B54FBBDB58C2.root'
p278
aS'/eos/cms/store/group/phys_smp/AnalysisFramework/Baobab/Metin/gammaplusb/2017/MC/GJet_Pt-15To6000_TuneCP5-Flat_13TeV_pythia8/F6BEDDBA-FC25-CC4E-AAA6-87EC4350048F.root'
p279
aS'/eos/cms/store/group/phys_smp/AnalysisFramework/Baobab/Metin/gammaplusb/2017/MC/GJet_Pt-15To6000_TuneCP5-Flat_13TeV_pythia8/62F17324-6A3F-5740-A249-9881CC8B7401.root'
p280
aS'/eos/cms/store/group/phys_smp/AnalysisFramework/Baobab/Metin/gammaplusb/2017/MC/GJet_Pt-15To6000_TuneCP5-Flat_13TeV_pythia8/A7E616D9-7D91-624E-BCF4-58FCA0B10E0D.root'
p281
aS'/eos/cms/store/group/phys_smp/AnalysisFramework/Baobab/Metin/gammaplusb/2017/MC/GJet_Pt-15To6000_TuneCP5-Flat_13TeV_pythia8/0E961393-5024-BA46-B232-083527FA94A1.root'
p282
aS'/eos/cms/store/group/phys_smp/AnalysisFramework/Baobab/Metin/gammaplusb/2017/MC/GJet_Pt-15To6000_TuneCP5-Flat_13TeV_pythia8/29351CF9-8AF0-264F-B4DA-AFD66A5482E5.root'
p283
aS'/eos/cms/store/group/phys_smp/AnalysisFramework/Baobab/Metin/gammaplusb/2017/MC/GJet_Pt-15To6000_TuneCP5-Flat_13TeV_pythia8/0BA5CD12-7398-7E46-80CA-807ACA566E71.root'
p284
aS'/eos/cms/store/group/phys_smp/AnalysisFramework/Baobab/Metin/gammaplusb/2017/MC/GJet_Pt-15To6000_TuneCP5-Flat_13TeV_pythia8/484CD468-4BA8-404B-9137-D0789E4E5D3F.root'
p285
aS'/eos/cms/store/group/phys_smp/AnalysisFramework/Baobab/Metin/gammaplusb/2017/MC/GJet_Pt-15To6000_TuneCP5-Flat_13TeV_pythia8/BA26B284-B950-4B42-BEB0-324B1FFF8C74.root'
p286
aS'/eos/cms/store/group/phys_smp/AnalysisFramework/Baobab/Metin/gammaplusb/2017/MC/GJet_Pt-15To6000_TuneCP5-Flat_13TeV_pythia8/571FA3A4-0B5D-044D-9E73-6BA25BA93D16.root'
p287
asg30
F283000.0
sg31
g155
sssg33
(dp288
g35
(dp289
g6
F14.72
sg7
F0.0
sg8
F0.3487
sg9
(lp290
S'/eos/cms/store/group/phys_smp/AnalysisFramework/Baobab/Metin/gammaplusb/2017/MC/ST_t-channel_antitop_4f_inclusiveDecays_TuneCP5_13TeV-powhegV2-madspin-pythia8/054886F4-452F-7345-8A79-F11D4EA4AE3B.root'
p291
aS'/eos/cms/store/group/phys_smp/AnalysisFramework/Baobab/Metin/gammaplusb/2017/MC/ST_t-channel_antitop_4f_inclusiveDecays_TuneCP5_13TeV-powhegV2-madspin-pythia8/092D18B9-2FA2-8047-832D-469CA2D56349.root'
p292
aS'/eos/cms/store/group/phys_smp/AnalysisFramework/Baobab/Metin/gammaplusb/2017/MC/ST_t-channel_antitop_4f_inclusiveDecays_TuneCP5_13TeV-powhegV2-madspin-pythia8/0DF13B77-4113-A242-B4E9-7F02848F70B7.root'
p293
aS'/eos/cms/store/group/phys_smp/AnalysisFramework/Baobab/Metin/gammaplusb/2017/MC/ST_t-channel_antitop_4f_inclusiveDecays_TuneCP5_13TeV-powhegV2-madspin-pythia8/44017F41-776E-934A-B9E6-E713B758AAA0.root'
p294
aS'/eos/cms/store/group/phys_smp/AnalysisFramework/Baobab/Metin/gammaplusb/2017/MC/ST_t-channel_antitop_4f_inclusiveDecays_TuneCP5_13TeV-powhegV2-madspin-pythia8/4F65F309-BD50-364C-9194-35DBBFC7C94C.root'
p295
aS'/eos/cms/store/group/phys_smp/AnalysisFramework/Baobab/Metin/gammaplusb/2017/MC/ST_t-channel_antitop_4f_inclusiveDecays_TuneCP5_13TeV-powhegV2-madspin-pythia8/5BFBB1BD-205B-DC46-961D-B2F1533254FD.root'
p296
aS'/eos/cms/store/group/phys_smp/AnalysisFramework/Baobab/Metin/gammaplusb/2017/MC/ST_t-channel_antitop_4f_inclusiveDecays_TuneCP5_13TeV-powhegV2-madspin-pythia8/679C9BEB-3371-1847-9E19-0FBAF630A206.root'
p297
aS'/eos/cms/store/group/phys_smp/AnalysisFramework/Baobab/Metin/gammaplusb/2017/MC/ST_t-channel_antitop_4f_inclusiveDecays_TuneCP5_13TeV-powhegV2-madspin-pythia8/76534997-6BB5-F448-81F7-B2CC62778C9D.root'
p298
aS'/eos/cms/store/group/phys_smp/AnalysisFramework/Baobab/Metin/gammaplusb/2017/MC/ST_t-channel_antitop_4f_inclusiveDecays_TuneCP5_13TeV-powhegV2-madspin-pythia8/785023A2-EEA4-3D43-9CD7-A2C0FDB5B5C2.root'
p299
aS'/eos/cms/store/group/phys_smp/AnalysisFramework/Baobab/Metin/gammaplusb/2017/MC/ST_t-channel_antitop_4f_inclusiveDecays_TuneCP5_13TeV-powhegV2-madspin-pythia8/7D304D84-D8C1-EB46-B60C-32E99A4D4E05.root'
p300
aS'/eos/cms/store/group/phys_smp/AnalysisFramework/Baobab/Metin/gammaplusb/2017/MC/ST_t-channel_antitop_4f_inclusiveDecays_TuneCP5_13TeV-powhegV2-madspin-pythia8/7DC48BD7-8AA3-ED49-B71C-A6EE94DF5726.root'
p301
aS'/eos/cms/store/group/phys_smp/AnalysisFramework/Baobab/Metin/gammaplusb/2017/MC/ST_t-channel_antitop_4f_inclusiveDecays_TuneCP5_13TeV-powhegV2-madspin-pythia8/A12EFBE5-F349-D04F-95A1-00572C776F4C.root'
p302
aS'/eos/cms/store/group/phys_smp/AnalysisFramework/Baobab/Metin/gammaplusb/2017/MC/ST_t-channel_antitop_4f_inclusiveDecays_TuneCP5_13TeV-powhegV2-madspin-pythia8/BE3FDEE1-C7E0-EC47-AD42-C302BDB58663.root'
p303
aS'/eos/cms/store/group/phys_smp/AnalysisFramework/Baobab/Metin/gammaplusb/2017/MC/ST_t-channel_antitop_4f_inclusiveDecays_TuneCP5_13TeV-powhegV2-madspin-pythia8/C38E473E-BE42-A046-985A-077A6B5D8298.root'
p304
aS'/eos/cms/store/group/phys_smp/AnalysisFramework/Baobab/Metin/gammaplusb/2017/MC/ST_t-channel_antitop_4f_inclusiveDecays_TuneCP5_13TeV-powhegV2-madspin-pythia8/C84F6EF6-6F89-D74B-8ED8-381C43EF692F.root'
p305
aS'/eos/cms/store/group/phys_smp/AnalysisFramework/Baobab/Metin/gammaplusb/2017/MC/ST_t-channel_antitop_4f_inclusiveDecays_TuneCP5_13TeV-powhegV2-madspin-pythia8/CC5AFABE-A658-5444-B2FA-1B47AF8BCF9C.root'
p306
aS'/eos/cms/store/group/phys_smp/AnalysisFramework/Baobab/Metin/gammaplusb/2017/MC/ST_t-channel_antitop_4f_inclusiveDecays_TuneCP5_13TeV-powhegV2-madspin-pythia8/ED5CBE7F-53B9-CD48-9B00-EBDC26A697D4.root'
p307
aS'/eos/cms/store/group/phys_smp/AnalysisFramework/Baobab/Metin/gammaplusb/2017/MC/ST_t-channel_antitop_4f_inclusiveDecays_TuneCP5_13TeV-powhegV2-madspin-pythia8/F3BD903C-7705-D649-B838-58EB147A3862.root'
p308
asg30
F67.91
sg31
S'/ST_t-channel_antitop_4f_inclusiveDecays_TuneCP5_13TeV-powhegV2-madspin-pythia8/RunIIFall17NanoAODv7-PU2017_12Apr2018_Nano02Apr2020_102X_mc2017_realistic_v8-v1/NANOAODSIM'
p309
ssg75
(dp310
g6
F104.5
sg7
F0.1875
sg8
F0.003533
sg9
(lp311
S'/eos/cms/store/group/phys_smp/AnalysisFramework/Baobab/Metin/gammaplusb/2017/MC/ST_s-channel_4f_leptonDecays_TuneCP5_13TeV-amcatnlo-pythia8/24A8C6E7-5285-2345-AB23-66057665D0FC.root'
p312
aS'/eos/cms/store/group/phys_smp/AnalysisFramework/Baobab/Metin/gammaplusb/2017/MC/ST_s-channel_4f_leptonDecays_TuneCP5_13TeV-amcatnlo-pythia8/25C8CCBA-F01E-9646-B4C0-DE25AFC5C5FA.root'
p313
aS'/eos/cms/store/group/phys_smp/AnalysisFramework/Baobab/Metin/gammaplusb/2017/MC/ST_s-channel_4f_leptonDecays_TuneCP5_13TeV-amcatnlo-pythia8/2705CECD-0CA7-904B-B4DE-9E70E54652B8.root'
p314
aS'/eos/cms/store/group/phys_smp/AnalysisFramework/Baobab/Metin/gammaplusb/2017/MC/ST_s-channel_4f_leptonDecays_TuneCP5_13TeV-amcatnlo-pythia8/4459FCD2-24CD-4B47-A0F5-51A0C5CBBB61.root'
p315
aS'/eos/cms/store/group/phys_smp/AnalysisFramework/Baobab/Metin/gammaplusb/2017/MC/ST_s-channel_4f_leptonDecays_TuneCP5_13TeV-amcatnlo-pythia8/5D1EDE56-973E-504E-BCF6-07FE882CB10B.root'
p316
aS'/eos/cms/store/group/phys_smp/AnalysisFramework/Baobab/Metin/gammaplusb/2017/MC/ST_s-channel_4f_leptonDecays_TuneCP5_13TeV-amcatnlo-pythia8/5D2A6859-17AC-7446-AA50-9ACE29F47DFA.root'
p317
aS'/eos/cms/store/group/phys_smp/AnalysisFramework/Baobab/Metin/gammaplusb/2017/MC/ST_s-channel_4f_leptonDecays_TuneCP5_13TeV-amcatnlo-pythia8/922E71D4-3DAA-2543-81F6-855300C5528D.root'
p318
aS'/eos/cms/store/group/phys_smp/AnalysisFramework/Baobab/Metin/gammaplusb/2017/MC/ST_s-channel_4f_leptonDecays_TuneCP5_13TeV-amcatnlo-pythia8/958F134B-4784-0541-9926-4CBF94ACEEEB.root'
p319
aS'/eos/cms/store/group/phys_smp/AnalysisFramework/Baobab/Metin/gammaplusb/2017/MC/ST_s-channel_4f_leptonDecays_TuneCP5_13TeV-amcatnlo-pythia8/C6056161-3FAD-794C-BBFB-77DF940CE86C.root'
p320
aS'/eos/cms/store/group/phys_smp/AnalysisFramework/Baobab/Metin/gammaplusb/2017/MC/ST_s-channel_4f_leptonDecays_TuneCP5_13TeV-amcatnlo-pythia8/D1E00880-15BB-2347-838E-0D0487FAF2CA.root'
p321
aS'/eos/cms/store/group/phys_smp/AnalysisFramework/Baobab/Metin/gammaplusb/2017/MC/ST_s-channel_4f_leptonDecays_TuneCP5_13TeV-amcatnlo-pythia8/DDBEDEEA-1FBD-1348-9046-759EE57C11CE.root'
p322
aS'/eos/cms/store/group/phys_smp/AnalysisFramework/Baobab/Metin/gammaplusb/2017/MC/ST_s-channel_4f_leptonDecays_TuneCP5_13TeV-amcatnlo-pythia8/FB5270AC-5AAE-074D-A21B-A16A4FD5D759.root'
p323
asg30
F3.74
sg31
S'/ST_s-channel_4f_leptonDecays_TuneCP5_13TeV-amcatnlo-pythia8/RunIIFall17NanoAODv7-PU2017_12Apr2018_Nano02Apr2020_102X_mc2017_realistic_v8-v1/NANOAODSIM'
p324
ssg82
(dp325
g6
F8.83
sg7
F0.0
sg8
F0.6404
sg9
(lp326
S'/eos/cms/store/group/phys_smp/AnalysisFramework/Baobab/Metin/gammaplusb/2017/MC/ST_t-channel_top_4f_inclusiveDecays_TuneCP5_13TeV-powhegV2-madspin-pythia8/2DE9C111-6E3D-124B-BE40-D39A01EFC636.root'
p327
aS'/eos/cms/store/group/phys_smp/AnalysisFramework/Baobab/Metin/gammaplusb/2017/MC/ST_t-channel_top_4f_inclusiveDecays_TuneCP5_13TeV-powhegV2-madspin-pythia8/770D16B1-A2F2-834D-B20F-753A6563D56F.root'
p328
aS'/eos/cms/store/group/phys_smp/AnalysisFramework/Baobab/Metin/gammaplusb/2017/MC/ST_t-channel_top_4f_inclusiveDecays_TuneCP5_13TeV-powhegV2-madspin-pythia8/8FA2D813-475C-FF4D-A27B-CD968F028767.root'
p329
aS'/eos/cms/store/group/phys_smp/AnalysisFramework/Baobab/Metin/gammaplusb/2017/MC/ST_t-channel_top_4f_inclusiveDecays_TuneCP5_13TeV-powhegV2-madspin-pythia8/9760EBBE-5735-5941-9969-5A5263185D89.root'
p330
aS'/eos/cms/store/group/phys_smp/AnalysisFramework/Baobab/Metin/gammaplusb/2017/MC/ST_t-channel_top_4f_inclusiveDecays_TuneCP5_13TeV-powhegV2-madspin-pythia8/A8514BC6-7E7C-7B44-BDC7-F2B7A9BA9C17.root'
p331
aS'/eos/cms/store/group/phys_smp/AnalysisFramework/Baobab/Metin/gammaplusb/2017/MC/ST_t-channel_top_4f_inclusiveDecays_TuneCP5_13TeV-powhegV2-madspin-pythia8/B0404830-3C64-9A40-BBD1-671AC4D0A66E.root'
p332
aS'/eos/cms/store/group/phys_smp/AnalysisFramework/Baobab/Metin/gammaplusb/2017/MC/ST_t-channel_top_4f_inclusiveDecays_TuneCP5_13TeV-powhegV2-madspin-pythia8/CBC1ECCC-0DB9-ED4A-9C00-5A3CAECC4B08.root'
p333
aS'/eos/cms/store/group/phys_smp/AnalysisFramework/Baobab/Metin/gammaplusb/2017/MC/ST_t-channel_top_4f_inclusiveDecays_TuneCP5_13TeV-powhegV2-madspin-pythia8/D0AC2011-0A70-C046-BA3D-4A5AC63B896B.root'
p334
asg30
F113.3
sg31
S'/ST_t-channel_top_4f_inclusiveDecays_TuneCP5_13TeV-powhegV2-madspin-pythia8/RunIIFall17NanoAODv7-PU2017_12Apr2018_Nano02Apr2020_new_pmx_102X_mc2017_realistic_v8-v1/NANOAODSIM'
p335
ssg130
(dp336
g6
F28.22
sg7
F0.003758
sg8
F0.02817
sg9
(lp337
S'/eos/cms/store/group/phys_smp/AnalysisFramework/Baobab/Metin/gammaplusb/2017/MC/ST_tW_top_5f_inclusiveDecays_TuneCP5_13TeV-powheg-pythia8/FFB7AB92-C03E-DA46-BEB3-1D57BCF68C2D.root'
p338
aS'/eos/cms/store/group/phys_smp/AnalysisFramework/Baobab/Metin/gammaplusb/2017/MC/ST_tW_top_5f_inclusiveDecays_TuneCP5_13TeV-powheg-pythia8/D2102BF8-7D99-684B-BCA8-3AE79593BB33.root'
p339
aS'/eos/cms/store/group/phys_smp/AnalysisFramework/Baobab/Metin/gammaplusb/2017/MC/ST_tW_top_5f_inclusiveDecays_TuneCP5_13TeV-powheg-pythia8/C6C9F650-0A9C-9244-A272-0C7EB0A48135.root'
p340
aS'/eos/cms/store/group/phys_smp/AnalysisFramework/Baobab/Metin/gammaplusb/2017/MC/ST_tW_top_5f_inclusiveDecays_TuneCP5_13TeV-powheg-pythia8/34C534A3-4AB0-654C-B6D0-DE6C614D370F.root'
p341
aS'/eos/cms/store/group/phys_smp/AnalysisFramework/Baobab/Metin/gammaplusb/2017/MC/ST_tW_top_5f_inclusiveDecays_TuneCP5_13TeV-powheg-pythia8/32859BE5-5F06-2046-8BAA-3164EBB76832.root'
p342
aS'/eos/cms/store/group/phys_smp/AnalysisFramework/Baobab/Metin/gammaplusb/2017/MC/ST_tW_top_5f_inclusiveDecays_TuneCP5_13TeV-powheg-pythia8/DE91133B-14D8-FD45-9B2E-AECD2D509295.root'
p343
aS'/eos/cms/store/group/phys_smp/AnalysisFramework/Baobab/Metin/gammaplusb/2017/MC/ST_tW_top_5f_inclusiveDecays_TuneCP5_13TeV-powheg-pythia8/6F6FD899-570E-2A4D-94DC-F0471649ABE7.root'
p344
aS'/eos/cms/store/group/phys_smp/AnalysisFramework/Baobab/Metin/gammaplusb/2017/MC/ST_tW_top_5f_inclusiveDecays_TuneCP5_13TeV-powheg-pythia8/5BA5124F-6701-3A43-9608-6842E3A6468C.root'
p345
asg30
F34.91
sg31
S'/ST_tW_top_5f_inclusiveDecays_TuneCP5_13TeV-powheg-pythia8/RunIIFall17NanoAODv7-PU2017_12Apr2018_Nano02Apr2020_102X_mc2017_realistic_v8-v1/NANOAODSIM'
p346
ssg141
(dp347
g6
F7.347e-07
sg7
F0.0
sg8
F5238000.0
sg9
(lp348
S'/eos/cms/store/group/phys_smp/AnalysisFramework/Baobab/Metin/gammaplusb/2017/MC/QCD_Pt-15to7000_TuneCUETP8M1_Flat_13TeV_pythia8/8C356AEF-20FF-F241-A9A4-20317EC0BFF7.root'
p349
aS'/eos/cms/store/group/phys_smp/AnalysisFramework/Baobab/Metin/gammaplusb/2017/MC/QCD_Pt-15to7000_TuneCUETP8M1_Flat_13TeV_pythia8/9963A594-B8BB-8F4B-8BDC-20EF7FD201BD.root'
p350
aS'/eos/cms/store/group/phys_smp/AnalysisFramework/Baobab/Metin/gammaplusb/2017/MC/QCD_Pt-15to7000_TuneCUETP8M1_Flat_13TeV_pythia8/7D4115BF-414B-FF45-95C2-C0C298FC33A2.root'
p351
aS'/eos/cms/store/group/phys_smp/AnalysisFramework/Baobab/Metin/gammaplusb/2017/MC/QCD_Pt-15to7000_TuneCUETP8M1_Flat_13TeV_pythia8/D815A5A8-FD3C-4143-B661-6578179D8A47.root'
p352
aS'/eos/cms/store/group/phys_smp/AnalysisFramework/Baobab/Metin/gammaplusb/2017/MC/QCD_Pt-15to7000_TuneCUETP8M1_Flat_13TeV_pythia8/18F0C4B2-5C19-F547-8D88-9B7A1867321B.root'
p353
aS'/eos/cms/store/group/phys_smp/AnalysisFramework/Baobab/Metin/gammaplusb/2017/MC/QCD_Pt-15to7000_TuneCUETP8M1_Flat_13TeV_pythia8/5EC4CA05-51A1-6946-8CCD-E3FF48D157F4.root'
p354
aS'/eos/cms/store/group/phys_smp/AnalysisFramework/Baobab/Metin/gammaplusb/2017/MC/QCD_Pt-15to7000_TuneCUETP8M1_Flat_13TeV_pythia8/705C5006-5C59-5743-A8EF-4DCBFFC54BE7.root'
p355
aS'/eos/cms/store/group/phys_smp/AnalysisFramework/Baobab/Metin/gammaplusb/2017/MC/QCD_Pt-15to7000_TuneCUETP8M1_Flat_13TeV_pythia8/D8473C22-081C-314D-99AD-18F9B1D626E7.root'
p356
aS'/eos/cms/store/group/phys_smp/AnalysisFramework/Baobab/Metin/gammaplusb/2017/MC/QCD_Pt-15to7000_TuneCUETP8M1_Flat_13TeV_pythia8/4A477046-4D89-D54D-81A7-FABC94E0C65B.root'
p357
aS'/eos/cms/store/group/phys_smp/AnalysisFramework/Baobab/Metin/gammaplusb/2017/MC/QCD_Pt-15to7000_TuneCUETP8M1_Flat_13TeV_pythia8/B6B3FFA9-17BA-8844-9611-3CD6813412E0.root'
p358
aS'/eos/cms/store/group/phys_smp/AnalysisFramework/Baobab/Metin/gammaplusb/2017/MC/QCD_Pt-15to7000_TuneCUETP8M1_Flat_13TeV_pythia8/1CCF6F8B-DDEB-1942-8B7F-6679CBBD34EB.root'
p359
aS'/eos/cms/store/group/phys_smp/AnalysisFramework/Baobab/Metin/gammaplusb/2017/MC/QCD_Pt-15to7000_TuneCUETP8M1_Flat_13TeV_pythia8/3DAD047A-48E4-344D-A25F-6F77BBDC1F4B.root'
p360
aS'/eos/cms/store/group/phys_smp/AnalysisFramework/Baobab/Metin/gammaplusb/2017/MC/QCD_Pt-15to7000_TuneCUETP8M1_Flat_13TeV_pythia8/9F87994A-D83A-4E43-ACB2-EF6B52B6B17B.root'
p361
aS'/eos/cms/store/group/phys_smp/AnalysisFramework/Baobab/Metin/gammaplusb/2017/MC/QCD_Pt-15to7000_TuneCUETP8M1_Flat_13TeV_pythia8/FAB9411A-AB47-CA43-A244-087A2FB28733.root'
p362
aS'/eos/cms/store/group/phys_smp/AnalysisFramework/Baobab/Metin/gammaplusb/2017/MC/QCD_Pt-15to7000_TuneCUETP8M1_Flat_13TeV_pythia8/DF6298A3-E081-9542-A6BE-8F4263D06A9E.root'
p363
aS'/eos/cms/store/group/phys_smp/AnalysisFramework/Baobab/Metin/gammaplusb/2017/MC/QCD_Pt-15to7000_TuneCUETP8M1_Flat_13TeV_pythia8/366A270E-944F-6E42-912C-0DE77E6F4976.root'
p364
aS'/eos/cms/store/group/phys_smp/AnalysisFramework/Baobab/Metin/gammaplusb/2017/MC/QCD_Pt-15to7000_TuneCUETP8M1_Flat_13TeV_pythia8/65A83FC7-E8BD-0B42-98A8-85FE09DE3808.root'
p365
aS'/eos/cms/store/group/phys_smp/AnalysisFramework/Baobab/Metin/gammaplusb/2017/MC/QCD_Pt-15to7000_TuneCUETP8M1_Flat_13TeV_pythia8/FD9D7601-4DE0-494E-B670-E526B02E94E5.root'
p366
aS'/eos/cms/store/group/phys_smp/AnalysisFramework/Baobab/Metin/gammaplusb/2017/MC/QCD_Pt-15to7000_TuneCUETP8M1_Flat_13TeV_pythia8/6355DB62-9BFD-A047-B77A-5385797AC303.root'
p367
aS'/eos/cms/store/group/phys_smp/AnalysisFramework/Baobab/Metin/gammaplusb/2017/MC/QCD_Pt-15to7000_TuneCUETP8M1_Flat_13TeV_pythia8/E28040CB-6E09-5048-9E71-0482C44A000B.root'
p368
asg30
F1361000000.0
sg31
S'/QCD_Pt-15to7000_TuneCUETP8M1_Flat_13TeV_pythia8/RunIIFall17NanoAODv7-PU2017_12Apr2018_Nano02Apr2020_102X_mc2017_realistic_v8-v1/NANOAODSIM'
p369
ssg156
(dp370
g6
F37.33
sg7
F0.3049
sg8
F0.02302
sg9
(lp371
S'/eos/cms/store/group/phys_smp/AnalysisFramework/Baobab/Metin/gammaplusb/2017/MC/TTGJets_TuneCP5_13TeV-amcatnloFXFX-madspin-pythia8/7B6C2063-671E-7344-B7C3-A4A6C36C7936.root'
p372
aS'/eos/cms/store/group/phys_smp/AnalysisFramework/Baobab/Metin/gammaplusb/2017/MC/TTGJets_TuneCP5_13TeV-amcatnloFXFX-madspin-pythia8/8BCA56AA-F972-194E-AF2D-9B9848537040.root'
p373
aS'/eos/cms/store/group/phys_smp/AnalysisFramework/Baobab/Metin/gammaplusb/2017/MC/TTGJets_TuneCP5_13TeV-amcatnloFXFX-madspin-pythia8/BB349952-2F6A-0443-A90B-F9874967EE7B.root'
p374
aS'/eos/cms/store/group/phys_smp/AnalysisFramework/Baobab/Metin/gammaplusb/2017/MC/TTGJets_TuneCP5_13TeV-amcatnloFXFX-madspin-pythia8/CAE33C09-8E35-5A40-98D6-41F80581BE19.root'
p375
aS'/eos/cms/store/group/phys_smp/AnalysisFramework/Baobab/Metin/gammaplusb/2017/MC/TTGJets_TuneCP5_13TeV-amcatnloFXFX-madspin-pythia8/FAACB4B7-33ED-5C4F-B49D-E0015CF1227A.root'
p376
aS'/eos/cms/store/group/phys_smp/AnalysisFramework/Baobab/Metin/gammaplusb/2017/MC/TTGJets_TuneCP5_13TeV-amcatnloFXFX-madspin-pythia8/9C3216DE-098F-7F40-8055-9B8F204C1623.root'
p377
aS'/eos/cms/store/group/phys_smp/AnalysisFramework/Baobab/Metin/gammaplusb/2017/MC/TTGJets_TuneCP5_13TeV-amcatnloFXFX-madspin-pythia8/F1316180-A735-F043-BFF9-B8DC6B513388.root'
p378
aS'/eos/cms/store/group/phys_smp/AnalysisFramework/Baobab/Metin/gammaplusb/2017/MC/TTGJets_TuneCP5_13TeV-amcatnloFXFX-madspin-pythia8/5C4E5DD2-EF1D-4148-931B-074ECBC24B15.root'
p379
aS'/eos/cms/store/group/phys_smp/AnalysisFramework/Baobab/Metin/gammaplusb/2017/MC/TTGJets_TuneCP5_13TeV-amcatnloFXFX-madspin-pythia8/3EB1A3CC-3298-C347-9BFB-EAE93B6F2303.root'
p380
aS'/eos/cms/store/group/phys_smp/AnalysisFramework/Baobab/Metin/gammaplusb/2017/MC/TTGJets_TuneCP5_13TeV-amcatnloFXFX-madspin-pythia8/E8E18DE2-879F-9C48-B379-94514F96C322.root'
p381
aS'/eos/cms/store/group/phys_smp/AnalysisFramework/Baobab/Metin/gammaplusb/2017/MC/TTGJets_TuneCP5_13TeV-amcatnloFXFX-madspin-pythia8/ABE5433A-14C6-E94B-981A-4E3F98464751.root'
p382
aS'/eos/cms/store/group/phys_smp/AnalysisFramework/Baobab/Metin/gammaplusb/2017/MC/TTGJets_TuneCP5_13TeV-amcatnloFXFX-madspin-pythia8/619AB5B4-12B6-144E-867B-265AA02CD498.root'
p383
asg30
F4.078
sg31
g169
ssg170
(dp384
g6
F1.432
sg7
F0.00401
sg8
F0.0
sg9
(lp385
S'/eos/cms/store/group/phys_smp/AnalysisFramework/Baobab/Metin/gammaplusb/2017/MC/TT_TuneCH3_13TeV-powheg-herwig7/130C1D89-8525-1348-917E-57373244670B.root'
p386
aS'/eos/cms/store/group/phys_smp/AnalysisFramework/Baobab/Metin/gammaplusb/2017/MC/TT_TuneCH3_13TeV-powheg-herwig7/A243B7FD-1A77-8F41-B77B-CE61F257EC08.root'
p387
aS'/eos/cms/store/group/phys_smp/AnalysisFramework/Baobab/Metin/gammaplusb/2017/MC/TT_TuneCH3_13TeV-powheg-herwig7/91836F17-6EA5-EC46-8CA6-20DA62839B61.root'
p388
aS'/eos/cms/store/group/phys_smp/AnalysisFramework/Baobab/Metin/gammaplusb/2017/MC/TT_TuneCH3_13TeV-powheg-herwig7/C1552D2B-4A19-F245-BF73-071E7A0C78EB.root'
p389
aS'/eos/cms/store/group/phys_smp/AnalysisFramework/Baobab/Metin/gammaplusb/2017/MC/TT_TuneCH3_13TeV-powheg-herwig7/E84025DB-A396-DE4F-9DBD-24D2247DCE69.root'
p390
aS'/eos/cms/store/group/phys_smp/AnalysisFramework/Baobab/Metin/gammaplusb/2017/MC/TT_TuneCH3_13TeV-powheg-herwig7/C1EBB6EA-438E-C54D-A7DF-9760C747FFE6.root'
p391
aS'/eos/cms/store/group/phys_smp/AnalysisFramework/Baobab/Metin/gammaplusb/2017/MC/TT_TuneCH3_13TeV-powheg-herwig7/D7BA85EF-38FF-4A4E-9638-E3CC68DF9765.root'
p392
aS'/eos/cms/store/group/phys_smp/AnalysisFramework/Baobab/Metin/gammaplusb/2017/MC/TT_TuneCH3_13TeV-powheg-herwig7/0E7E08DD-9077-DB4F-B15D-CDE8CA7C97F5.root'
p393
aS'/eos/cms/store/group/phys_smp/AnalysisFramework/Baobab/Metin/gammaplusb/2017/MC/TT_TuneCH3_13TeV-powheg-herwig7/6D4222D2-1D24-4643-81FC-DA60CBC9061C.root'
p394
aS'/eos/cms/store/group/phys_smp/AnalysisFramework/Baobab/Metin/gammaplusb/2017/MC/TT_TuneCH3_13TeV-powheg-herwig7/7E99CA04-5B5B-6247-97D7-728A1D8D4AA1.root'
p395
aS'/eos/cms/store/group/phys_smp/AnalysisFramework/Baobab/Metin/gammaplusb/2017/MC/TT_TuneCH3_13TeV-powheg-herwig7/466AA2B4-9F6D-1147-B2E3-3650010A2DB0.root'
p396
aS'/eos/cms/store/group/phys_smp/AnalysisFramework/Baobab/Metin/gammaplusb/2017/MC/TT_TuneCH3_13TeV-powheg-herwig7/4CDC7B42-A52E-844A-A55E-4738639C3362.root'
p397
aS'/eos/cms/store/group/phys_smp/AnalysisFramework/Baobab/Metin/gammaplusb/2017/MC/TT_TuneCH3_13TeV-powheg-herwig7/60D489FF-5E58-9340-BA88-9FF956BAC9F7.root'
p398
aS'/eos/cms/store/group/phys_smp/AnalysisFramework/Baobab/Metin/gammaplusb/2017/MC/TT_TuneCH3_13TeV-powheg-herwig7/32C87F13-BD52-F441-AA75-DC2BDD2B5B27.root'
p399
aS'/eos/cms/store/group/phys_smp/AnalysisFramework/Baobab/Metin/gammaplusb/2017/MC/TT_TuneCH3_13TeV-powheg-herwig7/4BEBC575-3631-8049-9517-B648139E2DFE.root'
p400
aS'/eos/cms/store/group/phys_smp/AnalysisFramework/Baobab/Metin/gammaplusb/2017/MC/TT_TuneCH3_13TeV-powheg-herwig7/951F75A5-4C8E-0842-9C63-075835DED10C.root'
p401
aS'/eos/cms/store/group/phys_smp/AnalysisFramework/Baobab/Metin/gammaplusb/2017/MC/TT_TuneCH3_13TeV-powheg-herwig7/D7813514-657D-FF42-9646-BFF0FFEC1217.root'
p402
aS'/eos/cms/store/group/phys_smp/AnalysisFramework/Baobab/Metin/gammaplusb/2017/MC/TT_TuneCH3_13TeV-powheg-herwig7/C5F57BE5-D6FA-FB48-8849-6A82BF33004D.root'
p403
aS'/eos/cms/store/group/phys_smp/AnalysisFramework/Baobab/Metin/gammaplusb/2017/MC/TT_TuneCH3_13TeV-powheg-herwig7/EBEBEFC0-F45B-8A4A-9A22-D35B3E56EB2A.root'
p404
aS'/eos/cms/store/group/phys_smp/AnalysisFramework/Baobab/Metin/gammaplusb/2017/MC/TT_TuneCH3_13TeV-powheg-herwig7/D3639CC4-55F6-FB4E-9A4A-162CEF41B4FF.root'
p405
aS'/eos/cms/store/group/phys_smp/AnalysisFramework/Baobab/Metin/gammaplusb/2017/MC/TT_TuneCH3_13TeV-powheg-herwig7/CD675F3B-5805-D544-BC20-BC7DBAF69DA1.root'
p406
aS'/eos/cms/store/group/phys_smp/AnalysisFramework/Baobab/Metin/gammaplusb/2017/MC/TT_TuneCH3_13TeV-powheg-herwig7/F7E887BF-911B-EA4D-B431-155F684F4B7C.root'
p407
aS'/eos/cms/store/group/phys_smp/AnalysisFramework/Baobab/Metin/gammaplusb/2017/MC/TT_TuneCH3_13TeV-powheg-herwig7/516E45B8-D53F-0743-933B-ECC767E972E4.root'
p408
aS'/eos/cms/store/group/phys_smp/AnalysisFramework/Baobab/Metin/gammaplusb/2017/MC/TT_TuneCH3_13TeV-powheg-herwig7/539C41D8-1645-5C43-866D-31ADB0105F89.root'
p409
aS'/eos/cms/store/group/phys_smp/AnalysisFramework/Baobab/Metin/gammaplusb/2017/MC/TT_TuneCH3_13TeV-powheg-herwig7/979D89D3-8ED4-E141-84E5-4D0F96FAAABC.root'
p410
aS'/eos/cms/store/group/phys_smp/AnalysisFramework/Baobab/Metin/gammaplusb/2017/MC/TT_TuneCH3_13TeV-powheg-herwig7/6F3EB072-96F0-0D48-B2CB-53049724B38D.root'
p411
aS'/eos/cms/store/group/phys_smp/AnalysisFramework/Baobab/Metin/gammaplusb/2017/MC/TT_TuneCH3_13TeV-powheg-herwig7/DED963EB-A8FE-284E-A777-B16DB2C4C7AA.root'
p412
aS'/eos/cms/store/group/phys_smp/AnalysisFramework/Baobab/Metin/gammaplusb/2017/MC/TT_TuneCH3_13TeV-powheg-herwig7/483E5AAC-1CE7-9347-B880-A93BEC3A2FB4.root'
p413
aS'/eos/cms/store/group/phys_smp/AnalysisFramework/Baobab/Metin/gammaplusb/2017/MC/TT_TuneCH3_13TeV-powheg-herwig7/B3E9D879-EAE4-844A-A12F-58AF64DFB336.root'
p414
aS'/eos/cms/store/group/phys_smp/AnalysisFramework/Baobab/Metin/gammaplusb/2017/MC/TT_TuneCH3_13TeV-powheg-herwig7/83DC0821-13A4-5D4A-9D97-6CCEBE2CDA1B.root'
p415
aS'/eos/cms/store/group/phys_smp/AnalysisFramework/Baobab/Metin/gammaplusb/2017/MC/TT_TuneCH3_13TeV-powheg-herwig7/8C91F9EC-74E7-4941-AFD7-B08BAAAAC98F.root'
p416
aS'/eos/cms/store/group/phys_smp/AnalysisFramework/Baobab/Metin/gammaplusb/2017/MC/TT_TuneCH3_13TeV-powheg-herwig7/AD7F424D-D399-B547-8555-DDE63466F282.root'
p417
aS'/eos/cms/store/group/phys_smp/AnalysisFramework/Baobab/Metin/gammaplusb/2017/MC/TT_TuneCH3_13TeV-powheg-herwig7/83C9A303-48E8-C843-86A3-85DFE57431C7.root'
p418
aS'/eos/cms/store/group/phys_smp/AnalysisFramework/Baobab/Metin/gammaplusb/2017/MC/TT_TuneCH3_13TeV-powheg-herwig7/B0320BBD-2E5B-AA4C-95BE-74F56410DC69.root'
p419
aS'/eos/cms/store/group/phys_smp/AnalysisFramework/Baobab/Metin/gammaplusb/2017/MC/TT_TuneCH3_13TeV-powheg-herwig7/8F02BC90-B755-C04D-9B33-53FF26C66AD8.root'
p420
aS'/eos/cms/store/group/phys_smp/AnalysisFramework/Baobab/Metin/gammaplusb/2017/MC/TT_TuneCH3_13TeV-powheg-herwig7/D968E00C-533F-7D4D-8525-294D3A8A6013.root'
p421
aS'/eos/cms/store/group/phys_smp/AnalysisFramework/Baobab/Metin/gammaplusb/2017/MC/TT_TuneCH3_13TeV-powheg-herwig7/9C2E622F-4B3D-6E4A-9210-AE5CFE77A270.root'
p422
aS'/eos/cms/store/group/phys_smp/AnalysisFramework/Baobab/Metin/gammaplusb/2017/MC/TT_TuneCH3_13TeV-powheg-herwig7/DDB6C3DA-C7F7-2340-B697-959DDE667D59.root'
p423
aS'/eos/cms/store/group/phys_smp/AnalysisFramework/Baobab/Metin/gammaplusb/2017/MC/TT_TuneCH3_13TeV-powheg-herwig7/EE5718EA-E93C-2E46-B7A7-76D6024CA8D1.root'
p424
aS'/eos/cms/store/group/phys_smp/AnalysisFramework/Baobab/Metin/gammaplusb/2017/MC/TT_TuneCH3_13TeV-powheg-herwig7/CD24845D-2FBB-2F4E-9312-07ABF52D21EC.root'
p425
aS'/eos/cms/store/group/phys_smp/AnalysisFramework/Baobab/Metin/gammaplusb/2017/MC/TT_TuneCH3_13TeV-powheg-herwig7/3207453A-9FB2-A844-84BC-A8A7D665A46D.root'
p426
aS'/eos/cms/store/group/phys_smp/AnalysisFramework/Baobab/Metin/gammaplusb/2017/MC/TT_TuneCH3_13TeV-powheg-herwig7/1E925ECA-2F52-A241-A0DC-A5F4193CBDEA.root'
p427
aS'/eos/cms/store/group/phys_smp/AnalysisFramework/Baobab/Metin/gammaplusb/2017/MC/TT_TuneCH3_13TeV-powheg-herwig7/59EB56BB-D057-0645-9B70-23546DE283DF.root'
p428
aS'/eos/cms/store/group/phys_smp/AnalysisFramework/Baobab/Metin/gammaplusb/2017/MC/TT_TuneCH3_13TeV-powheg-herwig7/59EF910D-3DDA-D747-96AC-D603AD65D09B.root'
p429
aS'/eos/cms/store/group/phys_smp/AnalysisFramework/Baobab/Metin/gammaplusb/2017/MC/TT_TuneCH3_13TeV-powheg-herwig7/BFE79B2D-F427-7C49-B876-1508A18B3D76.root'
p430
aS'/eos/cms/store/group/phys_smp/AnalysisFramework/Baobab/Metin/gammaplusb/2017/MC/TT_TuneCH3_13TeV-powheg-herwig7/6CF4F809-CF10-D24E-B2EE-51AACD51104D.root'
p431
aS'/eos/cms/store/group/phys_smp/AnalysisFramework/Baobab/Metin/gammaplusb/2017/MC/TT_TuneCH3_13TeV-powheg-herwig7/ED65286C-E962-2941-82E8-C3A2E8F88C95.root'
p432
aS'/eos/cms/store/group/phys_smp/AnalysisFramework/Baobab/Metin/gammaplusb/2017/MC/TT_TuneCH3_13TeV-powheg-herwig7/FB0206D5-3FE3-474E-BAFB-E8DE6F35C27E.root'
p433
aS'/eos/cms/store/group/phys_smp/AnalysisFramework/Baobab/Metin/gammaplusb/2017/MC/TT_TuneCH3_13TeV-powheg-herwig7/D270E321-00FB-2B46-AA27-51D32E493168.root'
p434
aS'/eos/cms/store/group/phys_smp/AnalysisFramework/Baobab/Metin/gammaplusb/2017/MC/TT_TuneCH3_13TeV-powheg-herwig7/51008E90-EBAE-6240-9EA1-E38170D91E19.root'
p435
aS'/eos/cms/store/group/phys_smp/AnalysisFramework/Baobab/Metin/gammaplusb/2017/MC/TT_TuneCH3_13TeV-powheg-herwig7/8F0B7DD0-B93C-9B48-A738-19D18F7033AB.root'
p436
aS'/eos/cms/store/group/phys_smp/AnalysisFramework/Baobab/Metin/gammaplusb/2017/MC/TT_TuneCH3_13TeV-powheg-herwig7/64A6B532-6004-9940-BC19-0CCBD0F09AE8.root'
p437
aS'/eos/cms/store/group/phys_smp/AnalysisFramework/Baobab/Metin/gammaplusb/2017/MC/TT_TuneCH3_13TeV-powheg-herwig7/1FB11876-FF47-B94A-82A1-D1019C65A770.root'
p438
aS'/eos/cms/store/group/phys_smp/AnalysisFramework/Baobab/Metin/gammaplusb/2017/MC/TT_TuneCH3_13TeV-powheg-herwig7/519F2E59-C9CE-A746-9D9F-426B4EC3CC2E.root'
p439
aS'/eos/cms/store/group/phys_smp/AnalysisFramework/Baobab/Metin/gammaplusb/2017/MC/TT_TuneCH3_13TeV-powheg-herwig7/CD03C4FB-F85E-0849-A579-BE91801F7E15.root'
p440
aS'/eos/cms/store/group/phys_smp/AnalysisFramework/Baobab/Metin/gammaplusb/2017/MC/TT_TuneCH3_13TeV-powheg-herwig7/33E214D5-8DAC-1341-8C75-76EF1A0F0E12.root'
p441
aS'/eos/cms/store/group/phys_smp/AnalysisFramework/Baobab/Metin/gammaplusb/2017/MC/TT_TuneCH3_13TeV-powheg-herwig7/D23748E9-E03E-CD47-ABA2-FA69D44A1A7C.root'
p442
aS'/eos/cms/store/group/phys_smp/AnalysisFramework/Baobab/Metin/gammaplusb/2017/MC/TT_TuneCH3_13TeV-powheg-herwig7/AA8694C4-6DC8-9642-9468-A59EBCA718D4.root'
p443
aS'/eos/cms/store/group/phys_smp/AnalysisFramework/Baobab/Metin/gammaplusb/2017/MC/TT_TuneCH3_13TeV-powheg-herwig7/84C8BF74-FD23-BC49-AC26-7C33C87FC0B7.root'
p444
aS'/eos/cms/store/group/phys_smp/AnalysisFramework/Baobab/Metin/gammaplusb/2017/MC/TT_TuneCH3_13TeV-powheg-herwig7/B5281339-5B75-3C4A-8C7F-E74AF28F3CB8.root'
p445
aS'/eos/cms/store/group/phys_smp/AnalysisFramework/Baobab/Metin/gammaplusb/2017/MC/TT_TuneCH3_13TeV-powheg-herwig7/6CAE7F52-1793-9C42-B9E0-47B601CCDB74.root'
p446
aS'/eos/cms/store/group/phys_smp/AnalysisFramework/Baobab/Metin/gammaplusb/2017/MC/TT_TuneCH3_13TeV-powheg-herwig7/E6B20CAC-1F7E-E349-AD6B-2D801761C7DF.root'
p447
aS'/eos/cms/store/group/phys_smp/AnalysisFramework/Baobab/Metin/gammaplusb/2017/MC/TT_TuneCH3_13TeV-powheg-herwig7/7E091E3F-BCBE-A449-9AEF-CC51336CC4DB.root'
p448
aS'/eos/cms/store/group/phys_smp/AnalysisFramework/Baobab/Metin/gammaplusb/2017/MC/TT_TuneCH3_13TeV-powheg-herwig7/008CB259-DAF4-7945-B450-2D855306A23A.root'
p449
aS'/eos/cms/store/group/phys_smp/AnalysisFramework/Baobab/Metin/gammaplusb/2017/MC/TT_TuneCH3_13TeV-powheg-herwig7/4E2C5BC6-407A-2C45-B4FD-BD4F99E7A558.root'
p450
aS'/eos/cms/store/group/phys_smp/AnalysisFramework/Baobab/Metin/gammaplusb/2017/MC/TT_TuneCH3_13TeV-powheg-herwig7/3AAC2A17-9DF9-7847-A92F-8C8458E540DF.root'
p451
aS'/eos/cms/store/group/phys_smp/AnalysisFramework/Baobab/Metin/gammaplusb/2017/MC/TT_TuneCH3_13TeV-powheg-herwig7/AAA8ECCE-779A-E349-BC08-0131B8700240.root'
p452
aS'/eos/cms/store/group/phys_smp/AnalysisFramework/Baobab/Metin/gammaplusb/2017/MC/TT_TuneCH3_13TeV-powheg-herwig7/7BE23620-BCC1-0B4B-A1D3-30898C44A203.root'
p453
aS'/eos/cms/store/group/phys_smp/AnalysisFramework/Baobab/Metin/gammaplusb/2017/MC/TT_TuneCH3_13TeV-powheg-herwig7/C91463FD-F36F-5046-9E62-9B2D01F0A10C.root'
p454
aS'/eos/cms/store/group/phys_smp/AnalysisFramework/Baobab/Metin/gammaplusb/2017/MC/TT_TuneCH3_13TeV-powheg-herwig7/AD84A9A2-6C34-C34C-8E47-3FAE7A6A81C9.root'
p455
aS'/eos/cms/store/group/phys_smp/AnalysisFramework/Baobab/Metin/gammaplusb/2017/MC/TT_TuneCH3_13TeV-powheg-herwig7/4171CFD3-3FA2-2A47-A245-7E5AD5BD1A7F.root'
p456
aS'/eos/cms/store/group/phys_smp/AnalysisFramework/Baobab/Metin/gammaplusb/2017/MC/TT_TuneCH3_13TeV-powheg-herwig7/075F10ED-5B91-3C45-970A-FCF40739CB08.root'
p457
aS'/eos/cms/store/group/phys_smp/AnalysisFramework/Baobab/Metin/gammaplusb/2017/MC/TT_TuneCH3_13TeV-powheg-herwig7/C55481F3-1855-DC4A-A546-75DAA7240EBF.root'
p458
aS'/eos/cms/store/group/phys_smp/AnalysisFramework/Baobab/Metin/gammaplusb/2017/MC/TT_TuneCH3_13TeV-powheg-herwig7/6B11DB35-E9CE-8744-AE03-A4B3BE779A73.root'
p459
aS'/eos/cms/store/group/phys_smp/AnalysisFramework/Baobab/Metin/gammaplusb/2017/MC/TT_TuneCH3_13TeV-powheg-herwig7/030D146B-1134-444B-8FE1-8C100A3017CA.root'
p460
aS'/eos/cms/store/group/phys_smp/AnalysisFramework/Baobab/Metin/gammaplusb/2017/MC/TT_TuneCH3_13TeV-powheg-herwig7/074E8AA2-9F1C-AA4B-9C46-D3FE82DE7530.root'
p461
aS'/eos/cms/store/group/phys_smp/AnalysisFramework/Baobab/Metin/gammaplusb/2017/MC/TT_TuneCH3_13TeV-powheg-herwig7/AFB8A4C5-7E70-8748-A1A7-395C1CEAB9B2.root'
p462
aS'/eos/cms/store/group/phys_smp/AnalysisFramework/Baobab/Metin/gammaplusb/2017/MC/TT_TuneCH3_13TeV-powheg-herwig7/B045BAFB-38DC-7E4A-94B4-CEF317B44A3D.root'
p463
aS'/eos/cms/store/group/phys_smp/AnalysisFramework/Baobab/Metin/gammaplusb/2017/MC/TT_TuneCH3_13TeV-powheg-herwig7/02ACA013-D2DB-3E40-9FA0-30755BC08EF0.root'
p464
aS'/eos/cms/store/group/phys_smp/AnalysisFramework/Baobab/Metin/gammaplusb/2017/MC/TT_TuneCH3_13TeV-powheg-herwig7/63F376D5-AC01-F24E-AE50-8A17E2728877.root'
p465
aS'/eos/cms/store/group/phys_smp/AnalysisFramework/Baobab/Metin/gammaplusb/2017/MC/TT_TuneCH3_13TeV-powheg-herwig7/C564BF4F-339D-8245-BAA9-A67928F4BAFF.root'
p466
aS'/eos/cms/store/group/phys_smp/AnalysisFramework/Baobab/Metin/gammaplusb/2017/MC/TT_TuneCH3_13TeV-powheg-herwig7/3F8FF349-863C-E94B-BE99-6174FC31553E.root'
p467
aS'/eos/cms/store/group/phys_smp/AnalysisFramework/Baobab/Metin/gammaplusb/2017/MC/TT_TuneCH3_13TeV-powheg-herwig7/F0FC4364-19C2-8B46-82E5-F10884BE1703.root'
p468
aS'/eos/cms/store/group/phys_smp/AnalysisFramework/Baobab/Metin/gammaplusb/2017/MC/TT_TuneCH3_13TeV-powheg-herwig7/B744FF1B-5078-D64C-B864-65925883E49A.root'
p469
aS'/eos/cms/store/group/phys_smp/AnalysisFramework/Baobab/Metin/gammaplusb/2017/MC/TT_TuneCH3_13TeV-powheg-herwig7/603F5DDC-EFA7-9C45-9919-466584566CBE.root'
p470
aS'/eos/cms/store/group/phys_smp/AnalysisFramework/Baobab/Metin/gammaplusb/2017/MC/TT_TuneCH3_13TeV-powheg-herwig7/19436747-EC4B-ED49-A040-842C1D8B5D46.root'
p471
aS'/eos/cms/store/group/phys_smp/AnalysisFramework/Baobab/Metin/gammaplusb/2017/MC/TT_TuneCH3_13TeV-powheg-herwig7/942DCFCB-0104-0849-9677-C35158247344.root'
p472
aS'/eos/cms/store/group/phys_smp/AnalysisFramework/Baobab/Metin/gammaplusb/2017/MC/TT_TuneCH3_13TeV-powheg-herwig7/4DA4984A-B1F8-2140-9E66-7E8F0BDAEDF9.root'
p473
aS'/eos/cms/store/group/phys_smp/AnalysisFramework/Baobab/Metin/gammaplusb/2017/MC/TT_TuneCH3_13TeV-powheg-herwig7/F9D90C2C-ECBC-B049-9E71-6271C4CBBF7D.root'
p474
aS'/eos/cms/store/group/phys_smp/AnalysisFramework/Baobab/Metin/gammaplusb/2017/MC/TT_TuneCH3_13TeV-powheg-herwig7/9EFCD7D6-8FE0-5F4E-8182-7157CA6B81D1.root'
p475
aS'/eos/cms/store/group/phys_smp/AnalysisFramework/Baobab/Metin/gammaplusb/2017/MC/TT_TuneCH3_13TeV-powheg-herwig7/BAF640CE-9E4D-694E-98D2-60BDDEBD1C97.root'
p476
aS'/eos/cms/store/group/phys_smp/AnalysisFramework/Baobab/Metin/gammaplusb/2017/MC/TT_TuneCH3_13TeV-powheg-herwig7/400E64CA-A85E-A64F-99D8-3774B92C6CC8.root'
p477
aS'/eos/cms/store/group/phys_smp/AnalysisFramework/Baobab/Metin/gammaplusb/2017/MC/TT_TuneCH3_13TeV-powheg-herwig7/993771F7-904E-3E47-B443-CA3E83A17D6F.root'
p478
aS'/eos/cms/store/group/phys_smp/AnalysisFramework/Baobab/Metin/gammaplusb/2017/MC/TT_TuneCH3_13TeV-powheg-herwig7/26E12C67-41FB-8D4B-9A35-77AC560973C9.root'
p479
aS'/eos/cms/store/group/phys_smp/AnalysisFramework/Baobab/Metin/gammaplusb/2017/MC/TT_TuneCH3_13TeV-powheg-herwig7/AE37012D-B1C9-4843-85BC-C1675EB2318E.root'
p480
aS'/eos/cms/store/group/phys_smp/AnalysisFramework/Baobab/Metin/gammaplusb/2017/MC/TT_TuneCH3_13TeV-powheg-herwig7/86F52784-0F72-C444-A70F-E7D335CD1633.root'
p481
aS'/eos/cms/store/group/phys_smp/AnalysisFramework/Baobab/Metin/gammaplusb/2017/MC/TT_TuneCH3_13TeV-powheg-herwig7/BF0025F9-67D4-454D-8C6C-47BB75E761A0.root'
p482
aS'/eos/cms/store/group/phys_smp/AnalysisFramework/Baobab/Metin/gammaplusb/2017/MC/TT_TuneCH3_13TeV-powheg-herwig7/CDC94438-4670-E645-BE62-39DAB8D97422.root'
p483
aS'/eos/cms/store/group/phys_smp/AnalysisFramework/Baobab/Metin/gammaplusb/2017/MC/TT_TuneCH3_13TeV-powheg-herwig7/C9F9F07B-16B3-934C-83F5-AB596B7F62EB.root'
p484
aS'/eos/cms/store/group/phys_smp/AnalysisFramework/Baobab/Metin/gammaplusb/2017/MC/TT_TuneCH3_13TeV-powheg-herwig7/60B91077-71F1-F94B-83D2-A1DA9D3F4A37.root'
p485
aS'/eos/cms/store/group/phys_smp/AnalysisFramework/Baobab/Metin/gammaplusb/2017/MC/TT_TuneCH3_13TeV-powheg-herwig7/48012B6F-8459-BB4D-924B-A2C5401B50DC.root'
p486
aS'/eos/cms/store/group/phys_smp/AnalysisFramework/Baobab/Metin/gammaplusb/2017/MC/TT_TuneCH3_13TeV-powheg-herwig7/E954B5C1-AF2F-E04F-B9D6-8AA848AA3FA4.root'
p487
aS'/eos/cms/store/group/phys_smp/AnalysisFramework/Baobab/Metin/gammaplusb/2017/MC/TT_TuneCH3_13TeV-powheg-herwig7/67467542-654F-454B-9CDF-B53BC70E7E04.root'
p488
aS'/eos/cms/store/group/phys_smp/AnalysisFramework/Baobab/Metin/gammaplusb/2017/MC/TT_TuneCH3_13TeV-powheg-herwig7/635B7E1C-C847-ED42-AF31-30EB32EB5EEE.root'
p489
aS'/eos/cms/store/group/phys_smp/AnalysisFramework/Baobab/Metin/gammaplusb/2017/MC/TT_TuneCH3_13TeV-powheg-herwig7/00F5C70B-7483-114D-BCE6-EDF965D5E3B3.root'
p490
aS'/eos/cms/store/group/phys_smp/AnalysisFramework/Baobab/Metin/gammaplusb/2017/MC/TT_TuneCH3_13TeV-powheg-herwig7/E3988A3D-4D3C-3D41-A005-32340161336E.root'
p491
aS'/eos/cms/store/group/phys_smp/AnalysisFramework/Baobab/Metin/gammaplusb/2017/MC/TT_TuneCH3_13TeV-powheg-herwig7/DD740A13-B059-2341-88D4-FE9511BE69FE.root'
p492
aS'/eos/cms/store/group/phys_smp/AnalysisFramework/Baobab/Metin/gammaplusb/2017/MC/TT_TuneCH3_13TeV-powheg-herwig7/C4DB5C6A-F388-4340-B800-690940439445.root'
p493
aS'/eos/cms/store/group/phys_smp/AnalysisFramework/Baobab/Metin/gammaplusb/2017/MC/TT_TuneCH3_13TeV-powheg-herwig7/B1DCD6EB-3C5B-2C48-9B99-42FE08A342E5.root'
p494
aS'/eos/cms/store/group/phys_smp/AnalysisFramework/Baobab/Metin/gammaplusb/2017/MC/TT_TuneCH3_13TeV-powheg-herwig7/C2CC74E4-3EF6-E049-8127-E372AD672153.root'
p495
aS'/eos/cms/store/group/phys_smp/AnalysisFramework/Baobab/Metin/gammaplusb/2017/MC/TT_TuneCH3_13TeV-powheg-herwig7/ED753142-85B4-A84D-ADDC-6B9E2F788475.root'
p496
aS'/eos/cms/store/group/phys_smp/AnalysisFramework/Baobab/Metin/gammaplusb/2017/MC/TT_TuneCH3_13TeV-powheg-herwig7/8D24918B-D0CD-004A-B693-EC4AD8EB134D.root'
p497
aS'/eos/cms/store/group/phys_smp/AnalysisFramework/Baobab/Metin/gammaplusb/2017/MC/TT_TuneCH3_13TeV-powheg-herwig7/68CC65A9-3EA8-8E43-841A-F962313BEE9F.root'
p498
aS'/eos/cms/store/group/phys_smp/AnalysisFramework/Baobab/Metin/gammaplusb/2017/MC/TT_TuneCH3_13TeV-powheg-herwig7/38437268-4EDA-074E-B1ED-47968F8019AF.root'
p499
aS'/eos/cms/store/group/phys_smp/AnalysisFramework/Baobab/Metin/gammaplusb/2017/MC/TT_TuneCH3_13TeV-powheg-herwig7/27F7BFE6-D16F-3841-965C-949E4FBC09F3.root'
p500
aS'/eos/cms/store/group/phys_smp/AnalysisFramework/Baobab/Metin/gammaplusb/2017/MC/TT_TuneCH3_13TeV-powheg-herwig7/776BA6C3-6413-784B-92F0-CE2F6531460D.root'
p501
aS'/eos/cms/store/group/phys_smp/AnalysisFramework/Baobab/Metin/gammaplusb/2017/MC/TT_TuneCH3_13TeV-powheg-herwig7/CA7AB5A9-9259-444A-8DBE-C2B3E65CECD4.root'
p502
aS'/eos/cms/store/group/phys_smp/AnalysisFramework/Baobab/Metin/gammaplusb/2017/MC/TT_TuneCH3_13TeV-powheg-herwig7/B3BB6C6F-7621-FA45-B091-D9F6CE9EC71B.root'
p503
aS'/eos/cms/store/group/phys_smp/AnalysisFramework/Baobab/Metin/gammaplusb/2017/MC/TT_TuneCH3_13TeV-powheg-herwig7/37C33DD0-878F-B846-8587-6126ACF96F6F.root'
p504
aS'/eos/cms/store/group/phys_smp/AnalysisFramework/Baobab/Metin/gammaplusb/2017/MC/TT_TuneCH3_13TeV-powheg-herwig7/F27E6416-3A4D-0E4E-85CD-B7C7D635A7F9.root'
p505
aS'/eos/cms/store/group/phys_smp/AnalysisFramework/Baobab/Metin/gammaplusb/2017/MC/TT_TuneCH3_13TeV-powheg-herwig7/BA93E26A-73D9-7244-A6CA-4C2A7884F0AD.root'
p506
aS'/eos/cms/store/group/phys_smp/AnalysisFramework/Baobab/Metin/gammaplusb/2017/MC/TT_TuneCH3_13TeV-powheg-herwig7/2EBB6E8C-EFDA-F148-ABEF-6722825A0563.root'
p507
aS'/eos/cms/store/group/phys_smp/AnalysisFramework/Baobab/Metin/gammaplusb/2017/MC/TT_TuneCH3_13TeV-powheg-herwig7/10A03771-0A18-0E4B-87EA-EABDEC64B4B6.root'
p508
aS'/eos/cms/store/group/phys_smp/AnalysisFramework/Baobab/Metin/gammaplusb/2017/MC/TT_TuneCH3_13TeV-powheg-herwig7/F09C698B-8459-E54E-8AFB-A87A5FF6BF01.root'
p509
aS'/eos/cms/store/group/phys_smp/AnalysisFramework/Baobab/Metin/gammaplusb/2017/MC/TT_TuneCH3_13TeV-powheg-herwig7/B196EF83-82D2-5F45-8501-360E097266C9.root'
p510
aS'/eos/cms/store/group/phys_smp/AnalysisFramework/Baobab/Metin/gammaplusb/2017/MC/TT_TuneCH3_13TeV-powheg-herwig7/61498773-596E-A743-A1EE-B2C2CCBF4E56.root'
p511
aS'/eos/cms/store/group/phys_smp/AnalysisFramework/Baobab/Metin/gammaplusb/2017/MC/TT_TuneCH3_13TeV-powheg-herwig7/08DF90FF-431A-0C44-A656-468F13292499.root'
p512
aS'/eos/cms/store/group/phys_smp/AnalysisFramework/Baobab/Metin/gammaplusb/2017/MC/TT_TuneCH3_13TeV-powheg-herwig7/9B4FB9C4-8E86-FF44-B6D5-BC8CD69B0A84.root'
p513
aS'/eos/cms/store/group/phys_smp/AnalysisFramework/Baobab/Metin/gammaplusb/2017/MC/TT_TuneCH3_13TeV-powheg-herwig7/7E1F2D4C-C5D8-8543-A784-66B290578A1D.root'
p514
aS'/eos/cms/store/group/phys_smp/AnalysisFramework/Baobab/Metin/gammaplusb/2017/MC/TT_TuneCH3_13TeV-powheg-herwig7/0478A5B9-8844-D247-9F87-F495B578073D.root'
p515
aS'/eos/cms/store/group/phys_smp/AnalysisFramework/Baobab/Metin/gammaplusb/2017/MC/TT_TuneCH3_13TeV-powheg-herwig7/099C01EB-9E26-164D-9BC7-FEEDE933FCB8.root'
p516
aS'/eos/cms/store/group/phys_smp/AnalysisFramework/Baobab/Metin/gammaplusb/2017/MC/TT_TuneCH3_13TeV-powheg-herwig7/E3B03E66-8159-834F-9B8B-B97CC26A4676.root'
p517
aS'/eos/cms/store/group/phys_smp/AnalysisFramework/Baobab/Metin/gammaplusb/2017/MC/TT_TuneCH3_13TeV-powheg-herwig7/9431B466-C518-B846-9179-9D3B02792916.root'
p518
aS'/eos/cms/store/group/phys_smp/AnalysisFramework/Baobab/Metin/gammaplusb/2017/MC/TT_TuneCH3_13TeV-powheg-herwig7/5BD8D56A-1627-C34B-86F5-3A682B0AAE72.root'
p519
aS'/eos/cms/store/group/phys_smp/AnalysisFramework/Baobab/Metin/gammaplusb/2017/MC/TT_TuneCH3_13TeV-powheg-herwig7/9AE8F04F-0CEE-034E-82BF-7B6625F4BA49.root'
p520
aS'/eos/cms/store/group/phys_smp/AnalysisFramework/Baobab/Metin/gammaplusb/2017/MC/TT_TuneCH3_13TeV-powheg-herwig7/178B1D9E-D5CC-B646-B8CC-1D3A8B7EE821.root'
p521
aS'/eos/cms/store/group/phys_smp/AnalysisFramework/Baobab/Metin/gammaplusb/2017/MC/TT_TuneCH3_13TeV-powheg-herwig7/0C3F9EF7-2FFE-4641-B686-2ECBD3476854.root'
p522
aS'/eos/cms/store/group/phys_smp/AnalysisFramework/Baobab/Metin/gammaplusb/2017/MC/TT_TuneCH3_13TeV-powheg-herwig7/C527669E-6D3D-2C4D-BC09-FFD14CFB3C93.root'
p523
aS'/eos/cms/store/group/phys_smp/AnalysisFramework/Baobab/Metin/gammaplusb/2017/MC/TT_TuneCH3_13TeV-powheg-herwig7/66620DAC-7E67-1A4A-9ADB-CBC347E46754.root'
p524
aS'/eos/cms/store/group/phys_smp/AnalysisFramework/Baobab/Metin/gammaplusb/2017/MC/TT_TuneCH3_13TeV-powheg-herwig7/6F3D6997-F586-794D-B613-818FFDCB213E.root'
p525
aS'/eos/cms/store/group/phys_smp/AnalysisFramework/Baobab/Metin/gammaplusb/2017/MC/TT_TuneCH3_13TeV-powheg-herwig7/B82D947F-6FFA-FF4C-85E5-0028332895AA.root'
p526
aS'/eos/cms/store/group/phys_smp/AnalysisFramework/Baobab/Metin/gammaplusb/2017/MC/TT_TuneCH3_13TeV-powheg-herwig7/6AD226A3-A5D9-7C40-93D2-4DA23636FBE1.root'
p527
aS'/eos/cms/store/group/phys_smp/AnalysisFramework/Baobab/Metin/gammaplusb/2017/MC/TT_TuneCH3_13TeV-powheg-herwig7/8CC70D6C-461E-4A49-BA77-A38C18E88EFF.root'
p528
aS'/eos/cms/store/group/phys_smp/AnalysisFramework/Baobab/Metin/gammaplusb/2017/MC/TT_TuneCH3_13TeV-powheg-herwig7/CAF71C13-1A04-094E-AC8A-C3DFA69C268F.root'
p529
aS'/eos/cms/store/group/phys_smp/AnalysisFramework/Baobab/Metin/gammaplusb/2017/MC/TT_TuneCH3_13TeV-powheg-herwig7/5362F18A-06A3-DC46-8287-B5027A8F1588.root'
p530
aS'/eos/cms/store/group/phys_smp/AnalysisFramework/Baobab/Metin/gammaplusb/2017/MC/TT_TuneCH3_13TeV-powheg-herwig7/13B26622-FF13-C045-B9B2-2200881D7059.root'
p531
aS'/eos/cms/store/group/phys_smp/AnalysisFramework/Baobab/Metin/gammaplusb/2017/MC/TT_TuneCH3_13TeV-powheg-herwig7/DBE69B83-33E8-0C47-A1B6-F8392278A93E.root'
p532
aS'/eos/cms/store/group/phys_smp/AnalysisFramework/Baobab/Metin/gammaplusb/2017/MC/TT_TuneCH3_13TeV-powheg-herwig7/B20554DE-CE85-EF40-8B6A-BA2230243445.root'
p533
aS'/eos/cms/store/group/phys_smp/AnalysisFramework/Baobab/Metin/gammaplusb/2017/MC/TT_TuneCH3_13TeV-powheg-herwig7/612FD9A3-91EF-E14A-A8D8-800E5A72FBE4.root'
p534
aS'/eos/cms/store/group/phys_smp/AnalysisFramework/Baobab/Metin/gammaplusb/2017/MC/TT_TuneCH3_13TeV-powheg-herwig7/01781700-AF43-C949-9942-59E1BA42D9BC.root'
p535
aS'/eos/cms/store/group/phys_smp/AnalysisFramework/Baobab/Metin/gammaplusb/2017/MC/TT_TuneCH3_13TeV-powheg-herwig7/98ACF7DF-22D5-3949-88DB-01A773170DD6.root'
p536
aS'/eos/cms/store/group/phys_smp/AnalysisFramework/Baobab/Metin/gammaplusb/2017/MC/TT_TuneCH3_13TeV-powheg-herwig7/CFF722C9-2D27-E24E-A229-DBAB881CE2F6.root'
p537
aS'/eos/cms/store/group/phys_smp/AnalysisFramework/Baobab/Metin/gammaplusb/2017/MC/TT_TuneCH3_13TeV-powheg-herwig7/2679FC46-357C-0646-A94F-526DE91C3C8C.root'
p538
aS'/eos/cms/store/group/phys_smp/AnalysisFramework/Baobab/Metin/gammaplusb/2017/MC/TT_TuneCH3_13TeV-powheg-herwig7/BB2F46DC-63C9-444A-AE03-79EADF474900.root'
p539
aS'/eos/cms/store/group/phys_smp/AnalysisFramework/Baobab/Metin/gammaplusb/2017/MC/TT_TuneCH3_13TeV-powheg-herwig7/A93E2A43-A65D-2347-8C71-3EEEE71A0953.root'
p540
asg30
F687.2
sg31
S'/TT_TuneCH3_13TeV-powheg-herwig7/RunIIFall17NanoAODv7-PU2017_12Apr2018_Nano02Apr2020_102X_mc2017_realistic_v8-v1/NANOAODSIM'
p541
ssg245
(dp542
g6
F12.52
sg7
F0.4022
sg8
F0.01255
sg9
(lp543
S'/eos/cms/store/group/phys_smp/AnalysisFramework/Baobab/Metin/gammaplusb/2017/MC/TGJets_TuneCP5_13TeV_amcatnlo_madspin_pythia8/4ECA191F-AC8F-4A47-8095-E20E6E754558.root'
p544
aS'/eos/cms/store/group/phys_smp/AnalysisFramework/Baobab/Metin/gammaplusb/2017/MC/TGJets_TuneCP5_13TeV_amcatnlo_madspin_pythia8/DC14F433-CDDE-7A41-A19E-42EF8FE5F3BA.root'
p545
aS'/eos/cms/store/group/phys_smp/AnalysisFramework/Baobab/Metin/gammaplusb/2017/MC/TGJets_TuneCP5_13TeV_amcatnlo_madspin_pythia8/D7F54979-1E0F-2D4B-88A8-ADE629485550.root'
p546
aS'/eos/cms/store/group/phys_smp/AnalysisFramework/Baobab/Metin/gammaplusb/2017/MC/TGJets_TuneCP5_13TeV_amcatnlo_madspin_pythia8/A62CFD32-007B-7A42-891C-1D083E49117C.root'
p547
aS'/eos/cms/store/group/phys_smp/AnalysisFramework/Baobab/Metin/gammaplusb/2017/MC/TGJets_TuneCP5_13TeV_amcatnlo_madspin_pythia8/BF859D93-2E8E-D644-85A5-56EF91351E48.root'
p548
aS'/eos/cms/store/group/phys_smp/AnalysisFramework/Baobab/Metin/gammaplusb/2017/MC/TGJets_TuneCP5_13TeV_amcatnlo_madspin_pythia8/0996B688-6E6A-1A4C-80BB-346F36229BB6.root'
p549
aS'/eos/cms/store/group/phys_smp/AnalysisFramework/Baobab/Metin/gammaplusb/2017/MC/TGJets_TuneCP5_13TeV_amcatnlo_madspin_pythia8/89A06D03-32F2-1046-A237-0191F5FBADE1.root'
p550
aS'/eos/cms/store/group/phys_smp/AnalysisFramework/Baobab/Metin/gammaplusb/2017/MC/TGJets_TuneCP5_13TeV_amcatnlo_madspin_pythia8/17F76CFC-D5E4-1644-97CB-E97A4811538F.root'
p551
aS'/eos/cms/store/group/phys_smp/AnalysisFramework/Baobab/Metin/gammaplusb/2017/MC/TGJets_TuneCP5_13TeV_amcatnlo_madspin_pythia8/687BEBD3-F8E9-8C47-9D45-66971EE48AB5.root'
p552
aS'/eos/cms/store/group/phys_smp/AnalysisFramework/Baobab/Metin/gammaplusb/2017/MC/TGJets_TuneCP5_13TeV_amcatnlo_madspin_pythia8/09F5F85E-DD52-E242-85D9-008C2506CF84.root'
p553
aS'/eos/cms/store/group/phys_smp/AnalysisFramework/Baobab/Metin/gammaplusb/2017/MC/TGJets_TuneCP5_13TeV_amcatnlo_madspin_pythia8/6174E5F6-55CD-A343-8BD7-C9A4D90A9931.root'
p554
aS'/eos/cms/store/group/phys_smp/AnalysisFramework/Baobab/Metin/gammaplusb/2017/MC/TGJets_TuneCP5_13TeV_amcatnlo_madspin_pythia8/1854A452-5C00-034E-8F66-E036803D74F2.root'
p555
aS'/eos/cms/store/group/phys_smp/AnalysisFramework/Baobab/Metin/gammaplusb/2017/MC/TGJets_TuneCP5_13TeV_amcatnlo_madspin_pythia8/92EB2D9A-F6BF-0542-9F27-0F28C9D4FB10.root'
p556
aS'/eos/cms/store/group/phys_smp/AnalysisFramework/Baobab/Metin/gammaplusb/2017/MC/TGJets_TuneCP5_13TeV_amcatnlo_madspin_pythia8/2D3322F6-F21A-1F42-8141-8F3D21FD907E.root'
p557
aS'/eos/cms/store/group/phys_smp/AnalysisFramework/Baobab/Metin/gammaplusb/2017/MC/TGJets_TuneCP5_13TeV_amcatnlo_madspin_pythia8/6F43C9B0-6986-B04C-80B1-58ECFFDDD948.root'
p558
aS'/eos/cms/store/group/phys_smp/AnalysisFramework/Baobab/Metin/gammaplusb/2017/MC/TGJets_TuneCP5_13TeV_amcatnlo_madspin_pythia8/911C81F7-1C9D-6044-9775-B0181462D296.root'
p559
aS'/eos/cms/store/group/phys_smp/AnalysisFramework/Baobab/Metin/gammaplusb/2017/MC/TGJets_TuneCP5_13TeV_amcatnlo_madspin_pythia8/7A30813E-AB0F-4544-A0CC-E2CD6A26541F.root'
p560
aS'/eos/cms/store/group/phys_smp/AnalysisFramework/Baobab/Metin/gammaplusb/2017/MC/TGJets_TuneCP5_13TeV_amcatnlo_madspin_pythia8/77C393EA-CF50-0441-B41B-82E4DFE78A58.root'
p561
aS'/eos/cms/store/group/phys_smp/AnalysisFramework/Baobab/Metin/gammaplusb/2017/MC/TGJets_TuneCP5_13TeV_amcatnlo_madspin_pythia8/C62FEF76-AF79-CD45-86FE-6D849DA8B40F.root'
p562
aS'/eos/cms/store/group/phys_smp/AnalysisFramework/Baobab/Metin/gammaplusb/2017/MC/TGJets_TuneCP5_13TeV_amcatnlo_madspin_pythia8/FE2341DA-5DF1-6240-83D1-0E78AAA7007F.root'
p563
aS'/eos/cms/store/group/phys_smp/AnalysisFramework/Baobab/Metin/gammaplusb/2017/MC/TGJets_TuneCP5_13TeV_amcatnlo_madspin_pythia8/5BD3535E-1573-2343-8BC6-C6F225D8567F.root'
p564
aS'/eos/cms/store/group/phys_smp/AnalysisFramework/Baobab/Metin/gammaplusb/2017/MC/TGJets_TuneCP5_13TeV_amcatnlo_madspin_pythia8/476F8365-D8D6-0941-BB09-0129B4C86730.root'
p565
aS'/eos/cms/store/group/phys_smp/AnalysisFramework/Baobab/Metin/gammaplusb/2017/MC/TGJets_TuneCP5_13TeV_amcatnlo_madspin_pythia8/B23442E2-4083-2C40-8953-FF4E007D8BD6.root'
p566
aS'/eos/cms/store/group/phys_smp/AnalysisFramework/Baobab/Metin/gammaplusb/2017/MC/TGJets_TuneCP5_13TeV_amcatnlo_madspin_pythia8/568E3493-2992-B340-BD35-6817ABFCF7A0.root'
p567
aS'/eos/cms/store/group/phys_smp/AnalysisFramework/Baobab/Metin/gammaplusb/2017/MC/TGJets_TuneCP5_13TeV_amcatnlo_madspin_pythia8/9F66A6A9-52D3-2541-A539-702A5C6A7A90.root'
p568
aS'/eos/cms/store/group/phys_smp/AnalysisFramework/Baobab/Metin/gammaplusb/2017/MC/TGJets_TuneCP5_13TeV_amcatnlo_madspin_pythia8/99CB0E5F-4AD4-6245-962A-9DB308A2B231.root'
p569
aS'/eos/cms/store/group/phys_smp/AnalysisFramework/Baobab/Metin/gammaplusb/2017/MC/TGJets_TuneCP5_13TeV_amcatnlo_madspin_pythia8/2355F1C0-C01F-854C-B645-3F20242B6F0E.root'
p570
aS'/eos/cms/store/group/phys_smp/AnalysisFramework/Baobab/Metin/gammaplusb/2017/MC/TGJets_TuneCP5_13TeV_amcatnlo_madspin_pythia8/411AE6C5-8D39-DB4A-A091-B3EFF234F72B.root'
p571
asg30
F3.055
sg31
g249
ssg250
(dp572
g6
F28.2
sg7
F0.0034
sg8
F0.02827
sg9
(lp573
S'/eos/cms/store/group/phys_smp/AnalysisFramework/Baobab/Metin/gammaplusb/2017/MC/ST_tW_antitop_5f_inclusiveDecays_TuneCP5_13TeV-powheg-pythia8/10DE469C-746A-7442-BC1D-2D1B485C3969.root'
p574
aS'/eos/cms/store/group/phys_smp/AnalysisFramework/Baobab/Metin/gammaplusb/2017/MC/ST_tW_antitop_5f_inclusiveDecays_TuneCP5_13TeV-powheg-pythia8/123CBDD1-E779-9A49-AD7F-4D956372785F.root'
p575
aS'/eos/cms/store/group/phys_smp/AnalysisFramework/Baobab/Metin/gammaplusb/2017/MC/ST_tW_antitop_5f_inclusiveDecays_TuneCP5_13TeV-powheg-pythia8/5867DB5B-D5F0-A24A-A64B-D42C9689172D.root'
p576
aS'/eos/cms/store/group/phys_smp/AnalysisFramework/Baobab/Metin/gammaplusb/2017/MC/ST_tW_antitop_5f_inclusiveDecays_TuneCP5_13TeV-powheg-pythia8/61379F25-EA58-2A4A-8755-606D98E467FE.root'
p577
aS'/eos/cms/store/group/phys_smp/AnalysisFramework/Baobab/Metin/gammaplusb/2017/MC/ST_tW_antitop_5f_inclusiveDecays_TuneCP5_13TeV-powheg-pythia8/A8F9B37A-B3ED-4F42-84D3-BEAE9DF1A47A.root'
p578
aS'/eos/cms/store/group/phys_smp/AnalysisFramework/Baobab/Metin/gammaplusb/2017/MC/ST_tW_antitop_5f_inclusiveDecays_TuneCP5_13TeV-powheg-pythia8/A95ED051-C358-304A-A900-BA2734CE56FF.root'
p579
aS'/eos/cms/store/group/phys_smp/AnalysisFramework/Baobab/Metin/gammaplusb/2017/MC/ST_tW_antitop_5f_inclusiveDecays_TuneCP5_13TeV-powheg-pythia8/B975DCCD-E8F7-3A40-A39D-F13957857815.root'
p580
aS'/eos/cms/store/group/phys_smp/AnalysisFramework/Baobab/Metin/gammaplusb/2017/MC/ST_tW_antitop_5f_inclusiveDecays_TuneCP5_13TeV-powheg-pythia8/C36D588D-296B-314A-A675-6F0A2A50FF53.root'
p581
aS'/eos/cms/store/group/phys_smp/AnalysisFramework/Baobab/Metin/gammaplusb/2017/MC/ST_tW_antitop_5f_inclusiveDecays_TuneCP5_13TeV-powheg-pythia8/C67A8A4C-A8C9-DB47-A63D-9D650DFD1BCF.root'
p582
aS'/eos/cms/store/group/phys_smp/AnalysisFramework/Baobab/Metin/gammaplusb/2017/MC/ST_tW_antitop_5f_inclusiveDecays_TuneCP5_13TeV-powheg-pythia8/ED15BEEB-0332-4040-BD77-75E8CECDFECF.root'
p583
aS'/eos/cms/store/group/phys_smp/AnalysisFramework/Baobab/Metin/gammaplusb/2017/MC/ST_tW_antitop_5f_inclusiveDecays_TuneCP5_13TeV-powheg-pythia8/EEF913BB-5606-7647-B7C7-4D3021C06579.root'
p584
aS'/eos/cms/store/group/phys_smp/AnalysisFramework/Baobab/Metin/gammaplusb/2017/MC/ST_tW_antitop_5f_inclusiveDecays_TuneCP5_13TeV-powheg-pythia8/FC2536A4-12DE-7C47-8378-D380F76CE9F8.root'
p585
asg30
F34.97
sg31
S'/ST_tW_antitop_5f_inclusiveDecays_TuneCP5_13TeV-powheg-pythia8/RunIIFall17NanoAODv7-PU2017_12Apr2018_Nano02Apr2020_102X_mc2017_realistic_v8-v1/NANOAODSIM'
p586
ssssI2018
(dp587
g2
(dp588
g4
(dp589
g6
F0.003534
sg7
F0.0
sg8
F299.4
sg9
(lp590
S'/eos/cms/store/group/phys_smp/AnalysisFramework/Baobab/Metin/gammaplusb/2018/MC/GJet_Pt-15To6000_TuneCP5-Flat_13TeV_pythia8/0466FCAD-DC2F-B243-BD22-D407F8339C52.root'
p591
aS'/eos/cms/store/group/phys_smp/AnalysisFramework/Baobab/Metin/gammaplusb/2018/MC/GJet_Pt-15To6000_TuneCP5-Flat_13TeV_pythia8/C2181CAB-1DD3-F74D-87E9-6E56448A3856.root'
p592
aS'/eos/cms/store/group/phys_smp/AnalysisFramework/Baobab/Metin/gammaplusb/2018/MC/GJet_Pt-15To6000_TuneCP5-Flat_13TeV_pythia8/128F3C20-A7B5-F240-A4BF-7DC2DF5B8FF5.root'
p593
aS'/eos/cms/store/group/phys_smp/AnalysisFramework/Baobab/Metin/gammaplusb/2018/MC/GJet_Pt-15To6000_TuneCP5-Flat_13TeV_pythia8/00833A1C-8BE1-494C-B90B-EE55EEEAD958.root'
p594
aS'/eos/cms/store/group/phys_smp/AnalysisFramework/Baobab/Metin/gammaplusb/2018/MC/GJet_Pt-15To6000_TuneCP5-Flat_13TeV_pythia8/417F5970-0420-FA4D-8983-5F827D24CF08.root'
p595
aS'/eos/cms/store/group/phys_smp/AnalysisFramework/Baobab/Metin/gammaplusb/2018/MC/GJet_Pt-15To6000_TuneCP5-Flat_13TeV_pythia8/F51E9C41-4E87-DD44-BC2E-3B3264C32D8B.root'
p596
aS'/eos/cms/store/group/phys_smp/AnalysisFramework/Baobab/Metin/gammaplusb/2018/MC/GJet_Pt-15To6000_TuneCP5-Flat_13TeV_pythia8/B616F95E-1094-9B4C-BC70-54F9F46AFA4D.root'
p597
aS'/eos/cms/store/group/phys_smp/AnalysisFramework/Baobab/Metin/gammaplusb/2018/MC/GJet_Pt-15To6000_TuneCP5-Flat_13TeV_pythia8/82E43CC7-A05E-A441-A71D-5A2CDC6151F2.root'
p598
aS'/eos/cms/store/group/phys_smp/AnalysisFramework/Baobab/Metin/gammaplusb/2018/MC/GJet_Pt-15To6000_TuneCP5-Flat_13TeV_pythia8/B01D4A6F-910A-DB40-B564-35C72C2C57BE.root'
p599
aS'/eos/cms/store/group/phys_smp/AnalysisFramework/Baobab/Metin/gammaplusb/2018/MC/GJet_Pt-15To6000_TuneCP5-Flat_13TeV_pythia8/31DF4141-849A-0546-9E35-6616266A87F6.root'
p600
aS'/eos/cms/store/group/phys_smp/AnalysisFramework/Baobab/Metin/gammaplusb/2018/MC/GJet_Pt-15To6000_TuneCP5-Flat_13TeV_pythia8/486929FC-60BA-6841-8B58-8929FADC26D2.root'
p601
aS'/eos/cms/store/group/phys_smp/AnalysisFramework/Baobab/Metin/gammaplusb/2018/MC/GJet_Pt-15To6000_TuneCP5-Flat_13TeV_pythia8/2F2CE541-AC6A-AD49-99D7-D369CECD19C7.root'
p602
aS'/eos/cms/store/group/phys_smp/AnalysisFramework/Baobab/Metin/gammaplusb/2018/MC/GJet_Pt-15To6000_TuneCP5-Flat_13TeV_pythia8/B04DFE8C-F42A-D04E-A73E-937DD77B07F0.root'
p603
aS'/eos/cms/store/group/phys_smp/AnalysisFramework/Baobab/Metin/gammaplusb/2018/MC/GJet_Pt-15To6000_TuneCP5-Flat_13TeV_pythia8/8D3112E1-37B0-B047-AE5A-B909BB8B5A6D.root'
p604
aS'/eos/cms/store/group/phys_smp/AnalysisFramework/Baobab/Metin/gammaplusb/2018/MC/GJet_Pt-15To6000_TuneCP5-Flat_13TeV_pythia8/9E8AB2F7-65AB-DB44-BEF2-D35F5F7B6F57.root'
p605
aS'/eos/cms/store/group/phys_smp/AnalysisFramework/Baobab/Metin/gammaplusb/2018/MC/GJet_Pt-15To6000_TuneCP5-Flat_13TeV_pythia8/34D191D5-E7D7-8746-B617-4EE1AE1ED3D8.root'
p606
aS'/eos/cms/store/group/phys_smp/AnalysisFramework/Baobab/Metin/gammaplusb/2018/MC/GJet_Pt-15To6000_TuneCP5-Flat_13TeV_pythia8/C778EABD-FC4D-ED4E-9EFE-EB3D52BDDAA4.root'
p607
aS'/eos/cms/store/group/phys_smp/AnalysisFramework/Baobab/Metin/gammaplusb/2018/MC/GJet_Pt-15To6000_TuneCP5-Flat_13TeV_pythia8/63F5E711-2B4E-FC44-B222-881C6019EB73.root'
p608
aS'/eos/cms/store/group/phys_smp/AnalysisFramework/Baobab/Metin/gammaplusb/2018/MC/GJet_Pt-15To6000_TuneCP5-Flat_13TeV_pythia8/B698E97E-AC36-D44D-A6FC-FFAD3E759781.root'
p609
aS'/eos/cms/store/group/phys_smp/AnalysisFramework/Baobab/Metin/gammaplusb/2018/MC/GJet_Pt-15To6000_TuneCP5-Flat_13TeV_pythia8/0E99BEA9-B13C-4A44-8422-70747E7CCFC4.root'
p610
aS'/eos/cms/store/group/phys_smp/AnalysisFramework/Baobab/Metin/gammaplusb/2018/MC/GJet_Pt-15To6000_TuneCP5-Flat_13TeV_pythia8/84B368B1-D8EF-F448-823E-01332A8CC816.root'
p611
aS'/eos/cms/store/group/phys_smp/AnalysisFramework/Baobab/Metin/gammaplusb/2018/MC/GJet_Pt-15To6000_TuneCP5-Flat_13TeV_pythia8/779836BE-6986-214F-9D8D-20B86ACB08E0.root'
p612
aS'/eos/cms/store/group/phys_smp/AnalysisFramework/Baobab/Metin/gammaplusb/2018/MC/GJet_Pt-15To6000_TuneCP5-Flat_13TeV_pythia8/69E87A81-7AD7-1848-8C48-C3556458F167.root'
p613
aS'/eos/cms/store/group/phys_smp/AnalysisFramework/Baobab/Metin/gammaplusb/2018/MC/GJet_Pt-15To6000_TuneCP5-Flat_13TeV_pythia8/4E573800-5310-5E4D-BA8C-F3456515D37E.root'
p614
aS'/eos/cms/store/group/phys_smp/AnalysisFramework/Baobab/Metin/gammaplusb/2018/MC/GJet_Pt-15To6000_TuneCP5-Flat_13TeV_pythia8/3461BD24-B93B-704F-9D91-4D1901A3AD3C.root'
p615
aS'/eos/cms/store/group/phys_smp/AnalysisFramework/Baobab/Metin/gammaplusb/2018/MC/GJet_Pt-15To6000_TuneCP5-Flat_13TeV_pythia8/C053D54D-8D79-FD46-854F-E081928F268E.root'
p616
aS'/eos/cms/store/group/phys_smp/AnalysisFramework/Baobab/Metin/gammaplusb/2018/MC/GJet_Pt-15To6000_TuneCP5-Flat_13TeV_pythia8/D3CAC9E1-28D0-2541-9C1C-91886CAE08A4.root'
p617
aS'/eos/cms/store/group/phys_smp/AnalysisFramework/Baobab/Metin/gammaplusb/2018/MC/GJet_Pt-15To6000_TuneCP5-Flat_13TeV_pythia8/87388AA5-8777-FC4D-AE23-969049346865.root'
p618
aS'/eos/cms/store/group/phys_smp/AnalysisFramework/Baobab/Metin/gammaplusb/2018/MC/GJet_Pt-15To6000_TuneCP5-Flat_13TeV_pythia8/916341A7-D25F-CA4B-83C4-80969B401DDB.root'
p619
aS'/eos/cms/store/group/phys_smp/AnalysisFramework/Baobab/Metin/gammaplusb/2018/MC/GJet_Pt-15To6000_TuneCP5-Flat_13TeV_pythia8/8B8FE771-79DC-CA44-8553-DC6913F4B5B3.root'
p620
aS'/eos/cms/store/group/phys_smp/AnalysisFramework/Baobab/Metin/gammaplusb/2018/MC/GJet_Pt-15To6000_TuneCP5-Flat_13TeV_pythia8/882782E8-C6A6-F24D-BBC6-5F2D7B4B9BFB.root'
p621
aS'/eos/cms/store/group/phys_smp/AnalysisFramework/Baobab/Metin/gammaplusb/2018/MC/GJet_Pt-15To6000_TuneCP5-Flat_13TeV_pythia8/7EC2302A-F481-074C-90AD-7F170C9722A6.root'
p622
aS'/eos/cms/store/group/phys_smp/AnalysisFramework/Baobab/Metin/gammaplusb/2018/MC/GJet_Pt-15To6000_TuneCP5-Flat_13TeV_pythia8/27259613-3AA2-444E-9317-55A593B0D4A0.root'
p623
aS'/eos/cms/store/group/phys_smp/AnalysisFramework/Baobab/Metin/gammaplusb/2018/MC/GJet_Pt-15To6000_TuneCP5-Flat_13TeV_pythia8/D3D9D8D7-9ABA-3542-8AC6-ECB10CB9DADA.root'
p624
aS'/eos/cms/store/group/phys_smp/AnalysisFramework/Baobab/Metin/gammaplusb/2018/MC/GJet_Pt-15To6000_TuneCP5-Flat_13TeV_pythia8/11C8507E-45BA-8A4A-B7A8-58C3DC0D0BD8.root'
p625
aS'/eos/cms/store/group/phys_smp/AnalysisFramework/Baobab/Metin/gammaplusb/2018/MC/GJet_Pt-15To6000_TuneCP5-Flat_13TeV_pythia8/0D474EE5-4F26-5244-B05B-1201FA5140D6.root'
p626
aS'/eos/cms/store/group/phys_smp/AnalysisFramework/Baobab/Metin/gammaplusb/2018/MC/GJet_Pt-15To6000_TuneCP5-Flat_13TeV_pythia8/6562C974-A927-0942-BA6A-2753A6396535.root'
p627
aS'/eos/cms/store/group/phys_smp/AnalysisFramework/Baobab/Metin/gammaplusb/2018/MC/GJet_Pt-15To6000_TuneCP5-Flat_13TeV_pythia8/41D233DC-14F2-E243-A923-9827F8132926.root'
p628
aS'/eos/cms/store/group/phys_smp/AnalysisFramework/Baobab/Metin/gammaplusb/2018/MC/GJet_Pt-15To6000_TuneCP5-Flat_13TeV_pythia8/0A73BD32-C4EB-0E48-BE4B-AC9909BF84EA.root'
p629
asg30
F283000.0
sg31
S'/GJet_Pt-15To6000_TuneCP5-Flat_13TeV_pythia8/RunIIAutumn18NanoAODv7-Nano02Apr2020_102X_upgrade2018_realistic_v21-v1/NANOAODSIM'
p630
sssg33
(dp631
g35
(dp632
g6
F12.79
sg7
F0.03002
sg8
F0.4613
sg9
(lp633
S'/eos/cms/store/group/phys_smp/AnalysisFramework/Baobab/Metin/gammaplusb/2018/MC/ST_t-channel_antitop_4f_InclusiveDecays_TuneCP5_13TeV-powheg-madspin-pythia8/03E9A051-32D3-824A-9409-8150FECFCBFD.root'
p634
aS'/eos/cms/store/group/phys_smp/AnalysisFramework/Baobab/Metin/gammaplusb/2018/MC/ST_t-channel_antitop_4f_InclusiveDecays_TuneCP5_13TeV-powheg-madspin-pythia8/08FC7FC7-F50E-EB48-B58A-6B763C4CE167.root'
p635
aS'/eos/cms/store/group/phys_smp/AnalysisFramework/Baobab/Metin/gammaplusb/2018/MC/ST_t-channel_antitop_4f_InclusiveDecays_TuneCP5_13TeV-powheg-madspin-pythia8/0AF73DAF-A7C6-684E-8CB8-990D5AF6ECE0.root'
p636
aS'/eos/cms/store/group/phys_smp/AnalysisFramework/Baobab/Metin/gammaplusb/2018/MC/ST_t-channel_antitop_4f_InclusiveDecays_TuneCP5_13TeV-powheg-madspin-pythia8/0C9C7788-82CD-EE41-B345-5C78B9CBDEE7.root'
p637
aS'/eos/cms/store/group/phys_smp/AnalysisFramework/Baobab/Metin/gammaplusb/2018/MC/ST_t-channel_antitop_4f_InclusiveDecays_TuneCP5_13TeV-powheg-madspin-pythia8/0DA38117-DF1A-7940-B77C-BA7C1A5D98F8.root'
p638
aS'/eos/cms/store/group/phys_smp/AnalysisFramework/Baobab/Metin/gammaplusb/2018/MC/ST_t-channel_antitop_4f_InclusiveDecays_TuneCP5_13TeV-powheg-madspin-pythia8/12FD1CAB-584D-1140-8809-BE4EC16F712D.root'
p639
aS'/eos/cms/store/group/phys_smp/AnalysisFramework/Baobab/Metin/gammaplusb/2018/MC/ST_t-channel_antitop_4f_InclusiveDecays_TuneCP5_13TeV-powheg-madspin-pythia8/17A68160-FC69-F34B-846F-38FA4DDA58CD.root'
p640
aS'/eos/cms/store/group/phys_smp/AnalysisFramework/Baobab/Metin/gammaplusb/2018/MC/ST_t-channel_antitop_4f_InclusiveDecays_TuneCP5_13TeV-powheg-madspin-pythia8/21F9FA19-31EE-1F4D-84FF-471F6AFC2326.root'
p641
aS'/eos/cms/store/group/phys_smp/AnalysisFramework/Baobab/Metin/gammaplusb/2018/MC/ST_t-channel_antitop_4f_InclusiveDecays_TuneCP5_13TeV-powheg-madspin-pythia8/2B6F4893-5CFB-2A42-8864-82A5CB107428.root'
p642
aS'/eos/cms/store/group/phys_smp/AnalysisFramework/Baobab/Metin/gammaplusb/2018/MC/ST_t-channel_antitop_4f_InclusiveDecays_TuneCP5_13TeV-powheg-madspin-pythia8/2D87CF74-D70D-914B-9B0B-B8ABCDF451E0.root'
p643
aS'/eos/cms/store/group/phys_smp/AnalysisFramework/Baobab/Metin/gammaplusb/2018/MC/ST_t-channel_antitop_4f_InclusiveDecays_TuneCP5_13TeV-powheg-madspin-pythia8/319BB63B-C83E-C346-9ACB-F96BF1637D60.root'
p644
aS'/eos/cms/store/group/phys_smp/AnalysisFramework/Baobab/Metin/gammaplusb/2018/MC/ST_t-channel_antitop_4f_InclusiveDecays_TuneCP5_13TeV-powheg-madspin-pythia8/33405958-F352-E243-9849-2F2E00E7BCA3.root'
p645
aS'/eos/cms/store/group/phys_smp/AnalysisFramework/Baobab/Metin/gammaplusb/2018/MC/ST_t-channel_antitop_4f_InclusiveDecays_TuneCP5_13TeV-powheg-madspin-pythia8/4087E249-3AF9-7047-9F83-3149A3CA9C7E.root'
p646
aS'/eos/cms/store/group/phys_smp/AnalysisFramework/Baobab/Metin/gammaplusb/2018/MC/ST_t-channel_antitop_4f_InclusiveDecays_TuneCP5_13TeV-powheg-madspin-pythia8/476F457D-B081-9143-A2AC-D590603E2712.root'
p647
aS'/eos/cms/store/group/phys_smp/AnalysisFramework/Baobab/Metin/gammaplusb/2018/MC/ST_t-channel_antitop_4f_InclusiveDecays_TuneCP5_13TeV-powheg-madspin-pythia8/4CD6FF76-D00A-D34B-81F5-2064066D5AEB.root'
p648
aS'/eos/cms/store/group/phys_smp/AnalysisFramework/Baobab/Metin/gammaplusb/2018/MC/ST_t-channel_antitop_4f_InclusiveDecays_TuneCP5_13TeV-powheg-madspin-pythia8/51AB74F8-230C-4141-81EF-8821E4C54162.root'
p649
aS'/eos/cms/store/group/phys_smp/AnalysisFramework/Baobab/Metin/gammaplusb/2018/MC/ST_t-channel_antitop_4f_InclusiveDecays_TuneCP5_13TeV-powheg-madspin-pythia8/537095CB-35BA-E240-B252-B8976D15A7D4.root'
p650
aS'/eos/cms/store/group/phys_smp/AnalysisFramework/Baobab/Metin/gammaplusb/2018/MC/ST_t-channel_antitop_4f_InclusiveDecays_TuneCP5_13TeV-powheg-madspin-pythia8/596664FC-EBA4-264C-85C1-73AD11BEF036.root'
p651
aS'/eos/cms/store/group/phys_smp/AnalysisFramework/Baobab/Metin/gammaplusb/2018/MC/ST_t-channel_antitop_4f_InclusiveDecays_TuneCP5_13TeV-powheg-madspin-pythia8/5CD2C11A-1A41-B34F-BB14-2DF27CE74F0E.root'
p652
aS'/eos/cms/store/group/phys_smp/AnalysisFramework/Baobab/Metin/gammaplusb/2018/MC/ST_t-channel_antitop_4f_InclusiveDecays_TuneCP5_13TeV-powheg-madspin-pythia8/6308B9EE-D5F8-0B40-911D-2F1906FB396F.root'
p653
aS'/eos/cms/store/group/phys_smp/AnalysisFramework/Baobab/Metin/gammaplusb/2018/MC/ST_t-channel_antitop_4f_InclusiveDecays_TuneCP5_13TeV-powheg-madspin-pythia8/656663B7-56CE-B842-8E5A-F1AE03956C49.root'
p654
aS'/eos/cms/store/group/phys_smp/AnalysisFramework/Baobab/Metin/gammaplusb/2018/MC/ST_t-channel_antitop_4f_InclusiveDecays_TuneCP5_13TeV-powheg-madspin-pythia8/68669E48-0748-7E40-9BA2-5B569DA18940.root'
p655
aS'/eos/cms/store/group/phys_smp/AnalysisFramework/Baobab/Metin/gammaplusb/2018/MC/ST_t-channel_antitop_4f_InclusiveDecays_TuneCP5_13TeV-powheg-madspin-pythia8/6A735DCD-91DE-7F40-9E58-A1924F375390.root'
p656
aS'/eos/cms/store/group/phys_smp/AnalysisFramework/Baobab/Metin/gammaplusb/2018/MC/ST_t-channel_antitop_4f_InclusiveDecays_TuneCP5_13TeV-powheg-madspin-pythia8/6AE49C68-2434-1942-B0B5-9211D6E7602C.root'
p657
aS'/eos/cms/store/group/phys_smp/AnalysisFramework/Baobab/Metin/gammaplusb/2018/MC/ST_t-channel_antitop_4f_InclusiveDecays_TuneCP5_13TeV-powheg-madspin-pythia8/6CCB16C4-17F7-FB41-B850-96843A0B30F4.root'
p658
aS'/eos/cms/store/group/phys_smp/AnalysisFramework/Baobab/Metin/gammaplusb/2018/MC/ST_t-channel_antitop_4f_InclusiveDecays_TuneCP5_13TeV-powheg-madspin-pythia8/6E7C0D48-48E5-EC4E-A3F1-DBCBA4CA8416.root'
p659
aS'/eos/cms/store/group/phys_smp/AnalysisFramework/Baobab/Metin/gammaplusb/2018/MC/ST_t-channel_antitop_4f_InclusiveDecays_TuneCP5_13TeV-powheg-madspin-pythia8/742EC329-1B21-9543-BD60-3C20E9A7F7C4.root'
p660
aS'/eos/cms/store/group/phys_smp/AnalysisFramework/Baobab/Metin/gammaplusb/2018/MC/ST_t-channel_antitop_4f_InclusiveDecays_TuneCP5_13TeV-powheg-madspin-pythia8/78895280-4E13-634B-9C25-9F47E313EA10.root'
p661
aS'/eos/cms/store/group/phys_smp/AnalysisFramework/Baobab/Metin/gammaplusb/2018/MC/ST_t-channel_antitop_4f_InclusiveDecays_TuneCP5_13TeV-powheg-madspin-pythia8/78944E7E-FEDA-8F43-A52A-15F862581216.root'
p662
aS'/eos/cms/store/group/phys_smp/AnalysisFramework/Baobab/Metin/gammaplusb/2018/MC/ST_t-channel_antitop_4f_InclusiveDecays_TuneCP5_13TeV-powheg-madspin-pythia8/7EAB7EFA-1A09-C348-B37B-A9C8B05EF6A6.root'
p663
aS'/eos/cms/store/group/phys_smp/AnalysisFramework/Baobab/Metin/gammaplusb/2018/MC/ST_t-channel_antitop_4f_InclusiveDecays_TuneCP5_13TeV-powheg-madspin-pythia8/87D46074-C2C0-9C4C-88E9-5DF13FE4954D.root'
p664
aS'/eos/cms/store/group/phys_smp/AnalysisFramework/Baobab/Metin/gammaplusb/2018/MC/ST_t-channel_antitop_4f_InclusiveDecays_TuneCP5_13TeV-powheg-madspin-pythia8/8ACAA42A-FAFA-3447-B226-23EFA14AE4DD.root'
p665
aS'/eos/cms/store/group/phys_smp/AnalysisFramework/Baobab/Metin/gammaplusb/2018/MC/ST_t-channel_antitop_4f_InclusiveDecays_TuneCP5_13TeV-powheg-madspin-pythia8/8D5DE250-5359-7949-8AA2-3E53A1D01C64.root'
p666
aS'/eos/cms/store/group/phys_smp/AnalysisFramework/Baobab/Metin/gammaplusb/2018/MC/ST_t-channel_antitop_4f_InclusiveDecays_TuneCP5_13TeV-powheg-madspin-pythia8/94BA596E-2F69-F84D-83A5-9190A0EF2485.root'
p667
aS'/eos/cms/store/group/phys_smp/AnalysisFramework/Baobab/Metin/gammaplusb/2018/MC/ST_t-channel_antitop_4f_InclusiveDecays_TuneCP5_13TeV-powheg-madspin-pythia8/978F0F3C-AE81-F049-A621-3DC8690366E8.root'
p668
aS'/eos/cms/store/group/phys_smp/AnalysisFramework/Baobab/Metin/gammaplusb/2018/MC/ST_t-channel_antitop_4f_InclusiveDecays_TuneCP5_13TeV-powheg-madspin-pythia8/98DB3103-A502-9F48-B2F0-F486FF13453F.root'
p669
aS'/eos/cms/store/group/phys_smp/AnalysisFramework/Baobab/Metin/gammaplusb/2018/MC/ST_t-channel_antitop_4f_InclusiveDecays_TuneCP5_13TeV-powheg-madspin-pythia8/9965EDF2-D4B9-1348-B69B-10EE4A974AFA.root'
p670
aS'/eos/cms/store/group/phys_smp/AnalysisFramework/Baobab/Metin/gammaplusb/2018/MC/ST_t-channel_antitop_4f_InclusiveDecays_TuneCP5_13TeV-powheg-madspin-pythia8/9DB88427-8813-5E4E-B57C-778127B1CE89.root'
p671
aS'/eos/cms/store/group/phys_smp/AnalysisFramework/Baobab/Metin/gammaplusb/2018/MC/ST_t-channel_antitop_4f_InclusiveDecays_TuneCP5_13TeV-powheg-madspin-pythia8/A01547D6-67CB-2148-B0EF-96603EE5F4D6.root'
p672
aS'/eos/cms/store/group/phys_smp/AnalysisFramework/Baobab/Metin/gammaplusb/2018/MC/ST_t-channel_antitop_4f_InclusiveDecays_TuneCP5_13TeV-powheg-madspin-pythia8/A0D9DB56-07F4-D245-8B05-7011330C4B6F.root'
p673
aS'/eos/cms/store/group/phys_smp/AnalysisFramework/Baobab/Metin/gammaplusb/2018/MC/ST_t-channel_antitop_4f_InclusiveDecays_TuneCP5_13TeV-powheg-madspin-pythia8/A3A9F583-4B9B-2344-91B9-EC52C2F310C2.root'
p674
aS'/eos/cms/store/group/phys_smp/AnalysisFramework/Baobab/Metin/gammaplusb/2018/MC/ST_t-channel_antitop_4f_InclusiveDecays_TuneCP5_13TeV-powheg-madspin-pythia8/A871BC32-BF08-B144-9613-35CC596AEAD5.root'
p675
aS'/eos/cms/store/group/phys_smp/AnalysisFramework/Baobab/Metin/gammaplusb/2018/MC/ST_t-channel_antitop_4f_InclusiveDecays_TuneCP5_13TeV-powheg-madspin-pythia8/AB430134-0689-6549-B266-6E70545AD2A4.root'
p676
aS'/eos/cms/store/group/phys_smp/AnalysisFramework/Baobab/Metin/gammaplusb/2018/MC/ST_t-channel_antitop_4f_InclusiveDecays_TuneCP5_13TeV-powheg-madspin-pythia8/AC5A61E9-C3FF-9F4E-847F-F7C1A2FD3E47.root'
p677
aS'/eos/cms/store/group/phys_smp/AnalysisFramework/Baobab/Metin/gammaplusb/2018/MC/ST_t-channel_antitop_4f_InclusiveDecays_TuneCP5_13TeV-powheg-madspin-pythia8/AE8B65B8-CD87-9A4D-8DFC-6B9BEE82068F.root'
p678
aS'/eos/cms/store/group/phys_smp/AnalysisFramework/Baobab/Metin/gammaplusb/2018/MC/ST_t-channel_antitop_4f_InclusiveDecays_TuneCP5_13TeV-powheg-madspin-pythia8/B033C619-9083-6F4B-8055-7F1869589C84.root'
p679
aS'/eos/cms/store/group/phys_smp/AnalysisFramework/Baobab/Metin/gammaplusb/2018/MC/ST_t-channel_antitop_4f_InclusiveDecays_TuneCP5_13TeV-powheg-madspin-pythia8/B6EB0616-D1D5-714C-8228-EC84304FF238.root'
p680
aS'/eos/cms/store/group/phys_smp/AnalysisFramework/Baobab/Metin/gammaplusb/2018/MC/ST_t-channel_antitop_4f_InclusiveDecays_TuneCP5_13TeV-powheg-madspin-pythia8/BD2D156D-7B22-074D-AA9A-74205279F844.root'
p681
aS'/eos/cms/store/group/phys_smp/AnalysisFramework/Baobab/Metin/gammaplusb/2018/MC/ST_t-channel_antitop_4f_InclusiveDecays_TuneCP5_13TeV-powheg-madspin-pythia8/C3218581-3CC2-FB44-9692-7F77A484878B.root'
p682
aS'/eos/cms/store/group/phys_smp/AnalysisFramework/Baobab/Metin/gammaplusb/2018/MC/ST_t-channel_antitop_4f_InclusiveDecays_TuneCP5_13TeV-powheg-madspin-pythia8/CD20EF13-3BEF-E846-9131-B9FE1134944A.root'
p683
aS'/eos/cms/store/group/phys_smp/AnalysisFramework/Baobab/Metin/gammaplusb/2018/MC/ST_t-channel_antitop_4f_InclusiveDecays_TuneCP5_13TeV-powheg-madspin-pythia8/E19888A9-0481-FB41-8371-B5F7C149079F.root'
p684
aS'/eos/cms/store/group/phys_smp/AnalysisFramework/Baobab/Metin/gammaplusb/2018/MC/ST_t-channel_antitop_4f_InclusiveDecays_TuneCP5_13TeV-powheg-madspin-pythia8/EEF104F0-ADE2-734B-B9D2-7F89E5BDD55E.root'
p685
aS'/eos/cms/store/group/phys_smp/AnalysisFramework/Baobab/Metin/gammaplusb/2018/MC/ST_t-channel_antitop_4f_InclusiveDecays_TuneCP5_13TeV-powheg-madspin-pythia8/F29E70D7-0D48-6A4E-8A9D-127E0DFED7E0.root'
p686
aS'/eos/cms/store/group/phys_smp/AnalysisFramework/Baobab/Metin/gammaplusb/2018/MC/ST_t-channel_antitop_4f_InclusiveDecays_TuneCP5_13TeV-powheg-madspin-pythia8/F37001B7-90B4-2742-B810-2BFDF6A9AFE4.root'
p687
aS'/eos/cms/store/group/phys_smp/AnalysisFramework/Baobab/Metin/gammaplusb/2018/MC/ST_t-channel_antitop_4f_InclusiveDecays_TuneCP5_13TeV-powheg-madspin-pythia8/F45199AE-BACD-BF43-90F7-44A4A22C605E.root'
p688
aS'/eos/cms/store/group/phys_smp/AnalysisFramework/Baobab/Metin/gammaplusb/2018/MC/ST_t-channel_antitop_4f_InclusiveDecays_TuneCP5_13TeV-powheg-madspin-pythia8/F66E889F-E7A4-5A4B-9620-B130C8299A19.root'
p689
aS'/eos/cms/store/group/phys_smp/AnalysisFramework/Baobab/Metin/gammaplusb/2018/MC/ST_t-channel_antitop_4f_InclusiveDecays_TuneCP5_13TeV-powheg-madspin-pythia8/FB9F7F5B-5397-A64B-A5CD-20ECA9488AE9.root'
p690
aS'/eos/cms/store/group/phys_smp/AnalysisFramework/Baobab/Metin/gammaplusb/2018/MC/ST_t-channel_antitop_4f_InclusiveDecays_TuneCP5_13TeV-powheg-madspin-pythia8/FC11F7C5-783F-AF48-A2C0-F373721894F7.root'
p691
aS'/eos/cms/store/group/phys_smp/AnalysisFramework/Baobab/Metin/gammaplusb/2018/MC/ST_t-channel_antitop_4f_InclusiveDecays_TuneCP5_13TeV-powheg-madspin-pythia8/FE3F6650-3D75-674A-BB0A-FC8488293A06.root'
p692
aS'/eos/cms/store/group/phys_smp/AnalysisFramework/Baobab/Metin/gammaplusb/2018/MC/ST_t-channel_antitop_4f_InclusiveDecays_TuneCP5_13TeV-powheg-madspin-pythia8/FF6E8AB5-DD09-7C43-B8D2-7E77BCD26CA3.root'
p693
aS'/eos/cms/store/group/phys_smp/AnalysisFramework/Baobab/Metin/gammaplusb/2018/MC/ST_t-channel_antitop_4f_InclusiveDecays_TuneCP5_13TeV-powheg-madspin-pythia8/FFCDBAAA-A858-5F44-A5BE-BF5B0F2F8473.root'
p694
asg30
F69.09
sg31
S'/ST_t-channel_antitop_4f_InclusiveDecays_TuneCP5_13TeV-powheg-madspin-pythia8/RunIIAutumn18NanoAODv7-Nano02Apr2020_102X_upgrade2018_realistic_v21-v1/NANOAODSIM'
p695
ssg75
(dp696
g6
F28.2
sg7
F0.0034
sg8
F0.02827
sg9
(lp697
S'/eos/cms/store/group/phys_smp/AnalysisFramework/Baobab/Metin/gammaplusb/2018/MC/ST_s-channel_4f_leptonDecays_TuneCP5_13TeV-madgraph-pythia8/018A2495-6979-FE45-9BA3-FB4A827CC6BC.root'
p698
aS'/eos/cms/store/group/phys_smp/AnalysisFramework/Baobab/Metin/gammaplusb/2018/MC/ST_s-channel_4f_leptonDecays_TuneCP5_13TeV-madgraph-pythia8/053EA9A8-0F79-974D-B280-9EB0EF964E2E.root'
p699
aS'/eos/cms/store/group/phys_smp/AnalysisFramework/Baobab/Metin/gammaplusb/2018/MC/ST_s-channel_4f_leptonDecays_TuneCP5_13TeV-madgraph-pythia8/1268D450-190E-8142-95BD-B70D9574F93A.root'
p700
aS'/eos/cms/store/group/phys_smp/AnalysisFramework/Baobab/Metin/gammaplusb/2018/MC/ST_s-channel_4f_leptonDecays_TuneCP5_13TeV-madgraph-pythia8/1D82C0C0-142E-8845-9138-8B43330344DD.root'
p701
aS'/eos/cms/store/group/phys_smp/AnalysisFramework/Baobab/Metin/gammaplusb/2018/MC/ST_s-channel_4f_leptonDecays_TuneCP5_13TeV-madgraph-pythia8/241F0895-CD56-D24E-95F7-34FBD84DA9A7.root'
p702
aS'/eos/cms/store/group/phys_smp/AnalysisFramework/Baobab/Metin/gammaplusb/2018/MC/ST_s-channel_4f_leptonDecays_TuneCP5_13TeV-madgraph-pythia8/4396101E-BAA9-614E-BC3F-6B8DD61B6D2B.root'
p703
aS'/eos/cms/store/group/phys_smp/AnalysisFramework/Baobab/Metin/gammaplusb/2018/MC/ST_s-channel_4f_leptonDecays_TuneCP5_13TeV-madgraph-pythia8/4BA4CC3A-7AE0-7443-98ED-B50CCE6F0156.root'
p704
aS'/eos/cms/store/group/phys_smp/AnalysisFramework/Baobab/Metin/gammaplusb/2018/MC/ST_s-channel_4f_leptonDecays_TuneCP5_13TeV-madgraph-pythia8/64F882E4-9968-0E43-9E51-6DB749A92DF0.root'
p705
aS'/eos/cms/store/group/phys_smp/AnalysisFramework/Baobab/Metin/gammaplusb/2018/MC/ST_s-channel_4f_leptonDecays_TuneCP5_13TeV-madgraph-pythia8/65D68898-C513-DE4C-B760-88376A271155.root'
p706
aS'/eos/cms/store/group/phys_smp/AnalysisFramework/Baobab/Metin/gammaplusb/2018/MC/ST_s-channel_4f_leptonDecays_TuneCP5_13TeV-madgraph-pythia8/710B198D-4455-4B41-B605-0C2499BE00ED.root'
p707
aS'/eos/cms/store/group/phys_smp/AnalysisFramework/Baobab/Metin/gammaplusb/2018/MC/ST_s-channel_4f_leptonDecays_TuneCP5_13TeV-madgraph-pythia8/784553AC-68BE-7442-8891-3DBBFF3B6CD5.root'
p708
aS'/eos/cms/store/group/phys_smp/AnalysisFramework/Baobab/Metin/gammaplusb/2018/MC/ST_s-channel_4f_leptonDecays_TuneCP5_13TeV-madgraph-pythia8/869628D0-2A0E-9C4C-AA34-E102AE74528D.root'
p709
aS'/eos/cms/store/group/phys_smp/AnalysisFramework/Baobab/Metin/gammaplusb/2018/MC/ST_s-channel_4f_leptonDecays_TuneCP5_13TeV-madgraph-pythia8/BF0B80A8-96A6-F642-A07D-1F8A555E6D10.root'
p710
aS'/eos/cms/store/group/phys_smp/AnalysisFramework/Baobab/Metin/gammaplusb/2018/MC/ST_s-channel_4f_leptonDecays_TuneCP5_13TeV-madgraph-pythia8/C1648042-740D-9C45-ABCC-B67DB25109B2.root'
p711
aS'/eos/cms/store/group/phys_smp/AnalysisFramework/Baobab/Metin/gammaplusb/2018/MC/ST_s-channel_4f_leptonDecays_TuneCP5_13TeV-madgraph-pythia8/F7700BAB-C39E-6340-A4CC-57EE600B2B0A.root'
p712
aS'/eos/cms/store/group/phys_smp/AnalysisFramework/Baobab/Metin/gammaplusb/2018/MC/ST_s-channel_4f_leptonDecays_TuneCP5_13TeV-madgraph-pythia8/FB25AC58-D86B-2F48-A0DD-73DF53242B27.root'
p713
asg30
F34.97
sg31
S'/ST_s-channel_4f_leptonDecays_TuneCP5_13TeV-madgraph-pythia8/RunIIAutumn18NanoAODv7-Nano02Apr2020_102X_upgrade2018_realistic_v21_ext2-v1/NANOAODSIM'
p714
ssg82
(dp715
g6
F7.547
sg7
F0.03365
sg8
F0.9153
sg9
(lp716
S'/eos/cms/store/group/phys_smp/AnalysisFramework/Baobab/Metin/gammaplusb/2018/MC/ST_t-channel_top_4f_InclusiveDecays_TuneCP5_13TeV-powheg-madspin-pythia8/4EFCA151-7BD7-F746-89CA-51371CB469B2.root'
p717
aS'/eos/cms/store/group/phys_smp/AnalysisFramework/Baobab/Metin/gammaplusb/2018/MC/ST_t-channel_top_4f_InclusiveDecays_TuneCP5_13TeV-powheg-madspin-pythia8/C96F20DE-BAE6-864D-9A9F-A75661988C2F.root'
p718
aS'/eos/cms/store/group/phys_smp/AnalysisFramework/Baobab/Metin/gammaplusb/2018/MC/ST_t-channel_top_4f_InclusiveDecays_TuneCP5_13TeV-powheg-madspin-pythia8/DA30485E-B15F-7D46-B9F9-6DC97DA404A9.root'
p719
aS'/eos/cms/store/group/phys_smp/AnalysisFramework/Baobab/Metin/gammaplusb/2018/MC/ST_t-channel_top_4f_InclusiveDecays_TuneCP5_13TeV-powheg-madspin-pythia8/6025362C-AFED-1E4E-B270-BD9B3D37AAEE.root'
p720
aS'/eos/cms/store/group/phys_smp/AnalysisFramework/Baobab/Metin/gammaplusb/2018/MC/ST_t-channel_top_4f_InclusiveDecays_TuneCP5_13TeV-powheg-madspin-pythia8/2F7071F1-8A60-C64E-98CA-C8A15EE035F4.root'
p721
aS'/eos/cms/store/group/phys_smp/AnalysisFramework/Baobab/Metin/gammaplusb/2018/MC/ST_t-channel_top_4f_InclusiveDecays_TuneCP5_13TeV-powheg-madspin-pythia8/E0904A1A-8351-1044-A674-A24F1EBCB206.root'
p722
aS'/eos/cms/store/group/phys_smp/AnalysisFramework/Baobab/Metin/gammaplusb/2018/MC/ST_t-channel_top_4f_InclusiveDecays_TuneCP5_13TeV-powheg-madspin-pythia8/A8DE2F9C-74CC-1945-A829-82101CE6AC39.root'
p723
aS'/eos/cms/store/group/phys_smp/AnalysisFramework/Baobab/Metin/gammaplusb/2018/MC/ST_t-channel_top_4f_InclusiveDecays_TuneCP5_13TeV-powheg-madspin-pythia8/AB3A0FA3-A270-F44E-B527-7BDE4D4FE3A7.root'
p724
aS'/eos/cms/store/group/phys_smp/AnalysisFramework/Baobab/Metin/gammaplusb/2018/MC/ST_t-channel_top_4f_InclusiveDecays_TuneCP5_13TeV-powheg-madspin-pythia8/16CF539A-1EA9-B640-BDC5-C933C005B8F3.root'
p725
aS'/eos/cms/store/group/phys_smp/AnalysisFramework/Baobab/Metin/gammaplusb/2018/MC/ST_t-channel_top_4f_InclusiveDecays_TuneCP5_13TeV-powheg-madspin-pythia8/164FC00A-9B99-CC47-B207-5EDFD167BEED.root'
p726
aS'/eos/cms/store/group/phys_smp/AnalysisFramework/Baobab/Metin/gammaplusb/2018/MC/ST_t-channel_top_4f_InclusiveDecays_TuneCP5_13TeV-powheg-madspin-pythia8/C8BA2B96-F9C0-A04C-B545-1569924A2353.root'
p727
aS'/eos/cms/store/group/phys_smp/AnalysisFramework/Baobab/Metin/gammaplusb/2018/MC/ST_t-channel_top_4f_InclusiveDecays_TuneCP5_13TeV-powheg-madspin-pythia8/249DF1E4-A8AF-E94A-A685-C105F272CC7B.root'
p728
aS'/eos/cms/store/group/phys_smp/AnalysisFramework/Baobab/Metin/gammaplusb/2018/MC/ST_t-channel_top_4f_InclusiveDecays_TuneCP5_13TeV-powheg-madspin-pythia8/73B33B69-8D00-DB4F-8A44-6325D0E9A652.root'
p729
aS'/eos/cms/store/group/phys_smp/AnalysisFramework/Baobab/Metin/gammaplusb/2018/MC/ST_t-channel_top_4f_InclusiveDecays_TuneCP5_13TeV-powheg-madspin-pythia8/E936111C-CEB5-8248-8170-A7159C85BE2A.root'
p730
aS'/eos/cms/store/group/phys_smp/AnalysisFramework/Baobab/Metin/gammaplusb/2018/MC/ST_t-channel_top_4f_InclusiveDecays_TuneCP5_13TeV-powheg-madspin-pythia8/7DDE5CFF-4B54-DB40-A9E0-7A69463A0C95.root'
p731
aS'/eos/cms/store/group/phys_smp/AnalysisFramework/Baobab/Metin/gammaplusb/2018/MC/ST_t-channel_top_4f_InclusiveDecays_TuneCP5_13TeV-powheg-madspin-pythia8/D89D3E43-25FD-7E43-A489-36B6B305D175.root'
p732
aS'/eos/cms/store/group/phys_smp/AnalysisFramework/Baobab/Metin/gammaplusb/2018/MC/ST_t-channel_top_4f_InclusiveDecays_TuneCP5_13TeV-powheg-madspin-pythia8/D6B4ABF5-78E6-D040-B8B5-DC17E6E81359.root'
p733
aS'/eos/cms/store/group/phys_smp/AnalysisFramework/Baobab/Metin/gammaplusb/2018/MC/ST_t-channel_top_4f_InclusiveDecays_TuneCP5_13TeV-powheg-madspin-pythia8/0FB78FE3-F8C8-7E47-A12F-C9DD063DD694.root'
p734
aS'/eos/cms/store/group/phys_smp/AnalysisFramework/Baobab/Metin/gammaplusb/2018/MC/ST_t-channel_top_4f_InclusiveDecays_TuneCP5_13TeV-powheg-madspin-pythia8/4A66959E-D368-7046-99FA-6FD3A7D1D242.root'
p735
aS'/eos/cms/store/group/phys_smp/AnalysisFramework/Baobab/Metin/gammaplusb/2018/MC/ST_t-channel_top_4f_InclusiveDecays_TuneCP5_13TeV-powheg-madspin-pythia8/7DA38E16-0E8B-DA4F-80B6-C72CE2621DD6.root'
p736
aS'/eos/cms/store/group/phys_smp/AnalysisFramework/Baobab/Metin/gammaplusb/2018/MC/ST_t-channel_top_4f_InclusiveDecays_TuneCP5_13TeV-powheg-madspin-pythia8/EDE25BB4-5356-1642-B0C8-019FEEDB72C1.root'
p737
aS'/eos/cms/store/group/phys_smp/AnalysisFramework/Baobab/Metin/gammaplusb/2018/MC/ST_t-channel_top_4f_InclusiveDecays_TuneCP5_13TeV-powheg-madspin-pythia8/D0FA0697-CF06-B64D-8A93-34EF03CD9B2E.root'
p738
aS'/eos/cms/store/group/phys_smp/AnalysisFramework/Baobab/Metin/gammaplusb/2018/MC/ST_t-channel_top_4f_InclusiveDecays_TuneCP5_13TeV-powheg-madspin-pythia8/C4487500-BB35-2A44-B48A-157FF7B3EC74.root'
p739
aS'/eos/cms/store/group/phys_smp/AnalysisFramework/Baobab/Metin/gammaplusb/2018/MC/ST_t-channel_top_4f_InclusiveDecays_TuneCP5_13TeV-powheg-madspin-pythia8/1311395C-C029-7144-9E73-871DB2BF90AF.root'
p740
aS'/eos/cms/store/group/phys_smp/AnalysisFramework/Baobab/Metin/gammaplusb/2018/MC/ST_t-channel_top_4f_InclusiveDecays_TuneCP5_13TeV-powheg-madspin-pythia8/2A0F9AF1-4C80-1946-ABAB-51BACEFBA4B6.root'
p741
aS'/eos/cms/store/group/phys_smp/AnalysisFramework/Baobab/Metin/gammaplusb/2018/MC/ST_t-channel_top_4f_InclusiveDecays_TuneCP5_13TeV-powheg-madspin-pythia8/C9BE9144-7083-3B4B-80AD-15E66F593760.root'
p742
aS'/eos/cms/store/group/phys_smp/AnalysisFramework/Baobab/Metin/gammaplusb/2018/MC/ST_t-channel_top_4f_InclusiveDecays_TuneCP5_13TeV-powheg-madspin-pythia8/4FE57E87-1AED-8B46-B4F4-F31D9D8FEEAD.root'
p743
aS'/eos/cms/store/group/phys_smp/AnalysisFramework/Baobab/Metin/gammaplusb/2018/MC/ST_t-channel_top_4f_InclusiveDecays_TuneCP5_13TeV-powheg-madspin-pythia8/94AB63D7-ADEF-054B-AE04-2BE9E4AE5BBA.root'
p744
aS'/eos/cms/store/group/phys_smp/AnalysisFramework/Baobab/Metin/gammaplusb/2018/MC/ST_t-channel_top_4f_InclusiveDecays_TuneCP5_13TeV-powheg-madspin-pythia8/22B3D3CB-8913-3D4C-BE47-0874E382A9D1.root'
p745
aS'/eos/cms/store/group/phys_smp/AnalysisFramework/Baobab/Metin/gammaplusb/2018/MC/ST_t-channel_top_4f_InclusiveDecays_TuneCP5_13TeV-powheg-madspin-pythia8/21CDAD1F-EFCE-5D4F-B37B-1D6E8D031386.root'
p746
aS'/eos/cms/store/group/phys_smp/AnalysisFramework/Baobab/Metin/gammaplusb/2018/MC/ST_t-channel_top_4f_InclusiveDecays_TuneCP5_13TeV-powheg-madspin-pythia8/B0AD903E-3E94-2447-BF31-D959FFE73F21.root'
p747
aS'/eos/cms/store/group/phys_smp/AnalysisFramework/Baobab/Metin/gammaplusb/2018/MC/ST_t-channel_top_4f_InclusiveDecays_TuneCP5_13TeV-powheg-madspin-pythia8/24E1FF96-BA23-D048-BCD3-2CCD6A4D9027.root'
p748
aS'/eos/cms/store/group/phys_smp/AnalysisFramework/Baobab/Metin/gammaplusb/2018/MC/ST_t-channel_top_4f_InclusiveDecays_TuneCP5_13TeV-powheg-madspin-pythia8/4475DA5A-DFF5-354D-A4F4-DFA55C6048DB.root'
p749
aS'/eos/cms/store/group/phys_smp/AnalysisFramework/Baobab/Metin/gammaplusb/2018/MC/ST_t-channel_top_4f_InclusiveDecays_TuneCP5_13TeV-powheg-madspin-pythia8/EA96BB09-7830-524F-90D9-90AC256F38DB.root'
p750
aS'/eos/cms/store/group/phys_smp/AnalysisFramework/Baobab/Metin/gammaplusb/2018/MC/ST_t-channel_top_4f_InclusiveDecays_TuneCP5_13TeV-powheg-madspin-pythia8/3E4BAE4C-F031-EA4A-9C3B-62D0534CE489.root'
p751
aS'/eos/cms/store/group/phys_smp/AnalysisFramework/Baobab/Metin/gammaplusb/2018/MC/ST_t-channel_top_4f_InclusiveDecays_TuneCP5_13TeV-powheg-madspin-pythia8/3206B7B4-6A86-7F4E-9932-B2672085FB33.root'
p752
aS'/eos/cms/store/group/phys_smp/AnalysisFramework/Baobab/Metin/gammaplusb/2018/MC/ST_t-channel_top_4f_InclusiveDecays_TuneCP5_13TeV-powheg-madspin-pythia8/F839C4FF-B8DB-C049-8F72-19A278C9CE5D.root'
p753
aS'/eos/cms/store/group/phys_smp/AnalysisFramework/Baobab/Metin/gammaplusb/2018/MC/ST_t-channel_top_4f_InclusiveDecays_TuneCP5_13TeV-powheg-madspin-pythia8/18ABF752-CF1E-B24A-A7D1-3F4AD1E842F0.root'
p754
aS'/eos/cms/store/group/phys_smp/AnalysisFramework/Baobab/Metin/gammaplusb/2018/MC/ST_t-channel_top_4f_InclusiveDecays_TuneCP5_13TeV-powheg-madspin-pythia8/520D8E09-CE54-E94C-B41E-7B8DE80AF174.root'
p755
aS'/eos/cms/store/group/phys_smp/AnalysisFramework/Baobab/Metin/gammaplusb/2018/MC/ST_t-channel_top_4f_InclusiveDecays_TuneCP5_13TeV-powheg-madspin-pythia8/00FA0329-D651-3D46-879A-D0C714CAB221.root'
p756
aS'/eos/cms/store/group/phys_smp/AnalysisFramework/Baobab/Metin/gammaplusb/2018/MC/ST_t-channel_top_4f_InclusiveDecays_TuneCP5_13TeV-powheg-madspin-pythia8/28B30A41-3294-9540-B1EF-BCE1876A1E58.root'
p757
aS'/eos/cms/store/group/phys_smp/AnalysisFramework/Baobab/Metin/gammaplusb/2018/MC/ST_t-channel_top_4f_InclusiveDecays_TuneCP5_13TeV-powheg-madspin-pythia8/750F1FEB-0397-9343-B332-605D8C3CB502.root'
p758
aS'/eos/cms/store/group/phys_smp/AnalysisFramework/Baobab/Metin/gammaplusb/2018/MC/ST_t-channel_top_4f_InclusiveDecays_TuneCP5_13TeV-powheg-madspin-pythia8/F5424E1D-8516-E548-BECE-2D4529457300.root'
p759
aS'/eos/cms/store/group/phys_smp/AnalysisFramework/Baobab/Metin/gammaplusb/2018/MC/ST_t-channel_top_4f_InclusiveDecays_TuneCP5_13TeV-powheg-madspin-pythia8/14A17E19-EF54-1340-AEAE-07062BDB25F9.root'
p760
aS'/eos/cms/store/group/phys_smp/AnalysisFramework/Baobab/Metin/gammaplusb/2018/MC/ST_t-channel_top_4f_InclusiveDecays_TuneCP5_13TeV-powheg-madspin-pythia8/3D9FDB71-3DC7-F149-B0AA-E74D2FFF8A22.root'
p761
aS'/eos/cms/store/group/phys_smp/AnalysisFramework/Baobab/Metin/gammaplusb/2018/MC/ST_t-channel_top_4f_InclusiveDecays_TuneCP5_13TeV-powheg-madspin-pythia8/53561127-7BD1-284A-86DA-4C382D8EFA5D.root'
p762
aS'/eos/cms/store/group/phys_smp/AnalysisFramework/Baobab/Metin/gammaplusb/2018/MC/ST_t-channel_top_4f_InclusiveDecays_TuneCP5_13TeV-powheg-madspin-pythia8/589649B5-BAD9-CE40-A79C-FAF83B33B100.root'
p763
aS'/eos/cms/store/group/phys_smp/AnalysisFramework/Baobab/Metin/gammaplusb/2018/MC/ST_t-channel_top_4f_InclusiveDecays_TuneCP5_13TeV-powheg-madspin-pythia8/64156B35-443D-3A46-B910-7D958D6B4ACD.root'
p764
aS'/eos/cms/store/group/phys_smp/AnalysisFramework/Baobab/Metin/gammaplusb/2018/MC/ST_t-channel_top_4f_InclusiveDecays_TuneCP5_13TeV-powheg-madspin-pythia8/AD626172-D30B-CA4A-95F0-34B36380E6AE.root'
p765
aS'/eos/cms/store/group/phys_smp/AnalysisFramework/Baobab/Metin/gammaplusb/2018/MC/ST_t-channel_top_4f_InclusiveDecays_TuneCP5_13TeV-powheg-madspin-pythia8/76AB0DA1-294E-EF49-8F6E-5CBC528AA987.root'
p766
aS'/eos/cms/store/group/phys_smp/AnalysisFramework/Baobab/Metin/gammaplusb/2018/MC/ST_t-channel_top_4f_InclusiveDecays_TuneCP5_13TeV-powheg-madspin-pythia8/768A3D1C-079F-6B4F-9CE3-A1EACEF6110C.root'
p767
aS'/eos/cms/store/group/phys_smp/AnalysisFramework/Baobab/Metin/gammaplusb/2018/MC/ST_t-channel_top_4f_InclusiveDecays_TuneCP5_13TeV-powheg-madspin-pythia8/92CFE902-11F2-5E4F-9901-65B4A91E6CF6.root'
p768
aS'/eos/cms/store/group/phys_smp/AnalysisFramework/Baobab/Metin/gammaplusb/2018/MC/ST_t-channel_top_4f_InclusiveDecays_TuneCP5_13TeV-powheg-madspin-pythia8/640FD0BA-F8A2-584B-8C8A-764CE9C6079D.root'
p769
aS'/eos/cms/store/group/phys_smp/AnalysisFramework/Baobab/Metin/gammaplusb/2018/MC/ST_t-channel_top_4f_InclusiveDecays_TuneCP5_13TeV-powheg-madspin-pythia8/109EE4E7-C19C-F44E-A1CF-DF8254D4CFFA.root'
p770
aS'/eos/cms/store/group/phys_smp/AnalysisFramework/Baobab/Metin/gammaplusb/2018/MC/ST_t-channel_top_4f_InclusiveDecays_TuneCP5_13TeV-powheg-madspin-pythia8/CE5A66DE-D34E-FA4A-93B3-01E5BCB92570.root'
p771
aS'/eos/cms/store/group/phys_smp/AnalysisFramework/Baobab/Metin/gammaplusb/2018/MC/ST_t-channel_top_4f_InclusiveDecays_TuneCP5_13TeV-powheg-madspin-pythia8/D56A672F-EB0A-D545-80D1-39A690BF8E8F.root'
p772
aS'/eos/cms/store/group/phys_smp/AnalysisFramework/Baobab/Metin/gammaplusb/2018/MC/ST_t-channel_top_4f_InclusiveDecays_TuneCP5_13TeV-powheg-madspin-pythia8/A5F1DBF0-F410-C24C-AFA6-E50E2829B06D.root'
p773
aS'/eos/cms/store/group/phys_smp/AnalysisFramework/Baobab/Metin/gammaplusb/2018/MC/ST_t-channel_top_4f_InclusiveDecays_TuneCP5_13TeV-powheg-madspin-pythia8/D8AD31AC-99FD-6447-A995-B45A9AEAA501.root'
p774
aS'/eos/cms/store/group/phys_smp/AnalysisFramework/Baobab/Metin/gammaplusb/2018/MC/ST_t-channel_top_4f_InclusiveDecays_TuneCP5_13TeV-powheg-madspin-pythia8/FE3576ED-A733-7648-887A-1A8B280F5593.root'
p775
aS'/eos/cms/store/group/phys_smp/AnalysisFramework/Baobab/Metin/gammaplusb/2018/MC/ST_t-channel_top_4f_InclusiveDecays_TuneCP5_13TeV-powheg-madspin-pythia8/5ACA6688-ADCB-FD45-B953-D510E108252D.root'
p776
aS'/eos/cms/store/group/phys_smp/AnalysisFramework/Baobab/Metin/gammaplusb/2018/MC/ST_t-channel_top_4f_InclusiveDecays_TuneCP5_13TeV-powheg-madspin-pythia8/AD291386-E67E-274A-A523-FDB67983B1B1.root'
p777
aS'/eos/cms/store/group/phys_smp/AnalysisFramework/Baobab/Metin/gammaplusb/2018/MC/ST_t-channel_top_4f_InclusiveDecays_TuneCP5_13TeV-powheg-madspin-pythia8/6EF7ED8A-A013-5D41-B479-EA1E8B80FEF0.root'
p778
aS'/eos/cms/store/group/phys_smp/AnalysisFramework/Baobab/Metin/gammaplusb/2018/MC/ST_t-channel_top_4f_InclusiveDecays_TuneCP5_13TeV-powheg-madspin-pythia8/25F078D7-FC43-0E43-9ACA-E6B646DC3E2C.root'
p779
aS'/eos/cms/store/group/phys_smp/AnalysisFramework/Baobab/Metin/gammaplusb/2018/MC/ST_t-channel_top_4f_InclusiveDecays_TuneCP5_13TeV-powheg-madspin-pythia8/D236251A-00FE-FC40-9869-33C4DF5BAD44.root'
p780
aS'/eos/cms/store/group/phys_smp/AnalysisFramework/Baobab/Metin/gammaplusb/2018/MC/ST_t-channel_top_4f_InclusiveDecays_TuneCP5_13TeV-powheg-madspin-pythia8/EC649CB8-D20A-D54C-982A-36B096DA67C6.root'
p781
aS'/eos/cms/store/group/phys_smp/AnalysisFramework/Baobab/Metin/gammaplusb/2018/MC/ST_t-channel_top_4f_InclusiveDecays_TuneCP5_13TeV-powheg-madspin-pythia8/5EBA9BFC-5C43-0343-9A96-6F421988E1E4.root'
p782
aS'/eos/cms/store/group/phys_smp/AnalysisFramework/Baobab/Metin/gammaplusb/2018/MC/ST_t-channel_top_4f_InclusiveDecays_TuneCP5_13TeV-powheg-madspin-pythia8/B77F35F9-1075-E846-96A8-110961DA48E5.root'
p783
aS'/eos/cms/store/group/phys_smp/AnalysisFramework/Baobab/Metin/gammaplusb/2018/MC/ST_t-channel_top_4f_InclusiveDecays_TuneCP5_13TeV-powheg-madspin-pythia8/40F6DCCD-4EC9-B44F-A540-0B6B430FAD42.root'
p784
aS'/eos/cms/store/group/phys_smp/AnalysisFramework/Baobab/Metin/gammaplusb/2018/MC/ST_t-channel_top_4f_InclusiveDecays_TuneCP5_13TeV-powheg-madspin-pythia8/7A7646C1-4FAA-3D42-A6BE-D84408FAAC96.root'
p785
aS'/eos/cms/store/group/phys_smp/AnalysisFramework/Baobab/Metin/gammaplusb/2018/MC/ST_t-channel_top_4f_InclusiveDecays_TuneCP5_13TeV-powheg-madspin-pythia8/E019C02C-8009-6942-9C09-B70134E9CC3A.root'
p786
aS'/eos/cms/store/group/phys_smp/AnalysisFramework/Baobab/Metin/gammaplusb/2018/MC/ST_t-channel_top_4f_InclusiveDecays_TuneCP5_13TeV-powheg-madspin-pythia8/B771A295-3590-874F-94D0-A73E5238A15A.root'
p787
aS'/eos/cms/store/group/phys_smp/AnalysisFramework/Baobab/Metin/gammaplusb/2018/MC/ST_t-channel_top_4f_InclusiveDecays_TuneCP5_13TeV-powheg-madspin-pythia8/98E9AC5C-DF7A-1E4E-9E97-D06FA09AF940.root'
p788
aS'/eos/cms/store/group/phys_smp/AnalysisFramework/Baobab/Metin/gammaplusb/2018/MC/ST_t-channel_top_4f_InclusiveDecays_TuneCP5_13TeV-powheg-madspin-pythia8/6B3B9E1D-5FFA-C644-9DF0-6387D0FE5520.root'
p789
aS'/eos/cms/store/group/phys_smp/AnalysisFramework/Baobab/Metin/gammaplusb/2018/MC/ST_t-channel_top_4f_InclusiveDecays_TuneCP5_13TeV-powheg-madspin-pythia8/86FF1C0A-7745-3A4C-8AF4-D7D77966AA06.root'
p790
aS'/eos/cms/store/group/phys_smp/AnalysisFramework/Baobab/Metin/gammaplusb/2018/MC/ST_t-channel_top_4f_InclusiveDecays_TuneCP5_13TeV-powheg-madspin-pythia8/D42B5E5B-619E-C24B-AA7B-F1D2850A76DA.root'
p791
aS'/eos/cms/store/group/phys_smp/AnalysisFramework/Baobab/Metin/gammaplusb/2018/MC/ST_t-channel_top_4f_InclusiveDecays_TuneCP5_13TeV-powheg-madspin-pythia8/7DFBB4D6-3232-2146-BD1C-434B4245A4FA.root'
p792
aS'/eos/cms/store/group/phys_smp/AnalysisFramework/Baobab/Metin/gammaplusb/2018/MC/ST_t-channel_top_4f_InclusiveDecays_TuneCP5_13TeV-powheg-madspin-pythia8/5ED29B92-1773-E745-9CA8-5B3EEC15D3CB.root'
p793
aS'/eos/cms/store/group/phys_smp/AnalysisFramework/Baobab/Metin/gammaplusb/2018/MC/ST_t-channel_top_4f_InclusiveDecays_TuneCP5_13TeV-powheg-madspin-pythia8/7FD8EBF5-97D8-D549-8D3B-67EA459E4995.root'
p794
aS'/eos/cms/store/group/phys_smp/AnalysisFramework/Baobab/Metin/gammaplusb/2018/MC/ST_t-channel_top_4f_InclusiveDecays_TuneCP5_13TeV-powheg-madspin-pythia8/4DCB7078-815C-D546-9EA3-6F103DE20641.root'
p795
aS'/eos/cms/store/group/phys_smp/AnalysisFramework/Baobab/Metin/gammaplusb/2018/MC/ST_t-channel_top_4f_InclusiveDecays_TuneCP5_13TeV-powheg-madspin-pythia8/575CE6D4-71EA-A843-84F1-3F108C9C1A5F.root'
p796
aS'/eos/cms/store/group/phys_smp/AnalysisFramework/Baobab/Metin/gammaplusb/2018/MC/ST_t-channel_top_4f_InclusiveDecays_TuneCP5_13TeV-powheg-madspin-pythia8/BB2CC68D-B54D-6D46-9FBF-A9FC281B1E60.root'
p797
aS'/eos/cms/store/group/phys_smp/AnalysisFramework/Baobab/Metin/gammaplusb/2018/MC/ST_t-channel_top_4f_InclusiveDecays_TuneCP5_13TeV-powheg-madspin-pythia8/D86078E6-D656-4F43-8B60-214C28E64A84.root'
p798
aS'/eos/cms/store/group/phys_smp/AnalysisFramework/Baobab/Metin/gammaplusb/2018/MC/ST_t-channel_top_4f_InclusiveDecays_TuneCP5_13TeV-powheg-madspin-pythia8/0F0A573A-51CD-5640-8301-948A87C59069.root'
p799
aS'/eos/cms/store/group/phys_smp/AnalysisFramework/Baobab/Metin/gammaplusb/2018/MC/ST_t-channel_top_4f_InclusiveDecays_TuneCP5_13TeV-powheg-madspin-pythia8/6277EDDE-D35F-0B4F-BD64-0AD7DF46DA1B.root'
p800
aS'/eos/cms/store/group/phys_smp/AnalysisFramework/Baobab/Metin/gammaplusb/2018/MC/ST_t-channel_top_4f_InclusiveDecays_TuneCP5_13TeV-powheg-madspin-pythia8/9F383FFE-E31F-3F4A-A99A-19FCD007E8AC.root'
p801
aS'/eos/cms/store/group/phys_smp/AnalysisFramework/Baobab/Metin/gammaplusb/2018/MC/ST_t-channel_top_4f_InclusiveDecays_TuneCP5_13TeV-powheg-madspin-pythia8/C61FF1FD-AACA-E74C-92FE-C7C1853D60D0.root'
p802
aS'/eos/cms/store/group/phys_smp/AnalysisFramework/Baobab/Metin/gammaplusb/2018/MC/ST_t-channel_top_4f_InclusiveDecays_TuneCP5_13TeV-powheg-madspin-pythia8/C327930B-95A4-A045-B959-A124B5C01988.root'
p803
aS'/eos/cms/store/group/phys_smp/AnalysisFramework/Baobab/Metin/gammaplusb/2018/MC/ST_t-channel_top_4f_InclusiveDecays_TuneCP5_13TeV-powheg-madspin-pythia8/5DAEFA4A-01A8-BF42-B0A9-BAD9761F5EE1.root'
p804
aS'/eos/cms/store/group/phys_smp/AnalysisFramework/Baobab/Metin/gammaplusb/2018/MC/ST_t-channel_top_4f_InclusiveDecays_TuneCP5_13TeV-powheg-madspin-pythia8/8A6B256E-F08F-5846-81C2-A25CA5AA0DBF.root'
p805
aS'/eos/cms/store/group/phys_smp/AnalysisFramework/Baobab/Metin/gammaplusb/2018/MC/ST_t-channel_top_4f_InclusiveDecays_TuneCP5_13TeV-powheg-madspin-pythia8/E682647E-7624-3242-85A8-73417AC07943.root'
p806
aS'/eos/cms/store/group/phys_smp/AnalysisFramework/Baobab/Metin/gammaplusb/2018/MC/ST_t-channel_top_4f_InclusiveDecays_TuneCP5_13TeV-powheg-madspin-pythia8/C168FF26-AFE5-6A41-9FE3-03E20AC78749.root'
p807
aS'/eos/cms/store/group/phys_smp/AnalysisFramework/Baobab/Metin/gammaplusb/2018/MC/ST_t-channel_top_4f_InclusiveDecays_TuneCP5_13TeV-powheg-madspin-pythia8/836728EE-6406-6043-A7D8-6DB79D684288.root'
p808
aS'/eos/cms/store/group/phys_smp/AnalysisFramework/Baobab/Metin/gammaplusb/2018/MC/ST_t-channel_top_4f_InclusiveDecays_TuneCP5_13TeV-powheg-madspin-pythia8/0D5A0F3A-6930-D748-A200-A26C85F05769.root'
p809
aS'/eos/cms/store/group/phys_smp/AnalysisFramework/Baobab/Metin/gammaplusb/2018/MC/ST_t-channel_top_4f_InclusiveDecays_TuneCP5_13TeV-powheg-madspin-pythia8/61E3DF5B-190E-A049-AEB5-5175C09558B5.root'
p810
aS'/eos/cms/store/group/phys_smp/AnalysisFramework/Baobab/Metin/gammaplusb/2018/MC/ST_t-channel_top_4f_InclusiveDecays_TuneCP5_13TeV-powheg-madspin-pythia8/E0748DC0-3363-6142-AD5A-1D948C6932B2.root'
p811
aS'/eos/cms/store/group/phys_smp/AnalysisFramework/Baobab/Metin/gammaplusb/2018/MC/ST_t-channel_top_4f_InclusiveDecays_TuneCP5_13TeV-powheg-madspin-pythia8/894B6B3E-320F-8140-A771-3DEEC80A05CA.root'
p812
aS'/eos/cms/store/group/phys_smp/AnalysisFramework/Baobab/Metin/gammaplusb/2018/MC/ST_t-channel_top_4f_InclusiveDecays_TuneCP5_13TeV-powheg-madspin-pythia8/2192AB5B-2B64-5141-B01D-2474FDA5A79C.root'
p813
aS'/eos/cms/store/group/phys_smp/AnalysisFramework/Baobab/Metin/gammaplusb/2018/MC/ST_t-channel_top_4f_InclusiveDecays_TuneCP5_13TeV-powheg-madspin-pythia8/568B56CC-8109-1E45-9C84-777898D739BA.root'
p814
aS'/eos/cms/store/group/phys_smp/AnalysisFramework/Baobab/Metin/gammaplusb/2018/MC/ST_t-channel_top_4f_InclusiveDecays_TuneCP5_13TeV-powheg-madspin-pythia8/D515777E-44DE-B644-81B8-3BB2D2EF981E.root'
p815
aS'/eos/cms/store/group/phys_smp/AnalysisFramework/Baobab/Metin/gammaplusb/2018/MC/ST_t-channel_top_4f_InclusiveDecays_TuneCP5_13TeV-powheg-madspin-pythia8/77258BC9-E4E6-3649-B38D-DC091B5509BB.root'
p816
aS'/eos/cms/store/group/phys_smp/AnalysisFramework/Baobab/Metin/gammaplusb/2018/MC/ST_t-channel_top_4f_InclusiveDecays_TuneCP5_13TeV-powheg-madspin-pythia8/5B5E9A29-BA98-A846-9985-50D66E3F4AFF.root'
p817
aS'/eos/cms/store/group/phys_smp/AnalysisFramework/Baobab/Metin/gammaplusb/2018/MC/ST_t-channel_top_4f_InclusiveDecays_TuneCP5_13TeV-powheg-madspin-pythia8/05EAE60C-7352-1747-8005-6E8618E432B7.root'
p818
aS'/eos/cms/store/group/phys_smp/AnalysisFramework/Baobab/Metin/gammaplusb/2018/MC/ST_t-channel_top_4f_InclusiveDecays_TuneCP5_13TeV-powheg-madspin-pythia8/8CCBC86D-EB38-9943-B5D4-25E60A66E551.root'
p819
asg30
F115.3
sg31
S'/ST_t-channel_top_4f_InclusiveDecays_TuneCP5_13TeV-powheg-madspin-pythia8/RunIIAutumn18NanoAODv7-Nano02Apr2020_102X_upgrade2018_realistic_v21-v1/NANOAODSIM'
p820
ssg130
(dp821
g6
F28.22
sg7
F0.003758
sg8
F0.02817
sg9
(lp822
S'/eos/cms/store/group/phys_smp/AnalysisFramework/Baobab/Metin/gammaplusb/2018/MC/ST_tW_top_5f_inclusiveDecays_TuneCP5_13TeV-powheg-pythia8/0D57AC0F-40F6-8640-BB69-E46F1DA27B11.root'
p823
aS'/eos/cms/store/group/phys_smp/AnalysisFramework/Baobab/Metin/gammaplusb/2018/MC/ST_tW_top_5f_inclusiveDecays_TuneCP5_13TeV-powheg-pythia8/3452AF6B-DC7B-FA45-BEB6-0D61C1B1EE69.root'
p824
aS'/eos/cms/store/group/phys_smp/AnalysisFramework/Baobab/Metin/gammaplusb/2018/MC/ST_tW_top_5f_inclusiveDecays_TuneCP5_13TeV-powheg-pythia8/5F32167F-8392-B941-965E-AA1222978FA8.root'
p825
aS'/eos/cms/store/group/phys_smp/AnalysisFramework/Baobab/Metin/gammaplusb/2018/MC/ST_tW_top_5f_inclusiveDecays_TuneCP5_13TeV-powheg-pythia8/758D4429-3F2E-B046-9A5E-F99902D35412.root'
p826
aS'/eos/cms/store/group/phys_smp/AnalysisFramework/Baobab/Metin/gammaplusb/2018/MC/ST_tW_top_5f_inclusiveDecays_TuneCP5_13TeV-powheg-pythia8/779DE0D6-FA2D-0B43-8DA5-7C79C4AF2211.root'
p827
aS'/eos/cms/store/group/phys_smp/AnalysisFramework/Baobab/Metin/gammaplusb/2018/MC/ST_tW_top_5f_inclusiveDecays_TuneCP5_13TeV-powheg-pythia8/87073C89-97A3-8B40-8E59-113D4469126E.root'
p828
aS'/eos/cms/store/group/phys_smp/AnalysisFramework/Baobab/Metin/gammaplusb/2018/MC/ST_tW_top_5f_inclusiveDecays_TuneCP5_13TeV-powheg-pythia8/92504F03-373D-4948-B5B3-A8886D2E9A96.root'
p829
aS'/eos/cms/store/group/phys_smp/AnalysisFramework/Baobab/Metin/gammaplusb/2018/MC/ST_tW_top_5f_inclusiveDecays_TuneCP5_13TeV-powheg-pythia8/A22CD38B-BAAA-D84A-92C7-1D836FCF11F4.root'
p830
aS'/eos/cms/store/group/phys_smp/AnalysisFramework/Baobab/Metin/gammaplusb/2018/MC/ST_tW_top_5f_inclusiveDecays_TuneCP5_13TeV-powheg-pythia8/C720EBDB-F75C-4F48-8DF5-52ED3A80C7B8.root'
p831
aS'/eos/cms/store/group/phys_smp/AnalysisFramework/Baobab/Metin/gammaplusb/2018/MC/ST_tW_top_5f_inclusiveDecays_TuneCP5_13TeV-powheg-pythia8/DF69049B-4E5A-F346-A7A3-C3FC5FFEF25A.root'
p832
aS'/eos/cms/store/group/phys_smp/AnalysisFramework/Baobab/Metin/gammaplusb/2018/MC/ST_tW_top_5f_inclusiveDecays_TuneCP5_13TeV-powheg-pythia8/FE0CEDE0-6716-DE4A-A5C9-D1C126E7A2F1.root'
p833
asg30
F34.91
sg31
S'/ST_tW_top_5f_inclusiveDecays_TuneCP5_13TeV-powheg-pythia8/RunIIAutumn18NanoAODv7-Nano02Apr2020_102X_upgrade2018_realistic_v21_ext1-v1/NANOAODSIM'
p834
ssg141
(dp835
g6
F7.526e-07
sg7
F0.0
sg8
F10220000.0
sg9
(lp836
S'/eos/cms/store/group/phys_smp/AnalysisFramework/Baobab/Metin/gammaplusb/2018/MC/QCD_Pt-15to7000_TuneCH3_Flat_13TeV_herwig7/25E736D9-D974-4540-BE4B-E6F0FF88527D.root'
p837
aS'/eos/cms/store/group/phys_smp/AnalysisFramework/Baobab/Metin/gammaplusb/2018/MC/QCD_Pt-15to7000_TuneCH3_Flat_13TeV_herwig7/7475D8A9-68D3-B243-9357-115C665FAE0C.root'
p838
aS'/eos/cms/store/group/phys_smp/AnalysisFramework/Baobab/Metin/gammaplusb/2018/MC/QCD_Pt-15to7000_TuneCH3_Flat_13TeV_herwig7/A6991A37-24EC-B947-889C-43FDBDF716A5.root'
p839
aS'/eos/cms/store/group/phys_smp/AnalysisFramework/Baobab/Metin/gammaplusb/2018/MC/QCD_Pt-15to7000_TuneCH3_Flat_13TeV_herwig7/D399725B-B7AF-BA47-A6BF-20BB1E48DE31.root'
p840
aS'/eos/cms/store/group/phys_smp/AnalysisFramework/Baobab/Metin/gammaplusb/2018/MC/QCD_Pt-15to7000_TuneCH3_Flat_13TeV_herwig7/E3BA7BFC-EEDE-C841-8D4C-871020E557E3.root'
p841
aS'/eos/cms/store/group/phys_smp/AnalysisFramework/Baobab/Metin/gammaplusb/2018/MC/QCD_Pt-15to7000_TuneCH3_Flat_13TeV_herwig7/6108851C-3019-C345-8D9C-A3889694622E.root'
p842
aS'/eos/cms/store/group/phys_smp/AnalysisFramework/Baobab/Metin/gammaplusb/2018/MC/QCD_Pt-15to7000_TuneCH3_Flat_13TeV_herwig7/8E7FA7C7-7A7A-0048-B628-AC557D34D4A6.root'
p843
aS'/eos/cms/store/group/phys_smp/AnalysisFramework/Baobab/Metin/gammaplusb/2018/MC/QCD_Pt-15to7000_TuneCH3_Flat_13TeV_herwig7/DB6CBDAF-9215-494C-AB99-49C94E87007F.root'
p844
aS'/eos/cms/store/group/phys_smp/AnalysisFramework/Baobab/Metin/gammaplusb/2018/MC/QCD_Pt-15to7000_TuneCH3_Flat_13TeV_herwig7/B192D23D-CC18-FC45-8C35-5119BD2ADA01.root'
p845
aS'/eos/cms/store/group/phys_smp/AnalysisFramework/Baobab/Metin/gammaplusb/2018/MC/QCD_Pt-15to7000_TuneCH3_Flat_13TeV_herwig7/1037D64B-C3BE-0042-B6EA-13FD6F9AB4E7.root'
p846
aS'/eos/cms/store/group/phys_smp/AnalysisFramework/Baobab/Metin/gammaplusb/2018/MC/QCD_Pt-15to7000_TuneCH3_Flat_13TeV_herwig7/F8F8C023-DCB7-094A-95F2-28542E99D67E.root'
p847
aS'/eos/cms/store/group/phys_smp/AnalysisFramework/Baobab/Metin/gammaplusb/2018/MC/QCD_Pt-15to7000_TuneCH3_Flat_13TeV_herwig7/DC359BA2-9E07-5341-929F-3D1AF9BA5F2F.root'
p848
aS'/eos/cms/store/group/phys_smp/AnalysisFramework/Baobab/Metin/gammaplusb/2018/MC/QCD_Pt-15to7000_TuneCH3_Flat_13TeV_herwig7/B4F9B0E2-AE4B-4440-BA81-1F50C0E6273B.root'
p849
aS'/eos/cms/store/group/phys_smp/AnalysisFramework/Baobab/Metin/gammaplusb/2018/MC/QCD_Pt-15to7000_TuneCH3_Flat_13TeV_herwig7/609545F6-FDB6-F048-8F61-D19FBF730D5F.root'
p850
aS'/eos/cms/store/group/phys_smp/AnalysisFramework/Baobab/Metin/gammaplusb/2018/MC/QCD_Pt-15to7000_TuneCH3_Flat_13TeV_herwig7/14591D3C-7723-4847-89CD-DC276F8ABD13.root'
p851
aS'/eos/cms/store/group/phys_smp/AnalysisFramework/Baobab/Metin/gammaplusb/2018/MC/QCD_Pt-15to7000_TuneCH3_Flat_13TeV_herwig7/8EFCA2C4-FC71-DD44-B0F3-90FBC4FBA57E.root'
p852
aS'/eos/cms/store/group/phys_smp/AnalysisFramework/Baobab/Metin/gammaplusb/2018/MC/QCD_Pt-15to7000_TuneCH3_Flat_13TeV_herwig7/2F5A09E5-ED6F-7D44-B48C-D8AB6076DEB2.root'
p853
aS'/eos/cms/store/group/phys_smp/AnalysisFramework/Baobab/Metin/gammaplusb/2018/MC/QCD_Pt-15to7000_TuneCH3_Flat_13TeV_herwig7/DAC58704-0E8F-6D45-84D5-BDACC4CD8A08.root'
p854
aS'/eos/cms/store/group/phys_smp/AnalysisFramework/Baobab/Metin/gammaplusb/2018/MC/QCD_Pt-15to7000_TuneCH3_Flat_13TeV_herwig7/EF9B9F29-8D9F-7D4A-B5EB-9B0D15A9D330.root'
p855
aS'/eos/cms/store/group/phys_smp/AnalysisFramework/Baobab/Metin/gammaplusb/2018/MC/QCD_Pt-15to7000_TuneCH3_Flat_13TeV_herwig7/3676FFDA-6336-BC4F-911A-71DC8C5C380A.root'
p856
aS'/eos/cms/store/group/phys_smp/AnalysisFramework/Baobab/Metin/gammaplusb/2018/MC/QCD_Pt-15to7000_TuneCH3_Flat_13TeV_herwig7/6AB381CB-388A-3B4D-94F0-DD0702E68A47.root'
p857
aS'/eos/cms/store/group/phys_smp/AnalysisFramework/Baobab/Metin/gammaplusb/2018/MC/QCD_Pt-15to7000_TuneCH3_Flat_13TeV_herwig7/5B7FA664-A9EB-194F-B232-56E4E39898E1.root'
p858
aS'/eos/cms/store/group/phys_smp/AnalysisFramework/Baobab/Metin/gammaplusb/2018/MC/QCD_Pt-15to7000_TuneCH3_Flat_13TeV_herwig7/C9A242AC-1D81-EE4E-86E7-FCF28C3F77C5.root'
p859
aS'/eos/cms/store/group/phys_smp/AnalysisFramework/Baobab/Metin/gammaplusb/2018/MC/QCD_Pt-15to7000_TuneCH3_Flat_13TeV_herwig7/AC8B2268-B457-DE4B-8707-A346D7703A38.root'
p860
aS'/eos/cms/store/group/phys_smp/AnalysisFramework/Baobab/Metin/gammaplusb/2018/MC/QCD_Pt-15to7000_TuneCH3_Flat_13TeV_herwig7/CCD943C2-8663-7745-A666-BABBFCE6D092.root'
p861
aS'/eos/cms/store/group/phys_smp/AnalysisFramework/Baobab/Metin/gammaplusb/2018/MC/QCD_Pt-15to7000_TuneCH3_Flat_13TeV_herwig7/67FE4C1C-6AE7-7947-ADDE-621BF1E4D606.root'
p862
aS'/eos/cms/store/group/phys_smp/AnalysisFramework/Baobab/Metin/gammaplusb/2018/MC/QCD_Pt-15to7000_TuneCH3_Flat_13TeV_herwig7/6F870C35-FFE6-A34C-A27C-C286CCD54437.root'
p863
aS'/eos/cms/store/group/phys_smp/AnalysisFramework/Baobab/Metin/gammaplusb/2018/MC/QCD_Pt-15to7000_TuneCH3_Flat_13TeV_herwig7/2A92EC03-07A4-5147-955E-CF0E89BAF136.root'
p864
aS'/eos/cms/store/group/phys_smp/AnalysisFramework/Baobab/Metin/gammaplusb/2018/MC/QCD_Pt-15to7000_TuneCH3_Flat_13TeV_herwig7/050B2C4E-9A19-0048-88C3-67F872F793F2.root'
p865
aS'/eos/cms/store/group/phys_smp/AnalysisFramework/Baobab/Metin/gammaplusb/2018/MC/QCD_Pt-15to7000_TuneCH3_Flat_13TeV_herwig7/181A5836-6E0A-474B-8AD8-B2D44FD2F34E.root'
p866
aS'/eos/cms/store/group/phys_smp/AnalysisFramework/Baobab/Metin/gammaplusb/2018/MC/QCD_Pt-15to7000_TuneCH3_Flat_13TeV_herwig7/8D24596E-5C43-6648-800B-0964C6D0F118.root'
p867
aS'/eos/cms/store/group/phys_smp/AnalysisFramework/Baobab/Metin/gammaplusb/2018/MC/QCD_Pt-15to7000_TuneCH3_Flat_13TeV_herwig7/20AB9437-4DC0-2845-BD4C-66545BADB435.root'
p868
aS'/eos/cms/store/group/phys_smp/AnalysisFramework/Baobab/Metin/gammaplusb/2018/MC/QCD_Pt-15to7000_TuneCH3_Flat_13TeV_herwig7/FEB6696C-A495-CC4A-8E1C-1FBB1A26AF0F.root'
p869
aS'/eos/cms/store/group/phys_smp/AnalysisFramework/Baobab/Metin/gammaplusb/2018/MC/QCD_Pt-15to7000_TuneCH3_Flat_13TeV_herwig7/E5EFEF7A-BD36-784E-B18C-0428CF671BD1.root'
p870
aS'/eos/cms/store/group/phys_smp/AnalysisFramework/Baobab/Metin/gammaplusb/2018/MC/QCD_Pt-15to7000_TuneCH3_Flat_13TeV_herwig7/1B2D39D1-CDCA-4842-9880-5FCB9C8C5C81.root'
p871
aS'/eos/cms/store/group/phys_smp/AnalysisFramework/Baobab/Metin/gammaplusb/2018/MC/QCD_Pt-15to7000_TuneCH3_Flat_13TeV_herwig7/58CA881D-1A72-A940-BE06-7B41E1C3C748.root'
p872
aS'/eos/cms/store/group/phys_smp/AnalysisFramework/Baobab/Metin/gammaplusb/2018/MC/QCD_Pt-15to7000_TuneCH3_Flat_13TeV_herwig7/93B4A660-7ABE-2D4D-A021-E34B6187EAB7.root'
p873
aS'/eos/cms/store/group/phys_smp/AnalysisFramework/Baobab/Metin/gammaplusb/2018/MC/QCD_Pt-15to7000_TuneCH3_Flat_13TeV_herwig7/C2A9D0E3-5CB4-E044-9F2B-7E922EC816EF.root'
p874
aS'/eos/cms/store/group/phys_smp/AnalysisFramework/Baobab/Metin/gammaplusb/2018/MC/QCD_Pt-15to7000_TuneCH3_Flat_13TeV_herwig7/27323F37-2067-484F-80CB-485B283B570D.root'
p875
aS'/eos/cms/store/group/phys_smp/AnalysisFramework/Baobab/Metin/gammaplusb/2018/MC/QCD_Pt-15to7000_TuneCH3_Flat_13TeV_herwig7/A4AE8704-96B7-114F-9050-0E730364F0BB.root'
p876
aS'/eos/cms/store/group/phys_smp/AnalysisFramework/Baobab/Metin/gammaplusb/2018/MC/QCD_Pt-15to7000_TuneCH3_Flat_13TeV_herwig7/553430AD-C01C-BA4F-BA60-D5D574F5EBDA.root'
p877
aS'/eos/cms/store/group/phys_smp/AnalysisFramework/Baobab/Metin/gammaplusb/2018/MC/QCD_Pt-15to7000_TuneCH3_Flat_13TeV_herwig7/4EC119FD-CE96-7442-A40B-CC758B875212.root'
p878
aS'/eos/cms/store/group/phys_smp/AnalysisFramework/Baobab/Metin/gammaplusb/2018/MC/QCD_Pt-15to7000_TuneCH3_Flat_13TeV_herwig7/7217A5A5-2FE3-2C49-86DA-5DCEED9FFCBD.root'
p879
aS'/eos/cms/store/group/phys_smp/AnalysisFramework/Baobab/Metin/gammaplusb/2018/MC/QCD_Pt-15to7000_TuneCH3_Flat_13TeV_herwig7/CDB694BD-E729-6F43-9700-D3850846F9BF.root'
p880
aS'/eos/cms/store/group/phys_smp/AnalysisFramework/Baobab/Metin/gammaplusb/2018/MC/QCD_Pt-15to7000_TuneCH3_Flat_13TeV_herwig7/E9F794A6-B6CC-6D48-A14F-C1C59D131757.root'
p881
aS'/eos/cms/store/group/phys_smp/AnalysisFramework/Baobab/Metin/gammaplusb/2018/MC/QCD_Pt-15to7000_TuneCH3_Flat_13TeV_herwig7/47A230D4-EA7C-D442-ACEB-8F2A6B04842A.root'
p882
asg30
F1329000000.0
sg31
S'/QCD_Pt-15to7000_TuneCH3_Flat_13TeV_herwig7/RunIIAutumn18NanoAODv7-Nano02Apr2020_102X_upgrade2018_realistic_v21-v1/NANOAODSIM'
p883
ssg156
(dp884
g6
F37.33
sg7
F0.3049
sg8
F0.02302
sg9
(lp885
S'/eos/cms/store/group/phys_smp/AnalysisFramework/Baobab/Metin/gammaplusb/2018/MC/TTGJets_TuneCP5_13TeV-amcatnloFXFX-madspin-pythia8/AC7FDF43-337D-B244-A512-E038939CF4B1.root'
p886
aS'/eos/cms/store/group/phys_smp/AnalysisFramework/Baobab/Metin/gammaplusb/2018/MC/TTGJets_TuneCP5_13TeV-amcatnloFXFX-madspin-pythia8/76D6900D-3ACF-C649-9B45-2E6FE44F839D.root'
p887
aS'/eos/cms/store/group/phys_smp/AnalysisFramework/Baobab/Metin/gammaplusb/2018/MC/TTGJets_TuneCP5_13TeV-amcatnloFXFX-madspin-pythia8/58AE29E1-D645-6445-9400-D62C3DC2548A.root'
p888
aS'/eos/cms/store/group/phys_smp/AnalysisFramework/Baobab/Metin/gammaplusb/2018/MC/TTGJets_TuneCP5_13TeV-amcatnloFXFX-madspin-pythia8/28935711-8048-434A-B43E-881C95A2F094.root'
p889
aS'/eos/cms/store/group/phys_smp/AnalysisFramework/Baobab/Metin/gammaplusb/2018/MC/TTGJets_TuneCP5_13TeV-amcatnloFXFX-madspin-pythia8/27089A38-D1FF-EB43-98F2-2474CBF7E8AC.root'
p890
aS'/eos/cms/store/group/phys_smp/AnalysisFramework/Baobab/Metin/gammaplusb/2018/MC/TTGJets_TuneCP5_13TeV-amcatnloFXFX-madspin-pythia8/555C4C0A-F5F3-2F46-B579-4C0BA8076812.root'
p891
aS'/eos/cms/store/group/phys_smp/AnalysisFramework/Baobab/Metin/gammaplusb/2018/MC/TTGJets_TuneCP5_13TeV-amcatnloFXFX-madspin-pythia8/699ACAA4-9DAB-2E46-BEC6-AB00BACF1BC5.root'
p892
aS'/eos/cms/store/group/phys_smp/AnalysisFramework/Baobab/Metin/gammaplusb/2018/MC/TTGJets_TuneCP5_13TeV-amcatnloFXFX-madspin-pythia8/5CAA4155-69FF-9945-B7DF-FA73B6E8AB6C.root'
p893
aS'/eos/cms/store/group/phys_smp/AnalysisFramework/Baobab/Metin/gammaplusb/2018/MC/TTGJets_TuneCP5_13TeV-amcatnloFXFX-madspin-pythia8/CBE204B2-58B4-7A4F-B898-B3C64AC73230.root'
p894
aS'/eos/cms/store/group/phys_smp/AnalysisFramework/Baobab/Metin/gammaplusb/2018/MC/TTGJets_TuneCP5_13TeV-amcatnloFXFX-madspin-pythia8/1A0AA186-F4C5-EC4B-AF76-A2A0A2CAF5A4.root'
p895
aS'/eos/cms/store/group/phys_smp/AnalysisFramework/Baobab/Metin/gammaplusb/2018/MC/TTGJets_TuneCP5_13TeV-amcatnloFXFX-madspin-pythia8/E22F825F-DAD5-4141-8B6F-83008683FC55.root'
p896
aS'/eos/cms/store/group/phys_smp/AnalysisFramework/Baobab/Metin/gammaplusb/2018/MC/TTGJets_TuneCP5_13TeV-amcatnloFXFX-madspin-pythia8/AF1D2099-1C0C-3B45-B929-4ED867DDFB2F.root'
p897
aS'/eos/cms/store/group/phys_smp/AnalysisFramework/Baobab/Metin/gammaplusb/2018/MC/TTGJets_TuneCP5_13TeV-amcatnloFXFX-madspin-pythia8/51D35219-5CA7-924C-9540-D3AB2E247CB8.root'
p898
aS'/eos/cms/store/group/phys_smp/AnalysisFramework/Baobab/Metin/gammaplusb/2018/MC/TTGJets_TuneCP5_13TeV-amcatnloFXFX-madspin-pythia8/A8E87FA7-09EB-E84C-AA26-2CC2805B1C7E.root'
p899
aS'/eos/cms/store/group/phys_smp/AnalysisFramework/Baobab/Metin/gammaplusb/2018/MC/TTGJets_TuneCP5_13TeV-amcatnloFXFX-madspin-pythia8/F54FEB01-AB6A-E941-ADAD-BDC576E16378.root'
p900
aS'/eos/cms/store/group/phys_smp/AnalysisFramework/Baobab/Metin/gammaplusb/2018/MC/TTGJets_TuneCP5_13TeV-amcatnloFXFX-madspin-pythia8/EA27694D-6A65-CF42-A206-ED4DCA2BC30B.root'
p901
aS'/eos/cms/store/group/phys_smp/AnalysisFramework/Baobab/Metin/gammaplusb/2018/MC/TTGJets_TuneCP5_13TeV-amcatnloFXFX-madspin-pythia8/415A3616-4B28-0243-910E-2C18F9F222C7.root'
p902
aS'/eos/cms/store/group/phys_smp/AnalysisFramework/Baobab/Metin/gammaplusb/2018/MC/TTGJets_TuneCP5_13TeV-amcatnloFXFX-madspin-pythia8/6FC4B6E5-B3FC-F64E-8A33-D639A1BF8684.root'
p903
aS'/eos/cms/store/group/phys_smp/AnalysisFramework/Baobab/Metin/gammaplusb/2018/MC/TTGJets_TuneCP5_13TeV-amcatnloFXFX-madspin-pythia8/A9D9D6D5-BE4E-7443-8877-86BED60DA1C1.root'
p904
aS'/eos/cms/store/group/phys_smp/AnalysisFramework/Baobab/Metin/gammaplusb/2018/MC/TTGJets_TuneCP5_13TeV-amcatnloFXFX-madspin-pythia8/75200A5E-9C2F-6C4A-9331-6E9DFD22502C.root'
p905
aS'/eos/cms/store/group/phys_smp/AnalysisFramework/Baobab/Metin/gammaplusb/2018/MC/TTGJets_TuneCP5_13TeV-amcatnloFXFX-madspin-pythia8/5973643F-B1A5-A047-8B7B-EFED3DBC8417.root'
p906
asg30
F4.078
sg31
S'/TTGJets_TuneCP5_13TeV-amcatnloFXFX-madspin-pythia8/RunIIAutumn18NanoAODv7-Nano02Apr2020_102X_upgrade2018_realistic_v21-v1/NANOAODSIM'
p907
ssg170
(dp908
g6
F1.432
sg7
F0.00401
sg8
F0.0
sg9
(lp909
S'/eos/cms/store/group/phys_smp/AnalysisFramework/Baobab/Metin/gammaplusb/2018/MC/TT_TuneCH3_13TeV-powheg-herwig7/5BFA6446-2F89-2B4D-A6CE-2D0E63EEB1DB.root'
p910
aS'/eos/cms/store/group/phys_smp/AnalysisFramework/Baobab/Metin/gammaplusb/2018/MC/TT_TuneCH3_13TeV-powheg-herwig7/FA927C3E-9D10-AF4A-B777-56DD5B159D5F.root'
p911
aS'/eos/cms/store/group/phys_smp/AnalysisFramework/Baobab/Metin/gammaplusb/2018/MC/TT_TuneCH3_13TeV-powheg-herwig7/116C821A-3E97-A942-A7B7-02429F7A6529.root'
p912
aS'/eos/cms/store/group/phys_smp/AnalysisFramework/Baobab/Metin/gammaplusb/2018/MC/TT_TuneCH3_13TeV-powheg-herwig7/3147FA89-584C-3143-A3EE-0080B06559FB.root'
p913
aS'/eos/cms/store/group/phys_smp/AnalysisFramework/Baobab/Metin/gammaplusb/2018/MC/TT_TuneCH3_13TeV-powheg-herwig7/E6FDD35F-0634-0C41-86F3-5A5A6024CAE4.root'
p914
aS'/eos/cms/store/group/phys_smp/AnalysisFramework/Baobab/Metin/gammaplusb/2018/MC/TT_TuneCH3_13TeV-powheg-herwig7/75BB8518-34AC-A443-B782-B89D68D19370.root'
p915
aS'/eos/cms/store/group/phys_smp/AnalysisFramework/Baobab/Metin/gammaplusb/2018/MC/TT_TuneCH3_13TeV-powheg-herwig7/2D7012BF-DC5A-8445-80D0-10D760494E5C.root'
p916
aS'/eos/cms/store/group/phys_smp/AnalysisFramework/Baobab/Metin/gammaplusb/2018/MC/TT_TuneCH3_13TeV-powheg-herwig7/FA39868D-6348-5D43-89B8-54BBD40F231A.root'
p917
aS'/eos/cms/store/group/phys_smp/AnalysisFramework/Baobab/Metin/gammaplusb/2018/MC/TT_TuneCH3_13TeV-powheg-herwig7/BA985FA3-02F4-6747-B479-7369A9670ECF.root'
p918
aS'/eos/cms/store/group/phys_smp/AnalysisFramework/Baobab/Metin/gammaplusb/2018/MC/TT_TuneCH3_13TeV-powheg-herwig7/86E84279-A3F7-CB4D-9E7D-DF601D98CD70.root'
p919
aS'/eos/cms/store/group/phys_smp/AnalysisFramework/Baobab/Metin/gammaplusb/2018/MC/TT_TuneCH3_13TeV-powheg-herwig7/94B7AE52-AF82-DF45-841E-3B2077C77D4E.root'
p920
aS'/eos/cms/store/group/phys_smp/AnalysisFramework/Baobab/Metin/gammaplusb/2018/MC/TT_TuneCH3_13TeV-powheg-herwig7/FF0AFE3B-2812-C945-AD40-D5C4F7D32127.root'
p921
aS'/eos/cms/store/group/phys_smp/AnalysisFramework/Baobab/Metin/gammaplusb/2018/MC/TT_TuneCH3_13TeV-powheg-herwig7/F7001AD4-2E7A-F54F-9A28-640DC1A44A29.root'
p922
aS'/eos/cms/store/group/phys_smp/AnalysisFramework/Baobab/Metin/gammaplusb/2018/MC/TT_TuneCH3_13TeV-powheg-herwig7/58F5DFF4-D55F-9442-BFF8-F9AE9558DC3D.root'
p923
aS'/eos/cms/store/group/phys_smp/AnalysisFramework/Baobab/Metin/gammaplusb/2018/MC/TT_TuneCH3_13TeV-powheg-herwig7/1C682002-FEB3-5A45-9D30-207C05626499.root'
p924
aS'/eos/cms/store/group/phys_smp/AnalysisFramework/Baobab/Metin/gammaplusb/2018/MC/TT_TuneCH3_13TeV-powheg-herwig7/EE963760-9C7A-CE46-A15A-7B1CAD842578.root'
p925
aS'/eos/cms/store/group/phys_smp/AnalysisFramework/Baobab/Metin/gammaplusb/2018/MC/TT_TuneCH3_13TeV-powheg-herwig7/09179862-C7CC-994D-B83A-145931459332.root'
p926
aS'/eos/cms/store/group/phys_smp/AnalysisFramework/Baobab/Metin/gammaplusb/2018/MC/TT_TuneCH3_13TeV-powheg-herwig7/B819F75C-5A2B-1F4F-B583-40B0C2CF9E6B.root'
p927
aS'/eos/cms/store/group/phys_smp/AnalysisFramework/Baobab/Metin/gammaplusb/2018/MC/TT_TuneCH3_13TeV-powheg-herwig7/9D48602F-8F0D-1349-869C-74FAFFB9A078.root'
p928
aS'/eos/cms/store/group/phys_smp/AnalysisFramework/Baobab/Metin/gammaplusb/2018/MC/TT_TuneCH3_13TeV-powheg-herwig7/B677D038-5DDE-3446-8467-9CBAC1540D12.root'
p929
aS'/eos/cms/store/group/phys_smp/AnalysisFramework/Baobab/Metin/gammaplusb/2018/MC/TT_TuneCH3_13TeV-powheg-herwig7/BB0F12FA-30F2-6143-BFC8-4F95954482CC.root'
p930
aS'/eos/cms/store/group/phys_smp/AnalysisFramework/Baobab/Metin/gammaplusb/2018/MC/TT_TuneCH3_13TeV-powheg-herwig7/7F0D5BA9-0783-AD42-8A18-B3BB3E1E3A06.root'
p931
aS'/eos/cms/store/group/phys_smp/AnalysisFramework/Baobab/Metin/gammaplusb/2018/MC/TT_TuneCH3_13TeV-powheg-herwig7/FC441C85-B116-B941-B871-1756E5164A4A.root'
p932
aS'/eos/cms/store/group/phys_smp/AnalysisFramework/Baobab/Metin/gammaplusb/2018/MC/TT_TuneCH3_13TeV-powheg-herwig7/EC5336AF-85FD-A245-9AA0-AEC8DE32845D.root'
p933
aS'/eos/cms/store/group/phys_smp/AnalysisFramework/Baobab/Metin/gammaplusb/2018/MC/TT_TuneCH3_13TeV-powheg-herwig7/A1C34AD4-A1DA-B34D-881E-CA9AB6FEBE48.root'
p934
aS'/eos/cms/store/group/phys_smp/AnalysisFramework/Baobab/Metin/gammaplusb/2018/MC/TT_TuneCH3_13TeV-powheg-herwig7/F063EBF7-994F-6744-BE9B-6BCCCE685FD9.root'
p935
aS'/eos/cms/store/group/phys_smp/AnalysisFramework/Baobab/Metin/gammaplusb/2018/MC/TT_TuneCH3_13TeV-powheg-herwig7/4B97F859-4AED-E540-8467-B84078F7BE2C.root'
p936
aS'/eos/cms/store/group/phys_smp/AnalysisFramework/Baobab/Metin/gammaplusb/2018/MC/TT_TuneCH3_13TeV-powheg-herwig7/BCE1B13F-C646-A144-BA34-39CC42407AFE.root'
p937
aS'/eos/cms/store/group/phys_smp/AnalysisFramework/Baobab/Metin/gammaplusb/2018/MC/TT_TuneCH3_13TeV-powheg-herwig7/44D8629A-4028-484D-ABDB-7BB366440985.root'
p938
aS'/eos/cms/store/group/phys_smp/AnalysisFramework/Baobab/Metin/gammaplusb/2018/MC/TT_TuneCH3_13TeV-powheg-herwig7/387F6238-0AF6-0B4E-BD2D-C118CC842109.root'
p939
aS'/eos/cms/store/group/phys_smp/AnalysisFramework/Baobab/Metin/gammaplusb/2018/MC/TT_TuneCH3_13TeV-powheg-herwig7/8DB4EA59-CC0D-274B-97ED-3C50B78D11A1.root'
p940
aS'/eos/cms/store/group/phys_smp/AnalysisFramework/Baobab/Metin/gammaplusb/2018/MC/TT_TuneCH3_13TeV-powheg-herwig7/FA04F6E4-03F6-524C-AA21-CD9E46034EA2.root'
p941
aS'/eos/cms/store/group/phys_smp/AnalysisFramework/Baobab/Metin/gammaplusb/2018/MC/TT_TuneCH3_13TeV-powheg-herwig7/3B9DAD32-B53C-B74B-AC53-E7013125FCD6.root'
p942
aS'/eos/cms/store/group/phys_smp/AnalysisFramework/Baobab/Metin/gammaplusb/2018/MC/TT_TuneCH3_13TeV-powheg-herwig7/1DEFC6D5-E0DA-A842-9F97-F73F820E9CD0.root'
p943
aS'/eos/cms/store/group/phys_smp/AnalysisFramework/Baobab/Metin/gammaplusb/2018/MC/TT_TuneCH3_13TeV-powheg-herwig7/630B885C-531F-154A-91C0-CB6EDC712752.root'
p944
aS'/eos/cms/store/group/phys_smp/AnalysisFramework/Baobab/Metin/gammaplusb/2018/MC/TT_TuneCH3_13TeV-powheg-herwig7/5C49FF02-B9AC-4F4E-9700-DB009156DBCD.root'
p945
aS'/eos/cms/store/group/phys_smp/AnalysisFramework/Baobab/Metin/gammaplusb/2018/MC/TT_TuneCH3_13TeV-powheg-herwig7/80640218-B7A2-A14D-B9B0-D08BF735A38B.root'
p946
aS'/eos/cms/store/group/phys_smp/AnalysisFramework/Baobab/Metin/gammaplusb/2018/MC/TT_TuneCH3_13TeV-powheg-herwig7/65AB0337-299B-B84A-91DB-FFB176055073.root'
p947
aS'/eos/cms/store/group/phys_smp/AnalysisFramework/Baobab/Metin/gammaplusb/2018/MC/TT_TuneCH3_13TeV-powheg-herwig7/05AD3704-22FA-3F4B-98E2-724C22751140.root'
p948
aS'/eos/cms/store/group/phys_smp/AnalysisFramework/Baobab/Metin/gammaplusb/2018/MC/TT_TuneCH3_13TeV-powheg-herwig7/5506A9A9-4283-334B-9186-F8BD2C67994F.root'
p949
aS'/eos/cms/store/group/phys_smp/AnalysisFramework/Baobab/Metin/gammaplusb/2018/MC/TT_TuneCH3_13TeV-powheg-herwig7/2B37AD9E-8EC9-624F-9FF6-A450125C9191.root'
p950
aS'/eos/cms/store/group/phys_smp/AnalysisFramework/Baobab/Metin/gammaplusb/2018/MC/TT_TuneCH3_13TeV-powheg-herwig7/1E6E8DE3-FB50-0D43-9E99-F3C52F2D60EC.root'
p951
aS'/eos/cms/store/group/phys_smp/AnalysisFramework/Baobab/Metin/gammaplusb/2018/MC/TT_TuneCH3_13TeV-powheg-herwig7/420644BB-D0D7-3F4D-9810-BEE81D88CC07.root'
p952
aS'/eos/cms/store/group/phys_smp/AnalysisFramework/Baobab/Metin/gammaplusb/2018/MC/TT_TuneCH3_13TeV-powheg-herwig7/A2C99B23-2FE4-6144-B9B6-F6E1DD9C4E51.root'
p953
aS'/eos/cms/store/group/phys_smp/AnalysisFramework/Baobab/Metin/gammaplusb/2018/MC/TT_TuneCH3_13TeV-powheg-herwig7/C8123F3F-A11E-624E-994F-0CF5AC19A491.root'
p954
aS'/eos/cms/store/group/phys_smp/AnalysisFramework/Baobab/Metin/gammaplusb/2018/MC/TT_TuneCH3_13TeV-powheg-herwig7/CBAE7D24-93B6-4740-921D-8E6F8964A35B.root'
p955
aS'/eos/cms/store/group/phys_smp/AnalysisFramework/Baobab/Metin/gammaplusb/2018/MC/TT_TuneCH3_13TeV-powheg-herwig7/42772ECA-F187-6F44-AFC5-53A41DFDE09F.root'
p956
aS'/eos/cms/store/group/phys_smp/AnalysisFramework/Baobab/Metin/gammaplusb/2018/MC/TT_TuneCH3_13TeV-powheg-herwig7/413F3AD8-B2E2-C745-AB44-B4AB7FABFFE8.root'
p957
aS'/eos/cms/store/group/phys_smp/AnalysisFramework/Baobab/Metin/gammaplusb/2018/MC/TT_TuneCH3_13TeV-powheg-herwig7/73B977BA-05CE-9F4E-AFAD-FF51AB02F1E6.root'
p958
aS'/eos/cms/store/group/phys_smp/AnalysisFramework/Baobab/Metin/gammaplusb/2018/MC/TT_TuneCH3_13TeV-powheg-herwig7/34A9A8E2-7381-5E47-A73C-7BA73FDDA5D7.root'
p959
aS'/eos/cms/store/group/phys_smp/AnalysisFramework/Baobab/Metin/gammaplusb/2018/MC/TT_TuneCH3_13TeV-powheg-herwig7/81E19B9F-06B0-F046-806E-90239F6B6E8A.root'
p960
aS'/eos/cms/store/group/phys_smp/AnalysisFramework/Baobab/Metin/gammaplusb/2018/MC/TT_TuneCH3_13TeV-powheg-herwig7/E2387F84-B3E9-C244-9588-462D67FC4864.root'
p961
aS'/eos/cms/store/group/phys_smp/AnalysisFramework/Baobab/Metin/gammaplusb/2018/MC/TT_TuneCH3_13TeV-powheg-herwig7/65DDF7D0-6512-4046-B581-7C96F19225E1.root'
p962
aS'/eos/cms/store/group/phys_smp/AnalysisFramework/Baobab/Metin/gammaplusb/2018/MC/TT_TuneCH3_13TeV-powheg-herwig7/737B72DE-AE45-4D49-BFF9-C6E4ACB44B24.root'
p963
aS'/eos/cms/store/group/phys_smp/AnalysisFramework/Baobab/Metin/gammaplusb/2018/MC/TT_TuneCH3_13TeV-powheg-herwig7/B3C47BC0-383B-0F4A-9444-378F5CB43741.root'
p964
aS'/eos/cms/store/group/phys_smp/AnalysisFramework/Baobab/Metin/gammaplusb/2018/MC/TT_TuneCH3_13TeV-powheg-herwig7/55CEF709-DFE0-014F-BD1E-846EA771E0D3.root'
p965
aS'/eos/cms/store/group/phys_smp/AnalysisFramework/Baobab/Metin/gammaplusb/2018/MC/TT_TuneCH3_13TeV-powheg-herwig7/453918D6-74ED-E642-A864-E54B0E7E939F.root'
p966
aS'/eos/cms/store/group/phys_smp/AnalysisFramework/Baobab/Metin/gammaplusb/2018/MC/TT_TuneCH3_13TeV-powheg-herwig7/DC7F97A2-56AC-0747-AE27-0FF7E5FBC68D.root'
p967
aS'/eos/cms/store/group/phys_smp/AnalysisFramework/Baobab/Metin/gammaplusb/2018/MC/TT_TuneCH3_13TeV-powheg-herwig7/FC1A07F7-40B9-EB4B-9071-4D2FE90F2C9A.root'
p968
aS'/eos/cms/store/group/phys_smp/AnalysisFramework/Baobab/Metin/gammaplusb/2018/MC/TT_TuneCH3_13TeV-powheg-herwig7/012BF966-F8CD-CF41-8C06-C96A8B87DF1E.root'
p969
aS'/eos/cms/store/group/phys_smp/AnalysisFramework/Baobab/Metin/gammaplusb/2018/MC/TT_TuneCH3_13TeV-powheg-herwig7/FE3E4207-C83B-F048-A654-EF36E63F986E.root'
p970
aS'/eos/cms/store/group/phys_smp/AnalysisFramework/Baobab/Metin/gammaplusb/2018/MC/TT_TuneCH3_13TeV-powheg-herwig7/8D1DF544-BA3A-AC48-BF19-163B9BD31845.root'
p971
aS'/eos/cms/store/group/phys_smp/AnalysisFramework/Baobab/Metin/gammaplusb/2018/MC/TT_TuneCH3_13TeV-powheg-herwig7/52C4C97E-A728-F04C-BAF8-BF5ACCDA317C.root'
p972
aS'/eos/cms/store/group/phys_smp/AnalysisFramework/Baobab/Metin/gammaplusb/2018/MC/TT_TuneCH3_13TeV-powheg-herwig7/21AC38E1-0AB0-F449-91D8-C199AE320254.root'
p973
aS'/eos/cms/store/group/phys_smp/AnalysisFramework/Baobab/Metin/gammaplusb/2018/MC/TT_TuneCH3_13TeV-powheg-herwig7/62754837-E32D-1C4E-BF6A-B59F289DCE75.root'
p974
aS'/eos/cms/store/group/phys_smp/AnalysisFramework/Baobab/Metin/gammaplusb/2018/MC/TT_TuneCH3_13TeV-powheg-herwig7/9790F471-0129-4B42-BF7D-BC91D5BA2A7C.root'
p975
aS'/eos/cms/store/group/phys_smp/AnalysisFramework/Baobab/Metin/gammaplusb/2018/MC/TT_TuneCH3_13TeV-powheg-herwig7/93CA22DF-09EE-E14F-B266-4AA90A3EB566.root'
p976
aS'/eos/cms/store/group/phys_smp/AnalysisFramework/Baobab/Metin/gammaplusb/2018/MC/TT_TuneCH3_13TeV-powheg-herwig7/97100A4C-3B2D-924D-847C-E384DC5DE324.root'
p977
aS'/eos/cms/store/group/phys_smp/AnalysisFramework/Baobab/Metin/gammaplusb/2018/MC/TT_TuneCH3_13TeV-powheg-herwig7/6EE41129-F11A-4F47-B4FD-6EE428C40326.root'
p978
aS'/eos/cms/store/group/phys_smp/AnalysisFramework/Baobab/Metin/gammaplusb/2018/MC/TT_TuneCH3_13TeV-powheg-herwig7/49C51614-855D-2D43-964B-C3F52BFADF1E.root'
p979
aS'/eos/cms/store/group/phys_smp/AnalysisFramework/Baobab/Metin/gammaplusb/2018/MC/TT_TuneCH3_13TeV-powheg-herwig7/2EB9D233-9195-E04B-9F3A-5D4E9A621313.root'
p980
aS'/eos/cms/store/group/phys_smp/AnalysisFramework/Baobab/Metin/gammaplusb/2018/MC/TT_TuneCH3_13TeV-powheg-herwig7/6CD6D91A-5DB7-624F-934B-EF44B43DA7AC.root'
p981
aS'/eos/cms/store/group/phys_smp/AnalysisFramework/Baobab/Metin/gammaplusb/2018/MC/TT_TuneCH3_13TeV-powheg-herwig7/C2610B5D-B502-8547-832E-6F1F45AF0E70.root'
p982
aS'/eos/cms/store/group/phys_smp/AnalysisFramework/Baobab/Metin/gammaplusb/2018/MC/TT_TuneCH3_13TeV-powheg-herwig7/6F7E429E-9497-3640-976E-0354D88CAA7D.root'
p983
aS'/eos/cms/store/group/phys_smp/AnalysisFramework/Baobab/Metin/gammaplusb/2018/MC/TT_TuneCH3_13TeV-powheg-herwig7/C112C86A-07EB-424D-A608-C5C6E7D2CF0F.root'
p984
aS'/eos/cms/store/group/phys_smp/AnalysisFramework/Baobab/Metin/gammaplusb/2018/MC/TT_TuneCH3_13TeV-powheg-herwig7/FDC5FFB8-96E7-4A49-95E1-02178057F2C7.root'
p985
aS'/eos/cms/store/group/phys_smp/AnalysisFramework/Baobab/Metin/gammaplusb/2018/MC/TT_TuneCH3_13TeV-powheg-herwig7/27BAD553-1DE3-7F49-B1FB-3B79D5AC3E3C.root'
p986
aS'/eos/cms/store/group/phys_smp/AnalysisFramework/Baobab/Metin/gammaplusb/2018/MC/TT_TuneCH3_13TeV-powheg-herwig7/FBCD919E-A57A-2647-9133-E450225CE92F.root/eos/cms/store/group/phys_smp/AnalysisFramework/Baobab/Metin/gammaplusb/2018/MC/TT_TuneCH3_13TeV-powheg-herwig7/1E14F5E2-344C-0847-AE74-15873BF33466.root'
p987
aS'/eos/cms/store/group/phys_smp/AnalysisFramework/Baobab/Metin/gammaplusb/2018/MC/TT_TuneCH3_13TeV-powheg-herwig7/B90AFDA2-A48C-D446-95FE-6765DBD44C6B.root'
p988
aS'/eos/cms/store/group/phys_smp/AnalysisFramework/Baobab/Metin/gammaplusb/2018/MC/TT_TuneCH3_13TeV-powheg-herwig7/097205E6-6C14-6448-A6AE-65AADBE55A64.root'
p989
aS'/eos/cms/store/group/phys_smp/AnalysisFramework/Baobab/Metin/gammaplusb/2018/MC/TT_TuneCH3_13TeV-powheg-herwig7/3D687F8F-0796-9D49-BD49-FDAB4CFA6CE0.root'
p990
aS'/eos/cms/store/group/phys_smp/AnalysisFramework/Baobab/Metin/gammaplusb/2018/MC/TT_TuneCH3_13TeV-powheg-herwig7/A3D58CEA-3B5B-024A-8164-7859192E5441.root'
p991
aS'/eos/cms/store/group/phys_smp/AnalysisFramework/Baobab/Metin/gammaplusb/2018/MC/TT_TuneCH3_13TeV-powheg-herwig7/D6DFEB8E-5012-804E-BD7F-9F83264532E7.root'
p992
aS'/eos/cms/store/group/phys_smp/AnalysisFramework/Baobab/Metin/gammaplusb/2018/MC/TT_TuneCH3_13TeV-powheg-herwig7/94136B31-4C5B-A846-9345-8A7DC4E14544.root'
p993
aS'/eos/cms/store/group/phys_smp/AnalysisFramework/Baobab/Metin/gammaplusb/2018/MC/TT_TuneCH3_13TeV-powheg-herwig7/FF09F95E-B91F-B048-8622-8017784A9BE3.root'
p994
aS'/eos/cms/store/group/phys_smp/AnalysisFramework/Baobab/Metin/gammaplusb/2018/MC/TT_TuneCH3_13TeV-powheg-herwig7/64A1612C-3C8F-B341-8390-39531FAD2869.root'
p995
aS'/eos/cms/store/group/phys_smp/AnalysisFramework/Baobab/Metin/gammaplusb/2018/MC/TT_TuneCH3_13TeV-powheg-herwig7/C1BD6508-91D9-D54E-B302-B236B7590D12.root'
p996
aS'/eos/cms/store/group/phys_smp/AnalysisFramework/Baobab/Metin/gammaplusb/2018/MC/TT_TuneCH3_13TeV-powheg-herwig7/6B9FE465-82FD-7E41-A4ED-7A1EFED59F1A.root'
p997
aS'/eos/cms/store/group/phys_smp/AnalysisFramework/Baobab/Metin/gammaplusb/2018/MC/TT_TuneCH3_13TeV-powheg-herwig7/3A6523BC-7709-C74F-B8CE-A89B782A1619.root'
p998
aS'/eos/cms/store/group/phys_smp/AnalysisFramework/Baobab/Metin/gammaplusb/2018/MC/TT_TuneCH3_13TeV-powheg-herwig7/6F19DA9A-681C-8A45-AB50-C6556B61DFF9.root'
p999
aS'/eos/cms/store/group/phys_smp/AnalysisFramework/Baobab/Metin/gammaplusb/2018/MC/TT_TuneCH3_13TeV-powheg-herwig7/C274B7F8-FE26-9141-B124-CF327E083774.root'
p1000
aS'/eos/cms/store/group/phys_smp/AnalysisFramework/Baobab/Metin/gammaplusb/2018/MC/TT_TuneCH3_13TeV-powheg-herwig7/CA788FDC-9D1A-914B-A882-4C0B7FBDFFAD.root'
p1001
aS'/eos/cms/store/group/phys_smp/AnalysisFramework/Baobab/Metin/gammaplusb/2018/MC/TT_TuneCH3_13TeV-powheg-herwig7/851CE91A-4F0F-FE47-AD41-CB6B44E04ADC.root'
p1002
aS'/eos/cms/store/group/phys_smp/AnalysisFramework/Baobab/Metin/gammaplusb/2018/MC/TT_TuneCH3_13TeV-powheg-herwig7/942B1C02-974A-FB42-B518-329547E0E7F5.root'
p1003
aS'/eos/cms/store/group/phys_smp/AnalysisFramework/Baobab/Metin/gammaplusb/2018/MC/TT_TuneCH3_13TeV-powheg-herwig7/3CD71E9A-37CD-6A41-ABFB-F2C852D06ACA.root'
p1004
aS'/eos/cms/store/group/phys_smp/AnalysisFramework/Baobab/Metin/gammaplusb/2018/MC/TT_TuneCH3_13TeV-powheg-herwig7/C3BDC6F0-996C-5443-BA2D-EEB204DA3CC8.root'
p1005
aS'/eos/cms/store/group/phys_smp/AnalysisFramework/Baobab/Metin/gammaplusb/2018/MC/TT_TuneCH3_13TeV-powheg-herwig7/B4F02AE6-43F4-8949-B9A0-9BB7E1942AB2.root'
p1006
aS'/eos/cms/store/group/phys_smp/AnalysisFramework/Baobab/Metin/gammaplusb/2018/MC/TT_TuneCH3_13TeV-powheg-herwig7/528B9EB1-3059-3544-81C4-9505B194C08C.root'
p1007
aS'/eos/cms/store/group/phys_smp/AnalysisFramework/Baobab/Metin/gammaplusb/2018/MC/TT_TuneCH3_13TeV-powheg-herwig7/161198F4-D948-4C4A-8F28-BB461881D74D.root'
p1008
aS'/eos/cms/store/group/phys_smp/AnalysisFramework/Baobab/Metin/gammaplusb/2018/MC/TT_TuneCH3_13TeV-powheg-herwig7/8C57B221-A466-F344-94E3-E836B51C346F.root'
p1009
aS'/eos/cms/store/group/phys_smp/AnalysisFramework/Baobab/Metin/gammaplusb/2018/MC/TT_TuneCH3_13TeV-powheg-herwig7/8EB83E5C-2B22-E04A-B6AA-45272F1DBB59.root'
p1010
aS'/eos/cms/store/group/phys_smp/AnalysisFramework/Baobab/Metin/gammaplusb/2018/MC/TT_TuneCH3_13TeV-powheg-herwig7/2F237DD8-5CF7-6E41-BD61-6E59FFDB771D.root'
p1011
aS'/eos/cms/store/group/phys_smp/AnalysisFramework/Baobab/Metin/gammaplusb/2018/MC/TT_TuneCH3_13TeV-powheg-herwig7/667AA117-7DAE-EB43-A6F5-D57F33294D83.root'
p1012
aS'/eos/cms/store/group/phys_smp/AnalysisFramework/Baobab/Metin/gammaplusb/2018/MC/TT_TuneCH3_13TeV-powheg-herwig7/A75A6AC2-7D6A-BE4B-A410-83CC6EB8591E.root'
p1013
aS'/eos/cms/store/group/phys_smp/AnalysisFramework/Baobab/Metin/gammaplusb/2018/MC/TT_TuneCH3_13TeV-powheg-herwig7/B712394F-0A06-3A46-9290-6C2A98B42AEE.root'
p1014
aS'/eos/cms/store/group/phys_smp/AnalysisFramework/Baobab/Metin/gammaplusb/2018/MC/TT_TuneCH3_13TeV-powheg-herwig7/F2221B68-5A85-8F4C-AC6F-83411470D181.root'
p1015
aS'/eos/cms/store/group/phys_smp/AnalysisFramework/Baobab/Metin/gammaplusb/2018/MC/TT_TuneCH3_13TeV-powheg-herwig7/83A1309D-D86E-BA4C-BDCD-56861F88FAA8.root'
p1016
aS'/eos/cms/store/group/phys_smp/AnalysisFramework/Baobab/Metin/gammaplusb/2018/MC/TT_TuneCH3_13TeV-powheg-herwig7/D927E2EA-428A-5F4F-931B-33EC90988D14.root'
p1017
aS'/eos/cms/store/group/phys_smp/AnalysisFramework/Baobab/Metin/gammaplusb/2018/MC/TT_TuneCH3_13TeV-powheg-herwig7/699CEA01-9CC0-C040-ABEF-212FEBBDFF88.root'
p1018
aS'/eos/cms/store/group/phys_smp/AnalysisFramework/Baobab/Metin/gammaplusb/2018/MC/TT_TuneCH3_13TeV-powheg-herwig7/ECED6049-5455-6547-AF5A-B3D4C6450D96.root'
p1019
aS'/eos/cms/store/group/phys_smp/AnalysisFramework/Baobab/Metin/gammaplusb/2018/MC/TT_TuneCH3_13TeV-powheg-herwig7/52770953-0E2B-F947-A2A0-666D8D06EFAC.root'
p1020
aS'/eos/cms/store/group/phys_smp/AnalysisFramework/Baobab/Metin/gammaplusb/2018/MC/TT_TuneCH3_13TeV-powheg-herwig7/74D31334-8C86-5847-AC94-31308CECAA5C.root'
p1021
aS'/eos/cms/store/group/phys_smp/AnalysisFramework/Baobab/Metin/gammaplusb/2018/MC/TT_TuneCH3_13TeV-powheg-herwig7/AF2E8365-54A7-3348-8415-2672F395286C.root'
p1022
aS'/eos/cms/store/group/phys_smp/AnalysisFramework/Baobab/Metin/gammaplusb/2018/MC/TT_TuneCH3_13TeV-powheg-herwig7/94B47BD0-3EFB-7B43-9391-F10C19542E69.root'
p1023
aS'/eos/cms/store/group/phys_smp/AnalysisFramework/Baobab/Metin/gammaplusb/2018/MC/TT_TuneCH3_13TeV-powheg-herwig7/72B0CEEF-F251-E94C-95A1-AD0AFDA76FF8.root'
p1024
aS'/eos/cms/store/group/phys_smp/AnalysisFramework/Baobab/Metin/gammaplusb/2018/MC/TT_TuneCH3_13TeV-powheg-herwig7/F245FC5D-743D-E743-A894-AD386F5D3D2B.root'
p1025
aS'/eos/cms/store/group/phys_smp/AnalysisFramework/Baobab/Metin/gammaplusb/2018/MC/TT_TuneCH3_13TeV-powheg-herwig7/438A752A-D6BA-AF46-9C20-3068E24EF5B5.root'
p1026
aS'/eos/cms/store/group/phys_smp/AnalysisFramework/Baobab/Metin/gammaplusb/2018/MC/TT_TuneCH3_13TeV-powheg-herwig7/96A127B3-5AB4-604A-BBF4-AB15B7B0A234.root'
p1027
aS'/eos/cms/store/group/phys_smp/AnalysisFramework/Baobab/Metin/gammaplusb/2018/MC/TT_TuneCH3_13TeV-powheg-herwig7/FC0D6C17-48D3-D142-B998-8356CEC1A349.root'
p1028
aS'/eos/cms/store/group/phys_smp/AnalysisFramework/Baobab/Metin/gammaplusb/2018/MC/TT_TuneCH3_13TeV-powheg-herwig7/1DF48619-9C30-634E-8B3D-8E5476966203.root'
p1029
aS'/eos/cms/store/group/phys_smp/AnalysisFramework/Baobab/Metin/gammaplusb/2018/MC/TT_TuneCH3_13TeV-powheg-herwig7/E7361E26-67C4-C741-AADC-4F99AD7BB85A.root'
p1030
aS'/eos/cms/store/group/phys_smp/AnalysisFramework/Baobab/Metin/gammaplusb/2018/MC/TT_TuneCH3_13TeV-powheg-herwig7/4CF71128-345C-0B43-BCAB-553E016A25D3.root'
p1031
aS'/eos/cms/store/group/phys_smp/AnalysisFramework/Baobab/Metin/gammaplusb/2018/MC/TT_TuneCH3_13TeV-powheg-herwig7/6D7E1065-FACB-D047-AF06-63CEC9B18CAF.root'
p1032
aS'/eos/cms/store/group/phys_smp/AnalysisFramework/Baobab/Metin/gammaplusb/2018/MC/TT_TuneCH3_13TeV-powheg-herwig7/17188C6B-762F-F641-A61E-487D723B3C3C.root'
p1033
aS'/eos/cms/store/group/phys_smp/AnalysisFramework/Baobab/Metin/gammaplusb/2018/MC/TT_TuneCH3_13TeV-powheg-herwig7/16462ACE-17A5-9448-9766-F78083612396.root'
p1034
aS'/eos/cms/store/group/phys_smp/AnalysisFramework/Baobab/Metin/gammaplusb/2018/MC/TT_TuneCH3_13TeV-powheg-herwig7/E2615D53-F6E6-1148-806B-71A4900331B9.root'
p1035
aS'/eos/cms/store/group/phys_smp/AnalysisFramework/Baobab/Metin/gammaplusb/2018/MC/TT_TuneCH3_13TeV-powheg-herwig7/F530462A-76B7-A240-9E26-4BF6B5CCDAC6.root'
p1036
aS'/eos/cms/store/group/phys_smp/AnalysisFramework/Baobab/Metin/gammaplusb/2018/MC/TT_TuneCH3_13TeV-powheg-herwig7/7F6290AC-520B-8743-926A-2283705299D1.root'
p1037
aS'/eos/cms/store/group/phys_smp/AnalysisFramework/Baobab/Metin/gammaplusb/2018/MC/TT_TuneCH3_13TeV-powheg-herwig7/796432E5-15B8-C344-A33E-07213F39CB0F.root'
p1038
aS'/eos/cms/store/group/phys_smp/AnalysisFramework/Baobab/Metin/gammaplusb/2018/MC/TT_TuneCH3_13TeV-powheg-herwig7/CA38BA4C-B042-564A-B671-C1A3CF9BFEBB.root'
p1039
aS'/eos/cms/store/group/phys_smp/AnalysisFramework/Baobab/Metin/gammaplusb/2018/MC/TT_TuneCH3_13TeV-powheg-herwig7/0457BCBD-F9B2-AB4F-891C-396A1DD27936.root'
p1040
aS'/eos/cms/store/group/phys_smp/AnalysisFramework/Baobab/Metin/gammaplusb/2018/MC/TT_TuneCH3_13TeV-powheg-herwig7/8C1521BE-0760-224F-AD41-6AFEEC30E90D.root'
p1041
aS'/eos/cms/store/group/phys_smp/AnalysisFramework/Baobab/Metin/gammaplusb/2018/MC/TT_TuneCH3_13TeV-powheg-herwig7/28678D32-ACBE-7F46-AE7F-54806491318F.root'
p1042
aS'/eos/cms/store/group/phys_smp/AnalysisFramework/Baobab/Metin/gammaplusb/2018/MC/TT_TuneCH3_13TeV-powheg-herwig7/497C764F-AAC2-904B-9213-9B4B4383DEBC.root'
p1043
aS'/eos/cms/store/group/phys_smp/AnalysisFramework/Baobab/Metin/gammaplusb/2018/MC/TT_TuneCH3_13TeV-powheg-herwig7/C8E775FC-2086-D04B-8208-51E53BD0C766.root'
p1044
aS'/eos/cms/store/group/phys_smp/AnalysisFramework/Baobab/Metin/gammaplusb/2018/MC/TT_TuneCH3_13TeV-powheg-herwig7/4413522A-1282-C746-9E6B-66952B6D2045.root'
p1045
aS'/eos/cms/store/group/phys_smp/AnalysisFramework/Baobab/Metin/gammaplusb/2018/MC/TT_TuneCH3_13TeV-powheg-herwig7/16A96B4F-DC36-8D44-95E3-8DBEFF2D20A0.root'
p1046
aS'/eos/cms/store/group/phys_smp/AnalysisFramework/Baobab/Metin/gammaplusb/2018/MC/TT_TuneCH3_13TeV-powheg-herwig7/01E3F6D4-568A-AB41-A6CB-977246FE5008.root'
p1047
aS'/eos/cms/store/group/phys_smp/AnalysisFramework/Baobab/Metin/gammaplusb/2018/MC/TT_TuneCH3_13TeV-powheg-herwig7/ED19D40A-ECA2-264D-9D62-3C0E4C3A05A1.root'
p1048
aS'/eos/cms/store/group/phys_smp/AnalysisFramework/Baobab/Metin/gammaplusb/2018/MC/TT_TuneCH3_13TeV-powheg-herwig7/EB514813-06FB-594F-919B-3F54E2721BB9.root'
p1049
aS'/eos/cms/store/group/phys_smp/AnalysisFramework/Baobab/Metin/gammaplusb/2018/MC/TT_TuneCH3_13TeV-powheg-herwig7/4A4EEE55-EBB1-3E4F-8D48-5C9C3DE49825.root'
p1050
aS'/eos/cms/store/group/phys_smp/AnalysisFramework/Baobab/Metin/gammaplusb/2018/MC/TT_TuneCH3_13TeV-powheg-herwig7/6C8CF9D2-0B14-CF4C-8190-DB9178D188ED.root'
p1051
aS'/eos/cms/store/group/phys_smp/AnalysisFramework/Baobab/Metin/gammaplusb/2018/MC/TT_TuneCH3_13TeV-powheg-herwig7/F1F0D162-31B7-A34E-AC58-9D98FE9574B2.root'
p1052
aS'/eos/cms/store/group/phys_smp/AnalysisFramework/Baobab/Metin/gammaplusb/2018/MC/TT_TuneCH3_13TeV-powheg-herwig7/FFD45C44-842F-0B40-8150-1D07D324A5AD.root'
p1053
aS'/eos/cms/store/group/phys_smp/AnalysisFramework/Baobab/Metin/gammaplusb/2018/MC/TT_TuneCH3_13TeV-powheg-herwig7/0EAB22EB-5E90-5D46-98CC-3BABE7CC43F5.root'
p1054
aS'/eos/cms/store/group/phys_smp/AnalysisFramework/Baobab/Metin/gammaplusb/2018/MC/TT_TuneCH3_13TeV-powheg-herwig7/38445107-DD78-554B-93D7-0DFF4356462E.root'
p1055
aS'/eos/cms/store/group/phys_smp/AnalysisFramework/Baobab/Metin/gammaplusb/2018/MC/TT_TuneCH3_13TeV-powheg-herwig7/84A9CFD5-DE73-EF4A-BB1A-70FB0AC7F474.root'
p1056
aS'/eos/cms/store/group/phys_smp/AnalysisFramework/Baobab/Metin/gammaplusb/2018/MC/TT_TuneCH3_13TeV-powheg-herwig7/2A6D37A1-0DBB-1A48-BA7E-F531962D758B.root'
p1057
aS'/eos/cms/store/group/phys_smp/AnalysisFramework/Baobab/Metin/gammaplusb/2018/MC/TT_TuneCH3_13TeV-powheg-herwig7/BA8C7674-F38A-0642-B913-167CDD91CE1E.root'
p1058
aS'/eos/cms/store/group/phys_smp/AnalysisFramework/Baobab/Metin/gammaplusb/2018/MC/TT_TuneCH3_13TeV-powheg-herwig7/F027FEF9-790E-0645-B702-84963C8BF016.root'
p1059
aS'/eos/cms/store/group/phys_smp/AnalysisFramework/Baobab/Metin/gammaplusb/2018/MC/TT_TuneCH3_13TeV-powheg-herwig7/8E4ED546-FC69-AD4F-816B-3C5C6F644712.root'
p1060
aS'/eos/cms/store/group/phys_smp/AnalysisFramework/Baobab/Metin/gammaplusb/2018/MC/TT_TuneCH3_13TeV-powheg-herwig7/3B1B45CA-5297-C94E-8952-9DDCB610C30B.root'
p1061
aS'/eos/cms/store/group/phys_smp/AnalysisFramework/Baobab/Metin/gammaplusb/2018/MC/TT_TuneCH3_13TeV-powheg-herwig7/46B49418-6A1A-B242-BDE4-650A9B87A817.root'
p1062
aS'/eos/cms/store/group/phys_smp/AnalysisFramework/Baobab/Metin/gammaplusb/2018/MC/TT_TuneCH3_13TeV-powheg-herwig7/039AF10E-AEA8-594F-92FC-3F87250D8D09.root'
p1063
aS'/eos/cms/store/group/phys_smp/AnalysisFramework/Baobab/Metin/gammaplusb/2018/MC/TT_TuneCH3_13TeV-powheg-herwig7/AF8FBC87-DA84-8D47-B630-7ED1BBE2219A.root'
p1064
asg30
F687.2
sg31
S'/TT_TuneCH3_13TeV-powheg-herwig7/RunIIAutumn18NanoAODv7-Nano02Apr2020_102X_upgrade2018_realistic_v21-v1/NANOAODSIM'
p1065
ssg245
(dp1066
g6
F12.52
sg7
F0.4022
sg8
F0.01255
sg9
(lp1067
S'/eos/cms/store/group/phys_smp/AnalysisFramework/Baobab/Metin/gammaplusb/2018/MC/TGJets_TuneCP5_13TeV_amcatnlo_madspin_pythia8/CFAD2CD1-7787-3344-92A6-F350C83F48DA.root'
p1068
aS'/eos/cms/store/group/phys_smp/AnalysisFramework/Baobab/Metin/gammaplusb/2018/MC/TGJets_TuneCP5_13TeV_amcatnlo_madspin_pythia8/42591249-294C-5944-AE0D-387D16ACC949.root'
p1069
aS'/eos/cms/store/group/phys_smp/AnalysisFramework/Baobab/Metin/gammaplusb/2018/MC/TGJets_TuneCP5_13TeV_amcatnlo_madspin_pythia8/2A2A4165-4DA6-D343-9CAA-E98CFEFF77B9.root'
p1070
aS'/eos/cms/store/group/phys_smp/AnalysisFramework/Baobab/Metin/gammaplusb/2018/MC/TGJets_TuneCP5_13TeV_amcatnlo_madspin_pythia8/CA2EB0A9-0356-6845-AFB1-A493BFEDA94B.root'
p1071
aS'/eos/cms/store/group/phys_smp/AnalysisFramework/Baobab/Metin/gammaplusb/2018/MC/TGJets_TuneCP5_13TeV_amcatnlo_madspin_pythia8/9C6622FB-8E2D-7544-B854-0EF5CA2DDEC5.root'
p1072
aS'/eos/cms/store/group/phys_smp/AnalysisFramework/Baobab/Metin/gammaplusb/2018/MC/TGJets_TuneCP5_13TeV_amcatnlo_madspin_pythia8/4F9DEA28-356C-914C-9A57-25595D904FB0.root'
p1073
aS'/eos/cms/store/group/phys_smp/AnalysisFramework/Baobab/Metin/gammaplusb/2018/MC/TGJets_TuneCP5_13TeV_amcatnlo_madspin_pythia8/A174BC58-1458-3248-A422-19D5D3AD1332.root'
p1074
aS'/eos/cms/store/group/phys_smp/AnalysisFramework/Baobab/Metin/gammaplusb/2018/MC/TGJets_TuneCP5_13TeV_amcatnlo_madspin_pythia8/E1001964-83C0-FF46-9C15-CD5274FC091D.root'
p1075
aS'/eos/cms/store/group/phys_smp/AnalysisFramework/Baobab/Metin/gammaplusb/2018/MC/TGJets_TuneCP5_13TeV_amcatnlo_madspin_pythia8/87D2DCF1-9DA5-E246-9162-0B5927A4BD38.root'
p1076
aS'/eos/cms/store/group/phys_smp/AnalysisFramework/Baobab/Metin/gammaplusb/2018/MC/TGJets_TuneCP5_13TeV_amcatnlo_madspin_pythia8/6378329D-F31C-A04E-8A10-9423CF89D7B3.root'
p1077
aS'/eos/cms/store/group/phys_smp/AnalysisFramework/Baobab/Metin/gammaplusb/2018/MC/TGJets_TuneCP5_13TeV_amcatnlo_madspin_pythia8/DA2551CE-0FEC-714D-AB12-FDCC69BB9912.root'
p1078
aS'/eos/cms/store/group/phys_smp/AnalysisFramework/Baobab/Metin/gammaplusb/2018/MC/TGJets_TuneCP5_13TeV_amcatnlo_madspin_pythia8/643F615B-78D4-E843-B3E8-D2DA4E5DDEB0.root'
p1079
aS'/eos/cms/store/group/phys_smp/AnalysisFramework/Baobab/Metin/gammaplusb/2018/MC/TGJets_TuneCP5_13TeV_amcatnlo_madspin_pythia8/EC33CEE4-5339-F148-BF26-7B9C4306EDAE.root'
p1080
aS'/eos/cms/store/group/phys_smp/AnalysisFramework/Baobab/Metin/gammaplusb/2018/MC/TGJets_TuneCP5_13TeV_amcatnlo_madspin_pythia8/33B3B8E7-A2A1-7C40-BEC1-DB4E674EFF4A.root'
p1081
aS'/eos/cms/store/group/phys_smp/AnalysisFramework/Baobab/Metin/gammaplusb/2018/MC/TGJets_TuneCP5_13TeV_amcatnlo_madspin_pythia8/65801EA4-5A98-434B-A3D8-58470517E9C9.root'
p1082
aS'/eos/cms/store/group/phys_smp/AnalysisFramework/Baobab/Metin/gammaplusb/2018/MC/TGJets_TuneCP5_13TeV_amcatnlo_madspin_pythia8/B204251E-9613-CA4A-9820-DDCC937A02D8.root'
p1083
aS'/eos/cms/store/group/phys_smp/AnalysisFramework/Baobab/Metin/gammaplusb/2018/MC/TGJets_TuneCP5_13TeV_amcatnlo_madspin_pythia8/531C3232-8A02-A347-BF8C-402681EA321E.root'
p1084
aS'/eos/cms/store/group/phys_smp/AnalysisFramework/Baobab/Metin/gammaplusb/2018/MC/TGJets_TuneCP5_13TeV_amcatnlo_madspin_pythia8/3DF6FEEE-501A-904F-B60E-C48EF0C86ED1.root'
p1085
aS'/eos/cms/store/group/phys_smp/AnalysisFramework/Baobab/Metin/gammaplusb/2018/MC/TGJets_TuneCP5_13TeV_amcatnlo_madspin_pythia8/B18F6A32-D2C2-5D4C-84D8-CCB7D7A4E6ED.root'
p1086
aS'/eos/cms/store/group/phys_smp/AnalysisFramework/Baobab/Metin/gammaplusb/2018/MC/TGJets_TuneCP5_13TeV_amcatnlo_madspin_pythia8/F224AA36-4510-954C-A5AF-E305E1B645F3.root'
p1087
aS'/eos/cms/store/group/phys_smp/AnalysisFramework/Baobab/Metin/gammaplusb/2018/MC/TGJets_TuneCP5_13TeV_amcatnlo_madspin_pythia8/5D7F2D39-5175-8140-88A6-978E102551C0.root'
p1088
aS'/eos/cms/store/group/phys_smp/AnalysisFramework/Baobab/Metin/gammaplusb/2018/MC/TGJets_TuneCP5_13TeV_amcatnlo_madspin_pythia8/64E20D7C-7024-1249-B283-43F80DC5879B.root'
p1089
aS'/eos/cms/store/group/phys_smp/AnalysisFramework/Baobab/Metin/gammaplusb/2018/MC/TGJets_TuneCP5_13TeV_amcatnlo_madspin_pythia8/1474724C-4B6F-CB40-916F-E632E989F1AC.root'
p1090
aS'/eos/cms/store/group/phys_smp/AnalysisFramework/Baobab/Metin/gammaplusb/2018/MC/TGJets_TuneCP5_13TeV_amcatnlo_madspin_pythia8/DBE7D55B-1BE8-8248-88BB-5FA76071DE61.root'
p1091
aS'/eos/cms/store/group/phys_smp/AnalysisFramework/Baobab/Metin/gammaplusb/2018/MC/TGJets_TuneCP5_13TeV_amcatnlo_madspin_pythia8/6CE63736-1E3D-1F45-9492-39B398399B8C.root'
p1092
aS'/eos/cms/store/group/phys_smp/AnalysisFramework/Baobab/Metin/gammaplusb/2018/MC/TGJets_TuneCP5_13TeV_amcatnlo_madspin_pythia8/08DEBBEB-732E-1945-9751-04B4E279B74C.root'
p1093
aS'/eos/cms/store/group/phys_smp/AnalysisFramework/Baobab/Metin/gammaplusb/2018/MC/TGJets_TuneCP5_13TeV_amcatnlo_madspin_pythia8/FAFCE013-7736-FB4D-BC2E-0C4BD164545A.root'
p1094
asg30
F3.055
sg31
S'/TGJets_TuneCP5_13TeV_amcatnlo_madspin_pythia8/RunIIAutumn18NanoAODv7-Nano02Apr2020_102X_upgrade2018_realistic_v21_ext1-v1/NANOAODSIM'
p1095
ssg250
(dp1096
g6
F28.2
sg7
F0.0034
sg8
F0.02827
sg9
(lp1097
S'/eos/cms/store/group/phys_smp/AnalysisFramework/Baobab/Metin/gammaplusb/2018/MC/ST_tW_antitop_5f_inclusiveDecays_TuneCP5_13TeV-powheg-pythia8/D616DD99-A0B7-C745-A1EE-0A88476822BC.root'
p1098
aS'/eos/cms/store/group/phys_smp/AnalysisFramework/Baobab/Metin/gammaplusb/2018/MC/ST_tW_antitop_5f_inclusiveDecays_TuneCP5_13TeV-powheg-pythia8/137CFFF4-B5BB-8043-B65D-8270000F4E99.root'
p1099
aS'/eos/cms/store/group/phys_smp/AnalysisFramework/Baobab/Metin/gammaplusb/2018/MC/ST_tW_antitop_5f_inclusiveDecays_TuneCP5_13TeV-powheg-pythia8/D9CF885C-70F1-FC45-9715-A9DD20235046.root'
p1100
aS'/eos/cms/store/group/phys_smp/AnalysisFramework/Baobab/Metin/gammaplusb/2018/MC/ST_tW_antitop_5f_inclusiveDecays_TuneCP5_13TeV-powheg-pythia8/24CF951E-3BFB-7042-931F-5694B452314D.root'
p1101
aS'/eos/cms/store/group/phys_smp/AnalysisFramework/Baobab/Metin/gammaplusb/2018/MC/ST_tW_antitop_5f_inclusiveDecays_TuneCP5_13TeV-powheg-pythia8/7AAF3201-90C5-4E4B-8636-3E5863E50E17.root'
p1102
aS'/eos/cms/store/group/phys_smp/AnalysisFramework/Baobab/Metin/gammaplusb/2018/MC/ST_tW_antitop_5f_inclusiveDecays_TuneCP5_13TeV-powheg-pythia8/5BCBD8AF-9D6C-5446-A03E-DCF4194FB0B6.root'
p1103
aS'/eos/cms/store/group/phys_smp/AnalysisFramework/Baobab/Metin/gammaplusb/2018/MC/ST_tW_antitop_5f_inclusiveDecays_TuneCP5_13TeV-powheg-pythia8/8A8A652F-B172-3E4B-A410-703A58F748E8.root'
p1104
aS'/eos/cms/store/group/phys_smp/AnalysisFramework/Baobab/Metin/gammaplusb/2018/MC/ST_tW_antitop_5f_inclusiveDecays_TuneCP5_13TeV-powheg-pythia8/19BAAA83-BC63-6E4D-A728-1999DADE5DCA.root'
p1105
aS'/eos/cms/store/group/phys_smp/AnalysisFramework/Baobab/Metin/gammaplusb/2018/MC/ST_tW_antitop_5f_inclusiveDecays_TuneCP5_13TeV-powheg-pythia8/434CB982-C5FA-8A47-B6CC-4F044CE3F5B9.root'
p1106
asg30
F34.97
sg31
S'/ST_tW_antitop_5f_inclusiveDecays_TuneCP5_13TeV-powheg-pythia8/RunIIAutumn18NanoAODv7-Nano02Apr2020_102X_upgrade2018_realistic_v21_ext1-v1/NANOAODSIM'
p1107
ssss.