(dp0
I2016
(dp1
S'signal'
p2
(dp3
S'G1Jet_Pt'
p4
(dp5
S'G1Jet_Pt_250To400_NOExt'
p6
(dp7
S'xsec'
p8
F25.48
sS'fraction_negative_weight'
p9
F0.2331
sS'xsec_unc'
p10
F0.07909
sS'nevents'
p11
I1000000
sS'das_path'
p12
S'/G1Jet_Pt-250To400_TuneCUETP8M1_13TeV-amcatnlo-pythia8/RunIISummer16NanoAODv7-PUMoriond17_Nano02Apr2020_102X_mcRun2_asymptotic_v8-v1/NANOAODSIM'
p13
sS'equivalent_lumi'
p14
F11.18
sS'dir'
p15
S'/eos/user/e/ecasilar/SMPVJ_Gamma_BJETS/MC/G1Jet_Pt/GenMatching/G1Jet_Pt-250To400_TuneCUETP8M1_13TeV-amcatnlo-pythia8_NOExt/merged/'
p16
ssS'G1Jet_Pt_400To650_NOExt'
p17
(dp18
g8
F3.14
sg9
F0.2326
sg10
F0.007797
sg11
I982900
sg12
S'/G1Jet_Pt-400To650_TuneCUETP8M1_13TeV-amcatnlo-pythia8/RunIISummer16NanoAODv7-PUMoriond17_Nano02Apr2020_102X_mcRun2_asymptotic_v8-v1/NANOAODSIM'
p19
sg14
F91.08
sg15
S'/eos/user/e/ecasilar/SMPVJ_Gamma_BJETS/MC/G1Jet_Pt/GenMatching/G1Jet_Pt-400To650_TuneCUETP8M1_13TeV-amcatnlo-pythia8_NOExt/merged/'
p20
ssS'G1Jet_Pt_100To250_NOExt'
p21
(dp22
g8
F1155.0
sg9
F0.2257
sg10
F4.489
sg11
I998265
sg12
S'/G1Jet_Pt-100To250_TuneCUETP8M1_13TeV-amcatnlo-pythia8/RunIISummer16NanoAODv7-PUMoriond17_Nano02Apr2020_102X_mcRun2_asymptotic_v8-v1/NANOAODSIM'
p23
sg14
F0.2606
sg15
S'/eos/user/e/ecasilar/SMPVJ_Gamma_BJETS/MC/G1Jet_Pt/GenMatching/G1Jet_Pt-100To250_TuneCUETP8M1_13TeV-amcatnlo-pythia8_NOExt/merged/'
p24
ssS'G1Jet_Pt_50To100_NOExt'
p25
(dp26
g8
F13530.0
sg9
F0.2234
sg10
F55.01
sg11
I4962870
sg12
S'/G1Jet_Pt-50To100_TuneCUETP8M1_13TeV-amcatnlo-pythia8/RunIISummer16NanoAODv7-PUMoriond17_Nano02Apr2020_102X_mcRun2_asymptotic_v8-v1/NANOAODSIM'
p27
sg14
F0.02261
sg15
S'/eos/user/e/ecasilar/SMPVJ_Gamma_BJETS/MC/G1Jet_Pt/GenMatching/G1Jet_Pt-50To100_TuneCUETP8M1_13TeV-amcatnlo-pythia8_NOExt/merged/'
p28
ssS'G1Jet_Pt_650ToInf_NOExt'
p29
(dp30
g8
F0.2939
sg9
F0.2172
sg10
F0.0006189
sg11
I961024
sg12
S'/G1Jet_Pt-650ToInf_TuneCUETP8M1_13TeV-amcatnlo-pythia8/RunIISummer16NanoAODv7-PUMoriond17_Nano02Apr2020_102X_mcRun2_asymptotic_v8-v1/NANOAODSIM'
p31
sg14
F1088.0
sg15
S'/eos/user/e/ecasilar/SMPVJ_Gamma_BJETS/MC/G1Jet_Pt/GenMatching/G1Jet_Pt-650ToInf_TuneCUETP8M1_13TeV-amcatnlo-pythia8_NOExt/merged/'
p32
sssS'CR_G1Jet_Pt'
p33
(dp34
g6
(dp35
g8
F25.48
sg9
F0.2331
sg10
F0.07909
sg11
I1000000
sg12
g13
sg14
F11.18
sg15
S'/eos/user/e/ecasilar/SMPVJ_Gamma_BJETS/MC/G1Jet_Pt/High_PT_LooseNotTight/G1Jet_Pt-250To400_TuneCUETP8M1_13TeV-amcatnlo-pythia8_NOExt/'
p36
ssg17
(dp37
g8
F3.14
sg9
F0.2326
sg10
F0.007797
sg11
I982900
sg12
g19
sg14
F91.08
sg15
S'/eos/user/e/ecasilar/SMPVJ_Gamma_BJETS/MC/G1Jet_Pt/High_PT_LooseNotTight/G1Jet_Pt-400To650_TuneCUETP8M1_13TeV-amcatnlo-pythia8_NOExt/'
p38
ssg21
(dp39
g8
F1155.0
sg9
F0.2257
sg10
F4.489
sg11
I998265
sg12
g23
sg14
F0.2606
sg15
S'/eos/user/e/ecasilar/SMPVJ_Gamma_BJETS/MC/G1Jet_Pt/High_PT_LooseNotTight/G1Jet_Pt-100To250_TuneCUETP8M1_13TeV-amcatnlo-pythia8_NOExt/'
p40
ssg25
(dp41
g8
F13530.0
sg9
F0.2234
sg10
F55.01
sg11
I4962870
sg12
g27
sg14
F0.02261
sg15
S'/eos/user/e/ecasilar/SMPVJ_Gamma_BJETS/MC/G1Jet_Pt/High_PT_LooseNotTight/G1Jet_Pt-50To100_TuneCUETP8M1_13TeV-amcatnlo-pythia8_NOExt/'
p42
ssg29
(dp43
g8
F0.2939
sg9
F0.2172
sg10
F0.0006189
sg11
I961024
sg12
g31
sg14
F1088.0
sg15
S'/eos/user/e/ecasilar/SMPVJ_Gamma_BJETS/MC/G1Jet_Pt/High_PT_LooseNotTight/G1Jet_Pt-650ToInf_TuneCUETP8M1_13TeV-amcatnlo-pythia8_NOExt/'
p44
sssS'GJets'
p45
(dp46
g8
F365400.0
sg9
F0.0
sg10
F382.7
sg11
I19794775
sg12
S'/GJet_Pt-15To6000_TuneCUETP8M1-Flat_13TeV_pythia8_20M/RunIISummer16NanoAODv7-PUMoriond17_Nano02Apr2020_102X_mcRun2_asymptotic_v8-v1/NANOAODSIM'
p47
sg14
F0.002737
sg15
S'/eos/user/e/ecasilar/SMPVJ_Gamma_BJETS/MC/GJet_Pt-15To6000_TuneCUETP8M1-Flat_13TeV_pythia8_20M/'
p48
ssS'GJets_HT'
p49
(dp50
S'GJets_HT_400To600'
p51
(dp52
g8
F274.4
sg9
F0.0
sg10
F0.8368
sg11
I2530341
sg12
S'/GJets_HT-400To600_TuneCUETP8M1_13TeV-madgraphMLM-pythia8/RunIISummer16NanoAODv7-PUMoriond17_Nano02Apr2020_102X_mcRun2_asymptotic_v8_ext1-v1/NANOAODSIM'
p53
sg14
F3.612
sg15
S'/eos/user/e/ecasilar/SMPVJ_Gamma_BJETS/MC/GJets_HT-400To600_TuneCUETP8M1_13TeV-madgraphMLM-pythia8/'
p54
ssS'GJets_HT_200To400'
p55
(dp56
g8
F2305.0
sg9
F0.0
sg10
F6.945
sg11
I10404907
sg12
S'/GJets_HT-200To400_TuneCUETP8M1_13TeV-madgraphMLM-pythia8/RunIISummer16NanoAODv7-PUMoriond17_Nano02Apr2020_102X_mcRun2_asymptotic_v8_ext1-v1/NANOAODSIM'
p57
sg14
F0.4316
sg15
S'/eos/user/e/ecasilar/SMPVJ_Gamma_BJETS/MC/GJets_HT-200To400_TuneCUETP8M1_13TeV-madgraphMLM-pythia8/'
p58
ssS'GJets_HT_100To200'
p59
(dp60
g8
F9238.0
sg9
F0.0
sg10
F27.11
sg11
I4972282
sg12
S'/GJets_HT-100To200_TuneCUETP8M1_13TeV-madgraphMLM-pythia8/RunIISummer16NanoAODv7-PUMoriond17_Nano02Apr2020_102X_mcRun2_asymptotic_v8_ext1-v1/NANOAODSIM'
p61
sg14
F0.1087
sg15
S'/eos/user/e/ecasilar/SMPVJ_Gamma_BJETS/MC/GJets_HT-100To200_TuneCUETP8M1_13TeV-madgraphMLM-pythia8/'
p62
ssS'GJets_HT_600ToInf'
p63
(dp64
g8
F93.46
sg9
F0.0
sg10
F0.2861
sg11
I2616911
sg12
S'/GJets_HT-600ToInf_TuneCUETP8M1_13TeV-madgraphMLM-pythia8/RunIISummer16NanoAODv7-PUMoriond17_Nano02Apr2020_102X_mcRun2_asymptotic_v8_ext1-v1/NANOAODSIM'
p65
sg14
F10.61
sg15
S'/eos/user/e/ecasilar/SMPVJ_Gamma_BJETS/MC/GJets_HT-600ToInf_TuneCUETP8M1_13TeV-madgraphMLM-pythia8/'
p66
ssS'GJets_HT_40To100'
p67
(dp68
g8
F20790.0
sg9
F0.0
sg10
F59.82
sg11
I4858154
sg12
S'/GJets_HT-40To100_TuneCUETP8M1_13TeV-madgraphMLM-pythia8/RunIISummer16NanoAODv7-PUMoriond17_Nano02Apr2020_102X_mcRun2_asymptotic_v8_ext1-v1/NANOAODSIM'
p69
sg14
F0.04811
sg15
S'/eos/user/e/ecasilar/SMPVJ_Gamma_BJETS/MC/GJets_HT-40To100_TuneCUETP8M1_13TeV-madgraphMLM-pythia8/'
p70
sssS'GJets_Pt'
p71
(dp72
S'GJets_Pt_100To200'
p73
(dp74
g8
F1032.0
sg9
F0.01085
sg10
F7.109
sg11
I498029
sg12
S'/GJets_Pt-100To200_13TeV-sherpa/RunIISummer16NanoAODv7-PUMoriond17_Nano02Apr2020_102X_mcRun2_asymptotic_v8-v1/NANOAODSIM'
p75
sg14
F0.9342
sg15
S'/eos/user/e/ecasilar/SMPVJ_Gamma_BJETS/MC/GJets_Pt-100To200_13TeV-sherpa/'
p76
ssS'GJets_Pt_1000To2000'
p77
(dp78
g8
F0.02092
sg9
F0.01466
sg10
F0.0001703
sg11
I399578
sg12
S'/GJets_Pt-1000To2000_13TeV-sherpa/RunIISummer16NanoAODv7-PUMoriond17_Nano02Apr2020_102X_mcRun2_asymptotic_v8-v1/NANOAODSIM'
p79
sg14
F45040.0
sg15
S'/eos/user/e/ecasilar/SMPVJ_Gamma_BJETS/MC/GJets_Pt-1000To2000_13TeV-sherpa/'
p80
ssS'GJets_Pt_20To100'
p81
(dp82
g8
F137800.0
sg9
F0.01828
sg10
F7.109
sg11
I498342
sg12
S'/GJets_Pt-20To100_13TeV-sherpa/RunIISummer16NanoAODv7-PUMoriond17_Nano02Apr2020_102X_mcRun2_asymptotic_v8-v1/NANOAODSIM'
p83
sg14
F0.006737
sg15
S'/eos/user/e/ecasilar/SMPVJ_Gamma_BJETS/MC/GJets_Pt-20To100_13TeV-sherpa/'
p84
ssS'GJets_Pt_2000To5000'
p85
(dp86
g8
F7.451e-05
sg9
F0.1247
sg10
F7.843e-07
sg11
I299739
sg12
S'/GJets_Pt-2000To5000_13TeV-sherpa/RunIISummer16NanoAODv7-PUMoriond17_Nano02Apr2020_102X_mcRun2_asymptotic_v8-v1/NANOAODSIM'
p87
sg14
F7537000.0
sg15
S'/eos/user/e/ecasilar/SMPVJ_Gamma_BJETS/MC/GJets_Pt-2000To5000_13TeV-sherpa/'
p88
ssS'GJets_Pt_500To1000'
p89
(dp90
g8
F0.9904
sg9
F0.01163
sg10
F0.00919
sg11
I484865
sg12
S'/GJets_Pt-500To1000_13TeV-sherpa/RunIISummer16NanoAODv7-PUMoriond17_Nano02Apr2020_102X_mcRun2_asymptotic_v8-v1/NANOAODSIM'
p91
sg14
F940.6
sg15
S'/eos/user/e/ecasilar/SMPVJ_Gamma_BJETS/MC/GJets_Pt-500To1000_13TeV-sherpa/'
p92
ssS'GJets_Pt_200To500'
p93
(dp94
g8
F70.15
sg9
F0.01032
sg10
F0.6311
sg11
I476434
sg12
S'/GJets_Pt-200To500_13TeV-sherpa/RunIISummer16NanoAODv7-PUMoriond17_Nano02Apr2020_102X_mcRun2_asymptotic_v8-v1/NANOAODSIM'
p95
sg14
F13.97
sg15
S'/eos/user/e/ecasilar/SMPVJ_Gamma_BJETS/MC/GJets_Pt-200To500_13TeV-sherpa/'
p96
ssssS'bkg'
p97
(dp98
S'CR_QCD_HT'
p99
(dp100
S'QCD_HT_1500To2000'
p101
(dp102
g8
F119.9
sg9
F0.0
sg10
F0.1159
sg11
I7868538
sg12
S'/QCD_HT1500to2000_TuneCUETP8M1_13TeV-madgraphMLM-pythia8/RunIISummer16NanoAODv7-PUMoriond17_Nano02Apr2020_102X_mcRun2_asymptotic_v8_ext1-v1/NANOAODSIM'
p103
sg14
F8.335
sg15
S'/eos/user/e/ecasilar/SMPVJ_Gamma_BJETS/MC/QCD_HT/High_PT_LooseNotTight/QCD_HT1500to2000_TuneCUETP8M1_13TeV-madgraphMLM-pythia8/'
p104
ssS'QCD_HT_200To300'
p105
(dp106
g8
F1712000.0
sg9
F0.0
sg10
F1626.0
sg11
I38857977
sg12
S'/QCD_HT200to300_TuneCUETP8M1_13TeV-madgraphMLM-pythia8/RunIISummer16NanoAODv7-PUMoriond17_Nano02Apr2020_102X_mcRun2_asymptotic_v8_ext1-v1/NANOAODSIM'
p107
sg14
F0.0005846
sg15
S'/eos/user/e/ecasilar/SMPVJ_Gamma_BJETS/MC/QCD_HT/High_PT_LooseNotTight/QCD_HT200to300_TuneCUETP8M1_13TeV-madgraphMLM-pythia8/'
p108
ssS'QCD_HT_2000ToInf'
p109
(dp110
g8
F25.24
sg9
F0.0
sg10
F0.02437
sg11
I3812534
sg12
S'/QCD_HT2000toInf_TuneCUETP8M1_13TeV-madgraphMLM-pythia8/RunIISummer16NanoAODv7-PUMoriond17_Nano02Apr2020_102X_mcRun2_asymptotic_v8_ext1-v1/NANOAODSIM'
p111
sg14
F39.6
sg15
S'/eos/user/e/ecasilar/SMPVJ_Gamma_BJETS/MC/QCD_HT/High_PT_LooseNotTight/QCD_HT2000toInf_TuneCUETP8M1_13TeV-madgraphMLM-pythia8/'
p112
ssS'QCD_HT_700To1000'
p113
(dp114
g8
F6831.0
sg9
F0.0
sg10
F6.593
sg11
I21604533
sg12
S'/QCD_HT700to1000_TuneCUETP8M1_13TeV-madgraphMLM-pythia8/RunIISummer16NanoAODv7-PUMoriond17_Nano02Apr2020_102X_mcRun2_asymptotic_v8_ext1-v1/NANOAODSIM'
p115
sg14
F0.1464
sg15
S'/eos/user/e/ecasilar/SMPVJ_Gamma_BJETS/MC/QCD_HT/High_PT_LooseNotTight/QCD_HT700to1000_TuneCUETP8M1_13TeV-madgraphMLM-pythia8/'
p116
ssS'QCD_HT_100To200'
p117
(dp118
g8
F27990000.0
sg9
F0.0
sg10
F26130.0
sg11
I82293477
sg12
S'/QCD_HT100to200_TuneCUETP8M1_13TeV-madgraphMLM-pythia8/RunIISummer16NanoAODv7-PUMoriond17_Nano02Apr2020_102X_mcRun2_asymptotic_v8-v1/NANOAODSIM'
p119
sg14
F3.564e-05
sg15
S'/eos/user/e/ecasilar/SMPVJ_Gamma_BJETS/MC/QCD_HT/High_PT_LooseNotTight/QCD_HT100to200_TuneCUETP8M1_13TeV-madgraphMLM-pythia8/'
p120
ssS'QCD_HT_300To500'
p121
(dp122
g8
F347700.0
sg9
F0.0
sg10
F332.9
sg11
I37516961
sg12
S'/QCD_HT300to500_TuneCUETP8M1_13TeV-madgraphMLM-pythia8/RunIISummer16NanoAODv7-PUMoriond17_Nano02Apr2020_102X_mcRun2_asymptotic_v8_ext1-v1/NANOAODSIM'
p123
sg14
F0.002878
sg15
S'/eos/user/e/ecasilar/SMPVJ_Gamma_BJETS/MC/QCD_HT/High_PT_LooseNotTight/QCD_HT300to500_TuneCUETP8M1_13TeV-madgraphMLM-pythia8/'
p124
ssS'QCD_HT_50To100'
p125
(dp126
g8
F246400000.0
sg9
F0.0
sg10
F218700.0
sg11
I4180469
sg12
S'/QCD_HT50to100_TuneCUETP8M1_13TeV-madgraphMLM-pythia8/RunIISummer16NanoAODv7-PUMoriond17_Nano02Apr2020_102X_mcRun2_asymptotic_v8-v1/NANOAODSIM'
p127
sg14
F4.061e-06
sg15
S'/eos/user/e/ecasilar/SMPVJ_Gamma_BJETS/MC/QCD_HT/High_PT_LooseNotTight/QCD_HT50to100_TuneCUETP8M1_13TeV-madgraphMLM-pythia8/'
p128
ssS'QCD_HT_500To700'
p129
(dp130
g8
F32100.0
sg9
F0.0
sg10
F30.88
sg11
I44061488
sg12
S'/QCD_HT500to700_TuneCUETP8M1_13TeV-madgraphMLM-pythia8/RunIISummer16NanoAODv7-PUMoriond17_Nano02Apr2020_102X_mcRun2_asymptotic_v8_ext1-v1/NANOAODSIM'
p131
sg14
F0.03119
sg15
S'/eos/user/e/ecasilar/SMPVJ_Gamma_BJETS/MC/QCD_HT/High_PT_LooseNotTight/QCD_HT500to700_TuneCUETP8M1_13TeV-madgraphMLM-pythia8/'
p132
ssS'QCD_HT_1000To1500'
p133
(dp134
g8
F1207.0
sg9
F0.0
sg10
F1.166
sg11
I10360193
sg12
S'/QCD_HT1000to1500_TuneCUETP8M1_13TeV-madgraphMLM-pythia8/RunIISummer16NanoAODv7-PUMoriond17_Nano02Apr2020_102X_mcRun2_asymptotic_v8_ext1-v1/NANOAODSIM'
p135
sg14
F0.8285
sg15
S'/eos/user/e/ecasilar/SMPVJ_Gamma_BJETS/MC/QCD_HT/High_PT_LooseNotTight/QCD_HT1000to1500_TuneCUETP8M1_13TeV-madgraphMLM-pythia8/'
p136
sssS'QCD'
p137
(dp138
g8
F1370000000.0
sg9
F0.0
sg10
F2159000.0
sg11
I9879256
sg12
S'/QCD_Pt-15to7000_TuneCUETP8M1_FlatP6_13TeV_pythia8/RunIISummer16NanoAODv7-PUMoriond17_Nano02Apr2020_102X_mcRun2_asymptotic_v8-v1/NANOAODSIM'
p139
sg14
F7.301e-07
sg15
S'/eos/user/e/ecasilar/SMPVJ_Gamma_BJETS/MC/QCD_Pt-15to7000_TuneCUETP8M1_FlatP6_13TeV_pythia8/'
p140
ssS'TTGJets'
p141
(dp142
g8
F3.795
sg9
F0.3381
sg10
F0.02629
sg11
I9877942
sg12
S'/TTGJets_TuneCP5_13TeV-amcatnloFXFX-madspin-pythia8/RunIIFall17NanoAODv7-PU2017_12Apr2018_Nano02Apr2020_102X_mc2017_realistic_v8_ext1-v1/NANOAODSIM'
p143
sg14
F27.63
sg15
S'/eos/user/e/ecasilar/SMPVJ_Gamma_BJETS/MC/TTGJets_TuneCUETP8M1_13TeV-amcatnloFXFX-madspin-pythia8/'
p144
ssS'ST_t_channel_top'
p145
(dp146
g8
F136.82
sg9
F0.0
sg10
F0.0
sg11
I58403420
sg12
S'/ST_t-channel_top_4f_inclusiveDecays_13TeV-powhegV2-madspin-pythia8_TuneCUETP8M1/RunIISummer16NanoAODv7-PUMoriond17_Nano02Apr2020_102X_mcRun2_asymptotic_v8-v2/NANOAODSIM'
p147
sg14
F0.0
sg15
S'/eos/user/e/ecasilar/SMPVJ_Gamma_BJETS/MC/ST_t-channel_top_4f_inclusiveDecays_13TeV-powhegV2-madspin-pythia8_TuneCUETP8M1/'
p148
ssS'ST_t_channel_antitop'
p149
(dp150
g8
F81.42
sg9
F0.0
sg10
F0.0
sg11
I38811017
sg12
S'/ST_t-channel_antitop_4f_inclusiveDecays_13TeV-powhegV2-madspin-pythia8_TuneCUETP8M1/RunIISummer16NanoAODv7-PUMoriond17_Nano02Apr2020_102X_mcRun2_asymptotic_v8-v1/NANOAODSIM'
p151
sg14
F0.0
sg15
S'/eos/user/e/ecasilar/SMPVJ_Gamma_BJETS/MC/ST_t-channel_antitop_4f_inclusiveDecays_13TeV-powhegV2-madspin-pythia8_TuneCUETP8M1/'
p152
ssS'TGJets'
p153
(dp154
g8
F2.967
sg9
F0.4008
sg10
F0.01052
sg11
I1556996
sg12
S'/TGJets_TuneCP5_13TeV_amcatnlo_madspin_pythia8/RunIIFall17NanoAODv7-PU2017_12Apr2018_Nano02Apr2020_102X_mc2017_realistic_v8-v1/NANOAODSIM'
p155
sg14
F13.27
sg15
S'/eos/user/e/ecasilar/SMPVJ_Gamma_BJETS/MC/TGJets_TuneCUETP8M1_13TeV_amcatnlo_madspin_pythia8/'
p156
ssS'ST_tW_antitop'
p157
(dp158
g8
F38.06
sg9
F0.0
sg10
F0.03055
sg11
I6933094
sg12
S'/ST_tW_antitop_5f_inclusiveDecays_13TeV-powheg-pythia8_TuneCUETP8M1/RunIISummer16NanoAODv7-PUMoriond17_Nano02Apr2020_102X_mcRun2_asymptotic_v8_ext1-v1/NANOAODSIM'
p159
sg14
F26.27
sg15
S'/eos/user/e/ecasilar/SMPVJ_Gamma_BJETS/MC/ST_tW_antitop_5f_inclusiveDecays_13TeV-powheg-pythia8_TuneCUETP8M1/'
p160
ssS'QCD_HT'
p161
(dp162
g101
(dp163
g8
F119.9
sg9
F0.0
sg10
F0.1159
sg11
I7868538
sg12
g103
sg14
F8.335
sg15
S'/eos/user/e/ecasilar/SMPVJ_Gamma_BJETS/MC/QCD_HT/GenMatching/QCD_HT1500to2000_TuneCUETP8M1_13TeV-madgraphMLM-pythia8/merged/'
p164
ssg105
(dp165
g8
F1712000.0
sg9
F0.0
sg10
F1626.0
sg11
I38857977
sg12
g107
sg14
F0.0005846
sg15
S'/eos/user/e/ecasilar/SMPVJ_Gamma_BJETS/MC/QCD_HT/GenMatching/QCD_HT200to300_TuneCUETP8M1_13TeV-madgraphMLM-pythia8/merged/'
p166
ssg109
(dp167
g8
F25.24
sg9
F0.0
sg10
F0.02437
sg11
I3812534
sg12
g111
sg14
F39.6
sg15
S'/eos/user/e/ecasilar/SMPVJ_Gamma_BJETS/MC/QCD_HT/GenMatching/QCD_HT2000toInf_TuneCUETP8M1_13TeV-madgraphMLM-pythia8/merged/'
p168
ssg113
(dp169
g8
F6831.0
sg9
F0.0
sg10
F6.593
sg11
I21604533
sg12
g115
sg14
F0.1464
sg15
S'/eos/user/e/ecasilar/SMPVJ_Gamma_BJETS/MC/QCD_HT/GenMatching/QCD_HT700to1000_TuneCUETP8M1_13TeV-madgraphMLM-pythia8/merged/'
p170
ssg117
(dp171
g8
F27990000.0
sg9
F0.0
sg10
F26130.0
sg11
I82293477
sg12
g119
sg14
F3.564e-05
sg15
S'/eos/user/e/ecasilar/SMPVJ_Gamma_BJETS/MC/QCD_HT/GenMatching/QCD_HT100to200_TuneCUETP8M1_13TeV-madgraphMLM-pythia8/merged/'
p172
ssg121
(dp173
g8
F347700.0
sg9
F0.0
sg10
F332.9
sg11
I37516961
sg12
g123
sg14
F0.002878
sg15
S'/eos/user/e/ecasilar/SMPVJ_Gamma_BJETS/MC/QCD_HT/GenMatching/QCD_HT300to500_TuneCUETP8M1_13TeV-madgraphMLM-pythia8/merged/'
p174
ssg125
(dp175
g8
F246400000.0
sg9
F0.0
sg10
F218700.0
sg11
I4180469
sg12
g127
sg14
F4.061e-06
sg15
S'/eos/user/e/ecasilar/SMPVJ_Gamma_BJETS/MC/QCD_HT/GenMatching/QCD_HT50to100_TuneCUETP8M1_13TeV-madgraphMLM-pythia8/merged/'
p176
ssg129
(dp177
g8
F32100.0
sg9
F0.0
sg10
F30.88
sg11
I44061488
sg12
g131
sg14
F0.03119
sg15
S'/eos/user/e/ecasilar/SMPVJ_Gamma_BJETS/MC/QCD_HT/GenMatching/QCD_HT500to700_TuneCUETP8M1_13TeV-madgraphMLM-pythia8/merged/'
p178
ssg133
(dp179
g8
F1207.0
sg9
F0.0
sg10
F1.166
sg11
I10360193
sg12
g135
sg14
F0.8285
sg15
S'/eos/user/e/ecasilar/SMPVJ_Gamma_BJETS/MC/QCD_HT/GenMatching/QCD_HT1000to1500_TuneCUETP8M1_13TeV-madgraphMLM-pythia8/merged/'
p180
sssS'TTJets'
p181
(dp182
g8
F511.3
sg9
F0.0
sg10
F1.412
sg11
I10199051
sg12
S'/TTJets_TuneCUETP8M1_13TeV-madgraphMLM-pythia8/RunIISummer16NanoAODv7-PUMoriond17_Nano02Apr2020_102X_mcRun2_asymptotic_v8-v1/NANOAODSIM'
p183
sg14
F1.956
sg15
S'/eos/user/e/ecasilar/SMPVJ_Gamma_BJETS/MC/TTJets_TuneCUETP8M1_13TeV-madgraphMLM-pythia8/'
p184
ssS'ST_s_channel'
p185
(dp186
g8
F10.12
sg9
F0.1857
sg10
F0.01334
sg11
I2917199
sg12
S'/ST_s-channel_4f_InclusiveDecays_13TeV-amcatnlo-pythia8/RunIISummer16NanoAODv7-PUMoriond17_Nano02Apr2020_102X_mcRun2_asymptotic_v8-v1/NANOAODSIM'
p187
sg14
F39.05
sg15
S'/eos/user/e/ecasilar/SMPVJ_Gamma_BJETS/MC/ST_s-channel_4f_InclusiveDecays_13TeV-amcatnlo-pythia8/'
p188
ssS'QCD_h1'
p189
(dp190
g8
F964800.0
sg9
F0.0
sg10
F92360.0
sg11
I9497268
sg12
S'/QCD_Pt-15to7000_TuneCUETHS1_FlatP6_13TeV_herwigpp/RunIISummer16NanoAODv7-PUMoriond17_Nano02Apr2020_102X_mcRun2_asymptotic_v8-v1/NANOAODSIM'
p191
sg14
F7.301e-07
sg15
S'/eos/user/e/ecasilar/SMPVJ_Gamma_BJETS/MC/QCD_Pt-15to7000_TuneCUETHS1_FlatP6_13TeV_herwigpp/'
p192
ssS'QCD_h2'
p193
(dp194
g8
F309800000.0
sg9
F0.0
sg10
F7932000.0
sg11
I9865688
sg12
S'/QCD_Pt-15to7000_TuneCUETHS1_Flat_13TeV_herwigpp/RunIISummer16NanoAODv7-PUMoriond17_Nano02Apr2020_102X_mcRun2_asymptotic_v8-v1/NANOAODSIM'
p195
sg14
F7.301e-07
sg15
S'/eos/user/e/ecasilar/SMPVJ_Gamma_BJETS/MC/QCD_Pt-15to7000_TuneCUETHS1_Flat_13TeV_herwigpp/'
p196
ssS'ST_tW_top'
p197
(dp198
g8
F38.09
sg9
F0.0
sg10
F0.0305
sg11
I6952830
sg12
S'/ST_tW_top_5f_inclusiveDecays_13TeV-powheg-pythia8_TuneCUETP8M1/RunIISummer16NanoAODv7-PUMoriond17_Nano02Apr2020_102X_mcRun2_asymptotic_v8_ext1-v1/NANOAODSIM'
p199
sg14
F26.25
sg15
S'/eos/user/e/ecasilar/SMPVJ_Gamma_BJETS/MC/ST_tW_top_5f_inclusiveDecays_13TeV-powheg-pythia8_TuneCUETP8M1/'
p200
sssS'data'
p201
(dp202
S'SinglePhoton_prescaled_NoPtCut_merged'
p203
(dp204
S'C'
p205
(dp206
g8
I1
sg9
F0.0
sg10
I1
sg15
S'/eos/user/e/ecasilar/SMPVJ_Gamma_BJETS/data/2016/SinglePhoton_Trigger_Scaled_NoPtCut/Run2016C_02Apr2020-v1/merged'
p207
sg14
I1
sg12
S'/SinglePhoton/Run2016C-02Apr2020-v1/NANOAOD'
p208
ssS'B'
p209
(dp210
g8
I1
sg9
F0.0
sg10
I1
sg15
S'/eos/user/e/ecasilar/SMPVJ_Gamma_BJETS/data/2016/SinglePhoton_Trigger_Scaled_NoPtCut/Run2016B_02Apr2020-v1/merged'
p211
sg14
I1
sg12
S'/SinglePhoton/Run2016B-02Apr2020_ver2-v1/NANOAOD'
p212
ssS'E'
p213
(dp214
g8
I1
sg9
F0.0
sg10
I1
sg15
S'/eos/user/e/ecasilar/SMPVJ_Gamma_BJETS/data/2016/SinglePhoton_Trigger_Scaled_NoPtCut/Run2016E_02Apr2020-v1/merged'
p215
sg14
I1
sg12
S'/SinglePhoton/Run2016E-02Apr2020-v1/NANOAOD'
p216
ssS'D'
p217
(dp218
g8
I1
sg9
F0.0
sg10
I1
sg15
S'/eos/user/e/ecasilar/SMPVJ_Gamma_BJETS/data/2016/SinglePhoton_Trigger_Scaled_NoPtCut/Run2016D_02Apr2020-v1/merged'
p219
sg14
I1
sg12
S'/SinglePhoton/Run2016D-02Apr2020-v1/NANOAOD'
p220
ssS'G'
p221
(dp222
g8
I1
sg9
F0.0
sg10
I1
sg15
S'/eos/user/e/ecasilar/SMPVJ_Gamma_BJETS/data/2016/SinglePhoton_Trigger_Scaled_NoPtCut/Run2016G_02Apr2020-v1/merged'
p223
sg14
I1
sg12
S'/SinglePhoton/Run2016G-02Apr2020-v1/NANOAOD'
p224
ssS'F'
p225
(dp226
g8
I1
sg9
F0.0
sg10
I1
sg15
S'/eos/user/e/ecasilar/SMPVJ_Gamma_BJETS/data/2016/SinglePhoton_Trigger_Scaled_NoPtCut/Run2016F_02Apr2020-v1/merged'
p227
sg14
I1
sg12
S'/SinglePhoton/Run2016F-02Apr2020-v1/NANOAOD'
p228
ssS'H'
p229
(dp230
g8
I1
sg9
F0.0
sg10
I1
sg15
S'/eos/user/e/ecasilar/SMPVJ_Gamma_BJETS/data/2016/SinglePhoton_Trigger_Scaled_NoPtCut/Run2016H_02Apr2020-v1/merged'
p231
sg14
I1
sg12
S'/SinglePhoton/Run2016H-02Apr2020-v1/NANOAOD'
p232
sssS'SingleMuon_prescaled_NoPtCut'
p233
(dp234
g205
(dp235
g8
I1
sg9
F0.0
sg10
I1
sg15
S'/eos/user/e/ecasilar/SMPVJ_Gamma_BJETS/data/2016/SingleMuon_Trigger_Scaled_NoPtCut/Run2016C_02Apr2020-v1'
p236
sg14
I1
sg12
S'/SingleMuon/Run2016C-02Apr2020-v1/NANOAOD'
p237
ssg209
(dp238
g8
I1
sg9
F0.0
sg10
I1
sg15
S'/eos/user/e/ecasilar/SMPVJ_Gamma_BJETS/data/2016/SingleMuon_Trigger_Scaled_NoPtCut/Run2016B_02Apr2020-v1'
p239
sg14
I1
sg12
S'/SingleMuon/Run2016B-02Apr2020_ver2-v1/NANOAOD'
p240
ssg213
(dp241
g8
I1
sg9
F0.0
sg10
I1
sg15
S'/eos/user/e/ecasilar/SMPVJ_Gamma_BJETS/data/2016/SingleMuon_Trigger_Scaled_NoPtCut/Run2016E_02Apr2020-v1'
p242
sg14
I1
sg12
S'/SingleMuon/Run2016E-02Apr2020-v1/NANOAOD'
p243
ssg217
(dp244
g8
I1
sg9
F0.0
sg10
I1
sg15
S'/eos/user/e/ecasilar/SMPVJ_Gamma_BJETS/data/2016/SingleMuon_Trigger_Scaled_NoPtCut/Run2016D_02Apr2020-v1'
p245
sg14
I1
sg12
S'/SingleMuon/Run2016D-02Apr2020-v1/NANOAOD'
p246
ssg221
(dp247
g8
I1
sg9
F0.0
sg10
I1
sg15
S'/eos/user/e/ecasilar/SMPVJ_Gamma_BJETS/data/2016/SingleMuon_Trigger_Scaled_NoPtCut/Run2016G_02Apr2020-v1'
p248
sg14
I1
sg12
S'/SingleMuon/Run2016G-02Apr2020-v1/NANOAOD'
p249
ssg225
(dp250
g8
I1
sg9
F0.0
sg10
I1
sg15
S'/eos/user/e/ecasilar/SMPVJ_Gamma_BJETS/data/2016/SingleMuon_Trigger_Scaled_NoPtCut/Run2016F_02Apr2020-v1'
p251
sg14
I1
sg12
S'/SingleMuon/Run2016F-02Apr2020-v1/NANOAOD'
p252
ssg229
(dp253
g8
I1
sg9
F0.0
sg10
I1
sg15
S'/eos/user/e/ecasilar/SMPVJ_Gamma_BJETS/data/2016/SingleMuon_Trigger_Scaled_NoPtCut/Run2016H_02Apr2020-v1'
p254
sg14
I1
sg12
S'/SingleMuon/Run2016H-02Apr2020-v1/NANOAOD'
p255
sssS'SingleMuon_prescaled'
p256
(dp257
g205
(dp258
g8
I1
sg9
F0.0
sg10
I1
sg15
S'/eos/user/e/ecasilar/SMPVJ_Gamma_BJETS/data/2016/SingleMuon_Trigger_Scaled/Run2016C_02Apr2020-v1'
p259
sg14
I1
sg12
g237
ssg209
(dp260
g8
I1
sg9
F0.0
sg10
I1
sg15
S'/eos/user/e/ecasilar/SMPVJ_Gamma_BJETS/data/2016/SingleMuon_Trigger_Scaled/Run2016B_02Apr2020-v1'
p261
sg14
I1
sg12
g240
ssg213
(dp262
g8
I1
sg9
F0.0
sg10
I1
sg15
S'/eos/user/e/ecasilar/SMPVJ_Gamma_BJETS/data/2016/SingleMuon_Trigger_Scaled/Run2016E_02Apr2020-v1'
p263
sg14
I1
sg12
g243
ssg217
(dp264
g8
I1
sg9
F0.0
sg10
I1
sg15
S'/eos/user/e/ecasilar/SMPVJ_Gamma_BJETS/data/2016/SingleMuon_Trigger_Scaled/Run2016D_02Apr2020-v1'
p265
sg14
I1
sg12
g246
ssg221
(dp266
g8
I1
sg9
F0.0
sg10
I1
sg15
S'/eos/user/e/ecasilar/SMPVJ_Gamma_BJETS/data/2016/SingleMuon_Trigger_Scaled/Run2016G_02Apr2020-v1'
p267
sg14
I1
sg12
g249
ssg225
(dp268
g8
I1
sg9
F0.0
sg10
I1
sg15
S'/eos/user/e/ecasilar/SMPVJ_Gamma_BJETS/data/2016/SingleMuon_Trigger_Scaled/Run2016F_02Apr2020-v1'
p269
sg14
I1
sg12
g252
ssg229
(dp270
g8
I1
sg9
F0.0
sg10
I1
sg15
S'/eos/user/e/ecasilar/SMPVJ_Gamma_BJETS/data/2016/SingleMuon_Trigger_Scaled/Run2016H_02Apr2020-v1'
p271
sg14
I1
sg12
g255
sssS'SinglePhoton'
p272
(dp273
g205
(dp274
g8
I1
sg9
F0.0
sg10
I1
sg15
S'/eos/user/e/ecasilar/SMPVJ_Gamma_BJETS//data/2016/SinglePhoton/High_PT/Run2016C_02Apr2020-v1/'
p275
sg14
I1
sg12
g208
ssg209
(dp276
g8
I1
sg9
F0.0
sg10
I1
sg15
S'/eos/user/e/ecasilar/SMPVJ_Gamma_BJETS//data/2016/SinglePhoton/High_PT/Run2016B_02Apr2020-v1/'
p277
sg14
I1
sg12
g212
ssg213
(dp278
g8
I1
sg9
F0.0
sg10
I1
sg15
S'/eos/user/e/ecasilar/SMPVJ_Gamma_BJETS//data/2016/SinglePhoton/High_PT/Run2016E_02Apr2020-v1/'
p279
sg14
I1
sg12
g216
ssg217
(dp280
g8
I1
sg9
F0.0
sg10
I1
sg15
S'/eos/user/e/ecasilar/SMPVJ_Gamma_BJETS//data/2016/SinglePhoton/High_PT/Run2016D_02Apr2020-v1/'
p281
sg14
I1
sg12
g220
ssg221
(dp282
g8
I1
sg9
F0.0
sg10
I1
sg15
S'/eos/user/e/ecasilar/SMPVJ_Gamma_BJETS//data/2016/SinglePhoton/High_PT/Run2016G_02Apr2020-v1/'
p283
sg14
I1
sg12
g224
ssg225
(dp284
g8
I1
sg9
F0.0
sg10
I1
sg15
S'/eos/user/e/ecasilar/SMPVJ_Gamma_BJETS//data/2016/SinglePhoton/High_PT/Run2016F_02Apr2020-v1/'
p285
sg14
I1
sg12
g228
ssg229
(dp286
g8
I1
sg9
F0.0
sg10
I1
sg15
S'/eos/user/e/ecasilar/SMPVJ_Gamma_BJETS//data/2016/SinglePhoton/High_PT/Run2016H_02Apr2020-v1/'
p287
sg14
I1
sg12
g232
sssS'SingleMuon'
p288
(dp289
g205
(dp290
g8
I1
sg9
F0.0
sg10
I1
sg15
S'/eos/user/e/ecasilar/SMPVJ_Gamma_BJETS/data/2016/SingleMuon/Low_PT/Run2016C_02Apr2020-v1/merged_HLT_36/'
p259
sg14
I1
sg12
g237
ssg209
(dp292
g8
I1
sg9
F0.0
sg10
I1
sg15
S'/eos/user/e/ecasilar/SMPVJ_Gamma_BJETS/data/2016/SingleMuon/Low_PT/Run2016B_02Apr2020-v1/merged_HLT_36/'
p261
sg14
I1
sg12
g240
ssg213
(dp294
g8
I1
sg9
F0.0
sg10
I1
sg15
S'/eos/user/e/ecasilar/SMPVJ_Gamma_BJETS/data/2016/SingleMuon/Low_PT/Run2016E_02Apr2020-v1/merged_HLT_36/'
p263
sg14
I1
sg12
g243
ssg217
(dp296
g8
I1
sg9
F0.0
sg10
I1
sg15
S'/eos/user/e/ecasilar/SMPVJ_Gamma_BJETS/data/2016/SingleMuon/Low_PT/Run2016D_02Apr2020-v1/merged_HLT_36/'
p265
sg14
I1
sg12
g246
ssg221
(dp298
g8
I1
sg9
F0.0
sg10
I1
sg15
S'/eos/user/e/ecasilar/SMPVJ_Gamma_BJETS/data/2016/SingleMuon/Low_PT/Run2016G_02Apr2020-v1/merged_HLT_36/'
p267
sg14
I1
sg12
g249
ssg225
(dp300
g8
I1
sg9
F0.0
sg10
I1
sg15
S'/eos/user/e/ecasilar/SMPVJ_Gamma_BJETS/data/2016/SingleMuon/Low_PT/Run2016F_02Apr2020-v1/merged_HLT_36/'
p269
sg14
I1
sg12
g252
ssg229
(dp302
g8
I1
sg9
F0.0
sg10
I1
sg15
S'/eos/user/e/ecasilar/SMPVJ_Gamma_BJETS/data/2016/SingleMuon/Low_PT/Run2016H_02Apr2020-v1/merged_HLT_36/'
p271
sg14
I1
sg12
g255
sssS'SingleMuon_prescaled_NoPtCut_merged'
p304
(dp305
g205
(dp306
g8
I1
sg9
F0.0
sg10
I1
sg15
S'/eos/user/e/ecasilar/SMPVJ_Gamma_BJETS/data/2016/SingleMuon_Trigger_Scaled_NoPtCut/Run2016C_02Apr2020-v1/merged'
p307
sg14
I1
sg12
g237
ssg209
(dp308
g8
I1
sg9
F0.0
sg10
I1
sg15
S'/eos/user/e/ecasilar/SMPVJ_Gamma_BJETS/data/2016/SingleMuon_Trigger_Scaled_NoPtCut/Run2016B_02Apr2020-v1/merged'
p309
sg14
I1
sg12
g240
ssg213
(dp310
g8
I1
sg9
F0.0
sg10
I1
sg15
S'/eos/user/e/ecasilar/SMPVJ_Gamma_BJETS/data/2016/SingleMuon_Trigger_Scaled_NoPtCut/Run2016E_02Apr2020-v1/merged'
p311
sg14
I1
sg12
g243
ssg217
(dp312
g8
I1
sg9
F0.0
sg10
I1
sg15
S'/eos/user/e/ecasilar/SMPVJ_Gamma_BJETS/data/2016/SingleMuon_Trigger_Scaled_NoPtCut/Run2016D_02Apr2020-v1/merged'
p313
sg14
I1
sg12
g246
ssg221
(dp314
g8
I1
sg9
F0.0
sg10
I1
sg15
S'/eos/user/e/ecasilar/SMPVJ_Gamma_BJETS/data/2016/SingleMuon_Trigger_Scaled_NoPtCut/Run2016G_02Apr2020-v1/merged'
p315
sg14
I1
sg12
g249
ssg225
(dp316
g8
I1
sg9
F0.0
sg10
I1
sg15
S'/eos/user/e/ecasilar/SMPVJ_Gamma_BJETS/data/2016/SingleMuon_Trigger_Scaled_NoPtCut/Run2016F_02Apr2020-v1/merged'
p317
sg14
I1
sg12
g252
ssg229
(dp318
g8
I1
sg9
F0.0
sg10
I1
sg15
S'/eos/user/e/ecasilar/SMPVJ_Gamma_BJETS/data/2016/SingleMuon_Trigger_Scaled_NoPtCut/Run2016H_02Apr2020-v1/merged'
p319
sg14
I1
sg12
g255
sssssI2017
(dp320
g201
(dp321
S'SingleMuon_UL'
p322
(dp323
g205
(dp324
g8
I1
sg9
F0.0
sg10
I1
sg15
S'/eos/user/e/ecasilar/SMPVJ_Gamma_BJETS/data/2017/SingleMuon_UL/Run2017C-UL2017_02Dec2019-v1'
p325
sg14
I1
sg12
S'/SingleMuon/Run2017C-UL2017_02Dec2019-v1/NANOAOD'
p326
ssg209
(dp327
g8
I1
sg9
F0.0
sg10
I1
sg15
S'/eos/user/e/ecasilar/SMPVJ_Gamma_BJETS/data/2017/SingleMuon_UL/Run2017B-UL2017_02Dec2019-v1'
p328
sg14
I1
sg12
S'/SingleMuon/Run2017B-UL2017_02Dec2019-v1/NANOAOD'
p329
ssg213
(dp330
g8
I1
sg9
F0.0
sg10
I1
sg15
S'/eos/user/e/ecasilar/SMPVJ_Gamma_BJETS/data/2017/SingleMuon_UL/Run2017E-UL2017_02Dec2019-v1'
p331
sg14
I1
sg12
S'/SingleMuon/Run2017E-UL2017_02Dec2019-v1/NANOAOD'
p332
ssg217
(dp333
g8
I1
sg9
F0.0
sg10
I1
sg15
S'/eos/user/e/ecasilar/SMPVJ_Gamma_BJETS/data/2017/SingleMuon_UL/Run2017D-UL2017_02Dec2019-v1'
p334
sg14
I1
sg12
S'/SingleMuon/Run2017D-UL2017_02Dec2019-v1/NANOAOD'
p335
ssg225
(dp336
g8
I1
sg9
F0.0
sg10
I1
sg15
S'/eos/user/e/ecasilar/SMPVJ_Gamma_BJETS/data/2017/SingleMuon_UL/Run2017F-UL2017_02Dec2019-v1'
p337
sg14
I1
sg12
S'/SingleMuon/Run2017F-UL2017_02Dec2019-v1/NANOAOD'
p338
sssg288
(dp339
g205
(dp340
g8
I1
sg9
F0.0
sg10
I1
sg15
S'/eos/user/e/ecasilar/SMPVJ_Gamma_BJETS/data/2017/SingleMuon/Run2017C-02Apr2020-v1'
p341
sg14
I1
sg12
S'/SingleMuon/Run2017C-02Apr2020-v1/NANOAOD'
p342
ssg209
(dp343
g8
I1
sg9
F0.0
sg10
I1
sg15
S'/eos/user/e/ecasilar/SMPVJ_Gamma_BJETS/data/2017/SingleMuon/Run2017B-02Apr2020-v1'
p344
sg14
I1
sg12
S'/SingleMuon/Run2017B-02Apr2020-v1/NANOAOD'
p345
ssg213
(dp346
g8
I1
sg9
F0.0
sg10
I1
sg15
S'/eos/user/e/ecasilar/SMPVJ_Gamma_BJETS/data/2017/SingleMuon/Run2017E-02Apr2020-v1'
p347
sg14
I1
sg12
S'/SingleMuon/Run2017E-02Apr2020-v1/NANOAOD'
p348
ssg217
(dp349
g8
I1
sg9
F0.0
sg10
I1
sg15
S'/eos/user/e/ecasilar/SMPVJ_Gamma_BJETS/data/2017/SingleMuon/Run2017D-02Apr2020-v1'
p350
sg14
I1
sg12
S'/SingleMuon/Run2017D-02Apr2020-v1/NANOAOD'
p351
ssg225
(dp352
g8
I1
sg9
F0.0
sg10
I1
sg15
S'/eos/user/e/ecasilar/SMPVJ_Gamma_BJETS/data/2017/SingleMuon/Run2017F-02Apr2020-v1'
p353
sg14
I1
sg12
S'/SingleMuon/Run2017F-02Apr2020-v1/NANOAOD'
p354
sssS'SingleMuon_UL_prescaled_NoPtCut_merged'
p355
(dp356
g205
(dp357
g8
I1
sg9
F0.0
sg10
I1
sg15
S'/eos/user/e/ecasilar/SMPVJ_Gamma_BJETS/data/2017/SingleMuon_UL_Trigger_Scaled_NoPtCut/Run2017C-UL2017_02Dec2019-v1/merged'
p358
sg14
I1
sg12
g326
ssg209
(dp359
g8
I1
sg9
F0.0
sg10
I1
sg15
S'/eos/user/e/ecasilar/SMPVJ_Gamma_BJETS/data/2017/SingleMuon_UL_Trigger_Scaled_NoPtCut/Run2017B-UL2017_02Dec2019-v1/merged'
p360
sg14
I1
sg12
g329
ssg213
(dp361
g8
I1
sg9
F0.0
sg10
I1
sg15
S'/eos/user/e/ecasilar/SMPVJ_Gamma_BJETS/data/2017/SingleMuon_UL_Trigger_Scaled_NoPtCut/Run2017E-UL2017_02Dec2019-v1/merged'
p362
sg14
I1
sg12
g332
ssg217
(dp363
g8
I1
sg9
F0.0
sg10
I1
sg15
S'/eos/user/e/ecasilar/SMPVJ_Gamma_BJETS/data/2017/SingleMuon_UL_Trigger_Scaled_NoPtCut/Run2017D-UL2017_02Dec2019-v1/merged'
p364
sg14
I1
sg12
g335
ssg225
(dp365
g8
I1
sg9
F0.0
sg10
I1
sg15
S'/eos/user/e/ecasilar/SMPVJ_Gamma_BJETS/data/2017/SingleMuon_UL_Trigger_Scaled_NoPtCut/Run2017F-UL2017_02Dec2019-v1/merged'
p366
sg14
I1
sg12
g338
sssS'SingleMuon_UL_prescaled_NoPtCut'
p367
(dp368
g205
(dp369
g8
I1
sg9
F0.0
sg10
I1
sg15
S'/eos/user/e/ecasilar/SMPVJ_Gamma_BJETS/data/2017/SingleMuon_UL_Trigger_Scaled_NoPtCut/Run2017C-UL2017_02Dec2019-v1'
p370
sg14
I1
sg12
g326
ssg209
(dp371
g8
I1
sg9
F0.0
sg10
I1
sg15
S'/eos/user/e/ecasilar/SMPVJ_Gamma_BJETS/data/2017/SingleMuon_UL_Trigger_Scaled_NoPtCut/Run2017B-UL2017_02Dec2019-v1'
p372
sg14
I1
sg12
g329
ssg213
(dp373
g8
I1
sg9
F0.0
sg10
I1
sg15
S'/eos/user/e/ecasilar/SMPVJ_Gamma_BJETS/data/2017/SingleMuon_UL_Trigger_Scaled_NoPtCut/Run2017E-UL2017_02Dec2019-v1'
p374
sg14
I1
sg12
g332
ssg217
(dp375
g8
I1
sg9
F0.0
sg10
I1
sg15
S'/eos/user/e/ecasilar/SMPVJ_Gamma_BJETS/data/2017/SingleMuon_UL_Trigger_Scaled_NoPtCut/Run2017D-UL2017_02Dec2019-v1'
p376
sg14
I1
sg12
g335
ssg225
(dp377
g8
I1
sg9
F0.0
sg10
I1
sg15
S'/eos/user/e/ecasilar/SMPVJ_Gamma_BJETS/data/2017/SingleMuon_UL_Trigger_Scaled_NoPtCut/Run2017F-UL2017_02Dec2019-v1'
p378
sg14
I1
sg12
g338
sssssI2018
(dp379
g201
(dp380
g322
(dp381
S'A'
p382
(dp383
g8
I1
sg9
F0.0
sg10
I1
sg15
S'/eos/user/e/ecasilar/SMPVJ_Gamma_BJETS/data/2018/SingleMuon_UL/Run2018A-UL2018_MiniAODv1_NanoAODv2-v1'
p384
sg14
I1
sg12
S'/SingleMuon/Run2018E-UL2018_MiniAODv1_NanoAODv2-v1/NANOAOD'
p385
ssg205
(dp386
g8
I1
sg9
F0.0
sg10
I1
sg15
S'/eos/user/e/ecasilar/SMPVJ_Gamma_BJETS/data/2018/SingleMuon_UL/Run2018C-UL2018_MiniAODv1_NanoAODv2-v1'
p387
sg14
I1
sg12
S'/SingleMuon/Run2018C-UL2018_MiniAODv1_NanoAODv2-v1/NANOAOD'
p388
ssg209
(dp389
g8
I1
sg9
F0.0
sg10
I1
sg15
S'/eos/user/e/ecasilar/SMPVJ_Gamma_BJETS/data/2018/SingleMuon_UL/Run2018B-UL2018_MiniAODv1_NanoAODv2-v1'
p390
sg14
I1
sg12
S'/SingleMuon/Run2018B-UL2018_MiniAODv1_NanoAODv2-v1/NANOAOD'
p391
ssg217
(dp392
g8
I1
sg9
F0.0
sg10
I1
sg15
S'/eos/user/e/ecasilar/SMPVJ_Gamma_BJETS/data/2018/SingleMuon_UL/Run2018D-UL2018_MiniAODv1_NanoAODv2-v1'
p393
sg14
I1
sg12
S'/SingleMuon/Run2018D-UL2018_MiniAODv1_NanoAODv2-v1/NANOAOD'
p394
sssg288
(dp395
g382
(dp396
g8
I1
sg9
F0.0
sg10
I1
sg15
S'/eos/user/e/ecasilar/SMPVJ_Gamma_BJETS/data/2018/SingleMuon/Run2018A-02Apr2020-v1'
p397
sg14
I1
sg12
S'/SingleMuon/Run2018E-02Apr2020-v1/NANOAOD'
p398
ssg205
(dp399
g8
I1
sg9
F0.0
sg10
I1
sg15
S'/eos/user/e/ecasilar/SMPVJ_Gamma_BJETS/data/2018/SingleMuon/Run2018C-02Apr2020-v1'
p400
sg14
I1
sg12
S'/SingleMuon/Run2018C-02Apr2020-v1/NANOAOD'
p401
ssg209
(dp402
g8
I1
sg9
F0.0
sg10
I1
sg15
S'/eos/user/e/ecasilar/SMPVJ_Gamma_BJETS/data/2018/SingleMuon/Run2018B-02Apr2020-v1'
p403
sg14
I1
sg12
S'/SingleMuon/Run2018B-02Apr2020-v1/NANOAOD'
p404
ssg217
(dp405
g8
I1
sg9
F0.0
sg10
I1
sg15
S'/eos/user/e/ecasilar/SMPVJ_Gamma_BJETS/data/2018/SingleMuon/Run2018D-02Apr2020-v1'
p406
sg14
I1
sg12
S'/SingleMuon/Run2018D-02Apr2020-v1/NANOAOD'
p407
sssg355
(dp408
g382
(dp409
g8
I1
sg9
F0.0
sg10
I1
sg15
S'/eos/user/e/ecasilar/SMPVJ_Gamma_BJETS/data/2018/SingleMuon_UL_Trigger_Scaled_NoPtCut/Run2018A-UL2018_MiniAODv1_NanoAODv2-v1/merged'
p410
sg14
I1
sg12
g385
ssg205
(dp411
g8
I1
sg9
F0.0
sg10
I1
sg15
S'/eos/user/e/ecasilar/SMPVJ_Gamma_BJETS/data/2018/SingleMuon_UL_Trigger_Scaled_NoPtCut/Run2018C-UL2018_MiniAODv1_NanoAODv2-v1/merged'
p412
sg14
I1
sg12
g388
ssg209
(dp413
g8
I1
sg9
F0.0
sg10
I1
sg15
S'/eos/user/e/ecasilar/SMPVJ_Gamma_BJETS/data/2018/SingleMuon_UL_Trigger_Scaled_NoPtCut/Run2018B-UL2018_MiniAODv1_NanoAODv2-v1/merged'
p414
sg14
I1
sg12
g391
ssg217
(dp415
g8
I1
sg9
F0.0
sg10
I1
sg15
S'/eos/user/e/ecasilar/SMPVJ_Gamma_BJETS/data/2018/SingleMuon_UL_Trigger_Scaled_NoPtCut/Run2018D-UL2018_MiniAODv1_NanoAODv2-v1/merged'
p416
sg14
I1
sg12
g394
sssg367
(dp417
g382
(dp418
g8
I1
sg9
F0.0
sg10
I1
sg15
S'/eos/user/e/ecasilar/SMPVJ_Gamma_BJETS/data/2018/SingleMuon_UL_Trigger_Scaled_NoPtCut/Run2018A-UL2018_MiniAODv1_NanoAODv2-v1'
p419
sg14
I1
sg12
g385
ssg205
(dp420
g8
I1
sg9
F0.0
sg10
I1
sg15
S'/eos/user/e/ecasilar/SMPVJ_Gamma_BJETS/data/2018/SingleMuon_UL_Trigger_Scaled_NoPtCut/Run2018C-UL2018_MiniAODv1_NanoAODv2-v1'
p421
sg14
I1
sg12
g388
ssg209
(dp422
g8
I1
sg9
F0.0
sg10
I1
sg15
S'/eos/user/e/ecasilar/SMPVJ_Gamma_BJETS/data/2018/SingleMuon_UL_Trigger_Scaled_NoPtCut/Run2018B-UL2018_MiniAODv1_NanoAODv2-v1'
p423
sg14
I1
sg12
g391
ssg217
(dp424
g8
I1
sg9
F0.0
sg10
I1
sg15
S'/eos/user/e/ecasilar/SMPVJ_Gamma_BJETS/data/2018/SingleMuon_UL_Trigger_Scaled_NoPtCut/Run2018D-UL2018_MiniAODv1_NanoAODv2-v1'
p425
sg14
I1
sg12
g394
sssss.