(dp0
I2016
(dp1
S'signal'
p2
(dp3
S'G1Jet_Pt'
p4
(dp5
S'G1Jet_Pt_100To250'
p6
(dp7
S'xsec'
p8
F1155.0
sS'fraction_negative_weight'
p9
F0.2257
sS'xsec_unc'
p10
F4.489
sS'nevents'
p11
I9964624
sS'das_path'
p12
S'/G1Jet_Pt-100To250_TuneCUETP8M1_13TeV-amcatnlo-pythia8/RunIISummer16NanoAODv7-PUMoriond17_Nano02Apr2020_102X_mcRun2_asymptotic_v8_ext1-v1/NANOAODSIM'
p13
sS'equivalent_lumi'
p14
F0.2606
sS'dir'
p15
S'/eos/user/e/ecasilar/SMPVJ_Gamma_BJETS/MC/G1Jet_Pt-100To250_TuneCUETP8M1_13TeV-amcatnlo-pythia8/'
p16
ssS'G1Jet_Pt_250To400'
p17
(dp18
g8
F25.48
sg9
F0.2331
sg10
F0.07909
sg11
I997008
sg12
S'/G1Jet_Pt-250To400_TuneCUETP8M1_13TeV-amcatnlo-pythia8/RunIISummer16NanoAODv7-PUMoriond17_Nano02Apr2020_102X_mcRun2_asymptotic_v8_ext1-v1/NANOAODSIM'
p19
sg14
F11.18
sg15
S'/eos/user/e/ecasilar/SMPVJ_Gamma_BJETS/MC/G1Jet_Pt-250To400_TuneCUETP8M1_13TeV-amcatnlo-pythia8/'
p20
ssS'G1Jet_Pt_250To400_NOExt'
p21
(dp22
g8
F25.48
sg9
F0.2331
sg10
F0.07909
sg11
I1000000
sg12
S'/G1Jet_Pt-250To400_TuneCUETP8M1_13TeV-amcatnlo-pythia8/RunIISummer16NanoAODv7-PUMoriond17_Nano02Apr2020_102X_mcRun2_asymptotic_v8-v1/NANOAODSIM'
p23
sg14
F11.18
sg15
S'/eos/user/e/ecasilar/SMPVJ_Gamma_BJETS/MC/G1Jet_Pt-250To400_TuneCUETP8M1_13TeV-amcatnlo-pythia8_NOExt/'
p24
ssS'G1Jet_Pt_50To100'
p25
(dp26
g8
F13530.0
sg9
F0.2234
sg10
F55.01
sg11
I97795100
sg12
S'/G1Jet_Pt-50To100_TuneCUETP8M1_13TeV-amcatnlo-pythia8/RunIISummer16NanoAODv7-PUMoriond17_Nano02Apr2020_102X_mcRun2_asymptotic_v8_ext1-v1/NANOAODSIM'
p27
sg14
F0.02261
sg15
S'/eos/user/e/ecasilar/SMPVJ_Gamma_BJETS/MC/G1Jet_Pt-50To100_TuneCUETP8M1_13TeV-amcatnlo-pythia8/'
p28
ssS'G1Jet_Pt_650ToInf'
p29
(dp30
g8
F0.2939
sg9
F0.2172
sg10
F0.0006189
sg11
I999314
sg12
S'/G1Jet_Pt-650ToInf_TuneCUETP8M1_13TeV-amcatnlo-pythia8/RunIISummer16NanoAODv7-PUMoriond17_Nano02Apr2020_102X_mcRun2_asymptotic_v8_ext1-v1/NANOAODSIM'
p31
sg14
F1088.0
sg15
S'/eos/user/e/ecasilar/SMPVJ_Gamma_BJETS/MC/G1Jet_Pt-650ToInf_TuneCUETP8M1_13TeV-amcatnlo-pythia8/'
p32
ssS'G1Jet_Pt_400To650_NOExt'
p33
(dp34
g8
F3.14
sg9
F0.2326
sg10
F0.007797
sg11
I982900
sg12
S'/G1Jet_Pt-400To650_TuneCUETP8M1_13TeV-amcatnlo-pythia8/RunIISummer16NanoAODv7-PUMoriond17_Nano02Apr2020_102X_mcRun2_asymptotic_v8-v1/NANOAODSIM'
p35
sg14
F91.08
sg15
S'/eos/user/e/ecasilar/SMPVJ_Gamma_BJETS/MC/G1Jet_Pt-400To650_TuneCUETP8M1_13TeV-amcatnlo-pythia8_NOExt/'
p36
ssS'G1Jet_Pt_650ToInf_NOExt'
p37
(dp38
g8
F0.2939
sg9
F0.2172
sg10
F0.0006189
sg11
I961024
sg12
S'/G1Jet_Pt-650ToInf_TuneCUETP8M1_13TeV-amcatnlo-pythia8/RunIISummer16NanoAODv7-PUMoriond17_Nano02Apr2020_102X_mcRun2_asymptotic_v8-v1/NANOAODSIM'
p39
sg14
F1088.0
sg15
S'/eos/user/e/ecasilar/SMPVJ_Gamma_BJETS/MC/G1Jet_Pt-650ToInf_TuneCUETP8M1_13TeV-amcatnlo-pythia8_NOExt/'
p40
ssS'G1Jet_Pt_50To100_NOExt'
p41
(dp42
g8
F13530.0
sg9
F0.2234
sg10
F55.01
sg11
I4962870
sg12
S'/G1Jet_Pt-50To100_TuneCUETP8M1_13TeV-amcatnlo-pythia8/RunIISummer16NanoAODv7-PUMoriond17_Nano02Apr2020_102X_mcRun2_asymptotic_v8-v1/NANOAODSIM'
p43
sg14
F0.02261
sg15
S'/eos/user/e/ecasilar/SMPVJ_Gamma_BJETS/MC/G1Jet_Pt-50To100_TuneCUETP8M1_13TeV-amcatnlo-pythia8_NOExt/'
p44
ssS'G1Jet_Pt_400To650'
p45
(dp46
g8
F3.14
sg9
F0.2326
sg10
F0.007797
sg11
I999000
sg12
S'/G1Jet_Pt-400To650_TuneCUETP8M1_13TeV-amcatnlo-pythia8/RunIISummer16NanoAODv7-PUMoriond17_Nano02Apr2020_102X_mcRun2_asymptotic_v8_ext1-v1/NANOAODSIM'
p47
sg14
F91.08
sg15
S'/eos/user/e/ecasilar/SMPVJ_Gamma_BJETS/MC/G1Jet_Pt-400To650_TuneCUETP8M1_13TeV-amcatnlo-pythia8/'
p48
ssS'G1Jet_Pt_100To250_NOExt'
p49
(dp50
g8
F1155.0
sg9
F0.2257
sg10
F4.489
sg11
I998265
sg12
S'/G1Jet_Pt-100To250_TuneCUETP8M1_13TeV-amcatnlo-pythia8/RunIISummer16NanoAODv7-PUMoriond17_Nano02Apr2020_102X_mcRun2_asymptotic_v8-v1/NANOAODSIM'
p51
sg14
F0.2606
sg15
S'/eos/user/e/ecasilar/SMPVJ_Gamma_BJETS/MC/G1Jet_Pt-100To250_TuneCUETP8M1_13TeV-amcatnlo-pythia8_NOExt/'
p52
sssS'GJets'
p53
(dp54
g8
F365400.0
sg9
F0.0
sg10
F382.7
sg11
I19794775
sg12
S'/GJet_Pt-15To6000_TuneCUETP8M1-Flat_13TeV_pythia8_20M/RunIISummer16NanoAODv7-PUMoriond17_Nano02Apr2020_102X_mcRun2_asymptotic_v8-v1/NANOAODSIM'
p55
sg14
F0.002737
sg15
S'/eos/user/e/ecasilar/SMPVJ_Gamma_BJETS/MC/GJet_Pt-15To6000_TuneCUETP8M1-Flat_13TeV_pythia8_20M/'
p56
ssS'GJets_HT'
p57
(dp58
S'GJets_HT_400To600'
p59
(dp60
g8
F274.4
sg9
F0.0
sg10
F0.8368
sg11
I2530341
sg12
S'/GJets_HT-400To600_TuneCUETP8M1_13TeV-madgraphMLM-pythia8/RunIISummer16NanoAODv7-PUMoriond17_Nano02Apr2020_102X_mcRun2_asymptotic_v8_ext1-v1/NANOAODSIM'
p61
sg14
F3.612
sg15
S'/eos/user/e/ecasilar/SMPVJ_Gamma_BJETS/MC/GJets_HT-400To600_TuneCUETP8M1_13TeV-madgraphMLM-pythia8/'
p62
ssS'GJets_HT_200To400'
p63
(dp64
g8
F2305.0
sg9
F0.0
sg10
F6.945
sg11
I10404907
sg12
S'/GJets_HT-200To400_TuneCUETP8M1_13TeV-madgraphMLM-pythia8/RunIISummer16NanoAODv7-PUMoriond17_Nano02Apr2020_102X_mcRun2_asymptotic_v8_ext1-v1/NANOAODSIM'
p65
sg14
F0.4316
sg15
S'/eos/user/e/ecasilar/SMPVJ_Gamma_BJETS/MC/GJets_HT-200To400_TuneCUETP8M1_13TeV-madgraphMLM-pythia8/'
p66
ssS'GJets_HT_100To200'
p67
(dp68
g8
F9238.0
sg9
F0.0
sg10
F27.11
sg11
I4972282
sg12
S'/GJets_HT-100To200_TuneCUETP8M1_13TeV-madgraphMLM-pythia8/RunIISummer16NanoAODv7-PUMoriond17_Nano02Apr2020_102X_mcRun2_asymptotic_v8_ext1-v1/NANOAODSIM'
p69
sg14
F0.1087
sg15
S'/eos/user/e/ecasilar/SMPVJ_Gamma_BJETS/MC/GJets_HT-100To200_TuneCUETP8M1_13TeV-madgraphMLM-pythia8/'
p70
ssS'GJets_HT_600ToInf'
p71
(dp72
g8
F93.46
sg9
F0.0
sg10
F0.2861
sg11
I2616911
sg12
S'/GJets_HT-600ToInf_TuneCUETP8M1_13TeV-madgraphMLM-pythia8/RunIISummer16NanoAODv7-PUMoriond17_Nano02Apr2020_102X_mcRun2_asymptotic_v8_ext1-v1/NANOAODSIM'
p73
sg14
F10.61
sg15
S'/eos/user/e/ecasilar/SMPVJ_Gamma_BJETS/MC/GJets_HT-600ToInf_TuneCUETP8M1_13TeV-madgraphMLM-pythia8/'
p74
ssS'GJets_HT_40To100'
p75
(dp76
g8
F20790.0
sg9
F0.0
sg10
F59.82
sg11
I4858154
sg12
S'/GJets_HT-40To100_TuneCUETP8M1_13TeV-madgraphMLM-pythia8/RunIISummer16NanoAODv7-PUMoriond17_Nano02Apr2020_102X_mcRun2_asymptotic_v8_ext1-v1/NANOAODSIM'
p77
sg14
F0.04811
sg15
S'/eos/user/e/ecasilar/SMPVJ_Gamma_BJETS/MC/GJets_HT-40To100_TuneCUETP8M1_13TeV-madgraphMLM-pythia8/'
p78
sssS'GJets_Pt'
p79
(dp80
S'GJets_Pt_1000To2000'
p81
(dp82
g8
F0.02092
sg9
F0.01466
sg10
F0.0001703
sg11
I399578
sg12
S'/GJets_Pt-1000To2000_13TeV-sherpa/RunIISummer16NanoAODv7-PUMoriond17_Nano02Apr2020_102X_mcRun2_asymptotic_v8-v1/NANOAODSIM'
p83
sg14
F45040.0
sg15
S'/eos/user/e/ecasilar/SMPVJ_Gamma_BJETS/MC/GJets_Pt-1000To2000_13TeV-sherpa/'
p84
ssS'GJets_Pt_500To1000'
p85
(dp86
g8
F0.9904
sg9
F0.01163
sg10
F0.00919
sg11
I484865
sg12
S'/GJets_Pt-500To1000_13TeV-sherpa/RunIISummer16NanoAODv7-PUMoriond17_Nano02Apr2020_102X_mcRun2_asymptotic_v8-v1/NANOAODSIM'
p87
sg14
F940.6
sg15
S'/eos/user/e/ecasilar/SMPVJ_Gamma_BJETS/MC/GJets_Pt-500To1000_13TeV-sherpa/'
p88
ssS'GJets_Pt_100To200'
p89
(dp90
g8
F1032.0
sg9
F0.01085
sg10
F7.109
sg11
I498029
sg12
S'/GJets_Pt-100To200_13TeV-sherpa/RunIISummer16NanoAODv7-PUMoriond17_Nano02Apr2020_102X_mcRun2_asymptotic_v8-v1/NANOAODSIM'
p91
sg14
F0.9342
sg15
S'/eos/user/e/ecasilar/SMPVJ_Gamma_BJETS/MC/GJets_Pt-100To200_13TeV-sherpa/'
p92
ssS'GJets_Pt_2000To5000'
p93
(dp94
g8
F7.451e-05
sg9
F0.1247
sg10
F7.843e-07
sg11
I299739
sg12
S'/GJets_Pt-2000To5000_13TeV-sherpa/RunIISummer16NanoAODv7-PUMoriond17_Nano02Apr2020_102X_mcRun2_asymptotic_v8-v1/NANOAODSIM'
p95
sg14
F7537000.0
sg15
S'/eos/user/e/ecasilar/SMPVJ_Gamma_BJETS/MC/GJets_Pt-2000To5000_13TeV-sherpa/'
p96
ssS'GJets_Pt_200To500'
p97
(dp98
g8
F70.15
sg9
F0.01032
sg10
F0.6311
sg11
I476434
sg12
S'/GJets_Pt-200To500_13TeV-sherpa/RunIISummer16NanoAODv7-PUMoriond17_Nano02Apr2020_102X_mcRun2_asymptotic_v8-v1/NANOAODSIM'
p99
sg14
F13.97
sg15
S'/eos/user/e/ecasilar/SMPVJ_Gamma_BJETS/MC/GJets_Pt-200To500_13TeV-sherpa/'
p100
ssssS'bkg'
p101
(dp102
S'QCD'
p103
(dp104
g8
F1370000000.0
sg9
F0.0
sg10
F2159000.0
sg11
I9879256
sg12
S'/QCD_Pt-15to7000_TuneCUETP8M1_FlatP6_13TeV_pythia8/RunIISummer16NanoAODv7-PUMoriond17_Nano02Apr2020_102X_mcRun2_asymptotic_v8-v1/NANOAODSIM'
p105
sg14
F7.301e-07
sg15
S'/eos/user/e/ecasilar/SMPVJ_Gamma_BJETS/MC/QCD_Pt-15to7000_TuneCUETP8M1_FlatP6_13TeV_pythia8/'
p106
ssS'TTGJets'
p107
(dp108
g8
F3.795
sg9
F0.3381
sg10
F0.02629
sg11
I9877942
sg12
S'/TTGJets_TuneCP5_13TeV-amcatnloFXFX-madspin-pythia8/RunIIFall17NanoAODv7-PU2017_12Apr2018_Nano02Apr2020_102X_mc2017_realistic_v8_ext1-v1/NANOAODSIM'
p109
sg14
F27.63
sg15
S'/eos/user/e/ecasilar/SMPVJ_Gamma_BJETS/MC/TTGJets_TuneCUETP8M1_13TeV-amcatnloFXFX-madspin-pythia8/'
p110
ssS'ST_t_channel_top'
p111
(dp112
g8
F136.82
sg9
F0.0
sg10
F0.0
sg11
I58403420
sg12
S'/ST_t-channel_top_4f_inclusiveDecays_13TeV-powhegV2-madspin-pythia8_TuneCUETP8M1/RunIISummer16NanoAODv7-PUMoriond17_Nano02Apr2020_102X_mcRun2_asymptotic_v8-v2/NANOAODSIM'
p113
sg14
F0.0
sg15
S'/eos/user/e/ecasilar/SMPVJ_Gamma_BJETS/MC/ST_t-channel_top_4f_inclusiveDecays_13TeV-powhegV2-madspin-pythia8_TuneCUETP8M1/'
p114
ssS'ST_t_channel_antitop'
p115
(dp116
g8
F81.42
sg9
F0.0
sg10
F0.0
sg11
I38811017
sg12
S'/ST_t-channel_antitop_4f_inclusiveDecays_13TeV-powhegV2-madspin-pythia8_TuneCUETP8M1/RunIISummer16NanoAODv7-PUMoriond17_Nano02Apr2020_102X_mcRun2_asymptotic_v8-v1/NANOAODSIM'
p117
sg14
F0.0
sg15
S'/eos/user/e/ecasilar/SMPVJ_Gamma_BJETS/MC/ST_t-channel_antitop_4f_inclusiveDecays_13TeV-powhegV2-madspin-pythia8_TuneCUETP8M1/'
p118
ssS'TGJets'
p119
(dp120
g8
F2.967
sg9
F0.4008
sg10
F0.01052
sg11
I1556996
sg12
S'/TGJets_TuneCP5_13TeV_amcatnlo_madspin_pythia8/RunIIFall17NanoAODv7-PU2017_12Apr2018_Nano02Apr2020_102X_mc2017_realistic_v8-v1/NANOAODSIM'
p121
sg14
F13.27
sg15
S'/eos/user/e/ecasilar/SMPVJ_Gamma_BJETS/MC/TGJets_TuneCUETP8M1_13TeV_amcatnlo_madspin_pythia8/'
p122
ssS'ST_tW_antitop'
p123
(dp124
g8
F38.06
sg9
F0.0
sg10
F0.03055
sg11
I6933094
sg12
S'/ST_tW_antitop_5f_inclusiveDecays_13TeV-powheg-pythia8_TuneCUETP8M1/RunIISummer16NanoAODv7-PUMoriond17_Nano02Apr2020_102X_mcRun2_asymptotic_v8_ext1-v1/NANOAODSIM'
p125
sg14
F26.27
sg15
S'/eos/user/e/ecasilar/SMPVJ_Gamma_BJETS/MC/ST_tW_antitop_5f_inclusiveDecays_13TeV-powheg-pythia8_TuneCUETP8M1/'
p126
ssS'QCD_HT'
p127
(dp128
S'QCD_HT_1500To2000'
p129
(dp130
g8
F119.9
sg9
F0.0
sg10
F0.1159
sg11
I7868538
sg12
S'/QCD_HT1500to2000_TuneCUETP8M1_13TeV-madgraphMLM-pythia8/RunIISummer16NanoAODv7-PUMoriond17_Nano02Apr2020_102X_mcRun2_asymptotic_v8_ext1-v1/NANOAODSIM'
p131
sg14
F8.335
sg15
S'/eos/user/e/ecasilar/SMPVJ_Gamma_BJETS/MC/QCD_HT1500to2000_TuneCUETP8M1_13TeV-madgraphMLM-pythia8/'
p132
ssS'QCD_HT_200To300'
p133
(dp134
g8
F1712000.0
sg9
F0.0
sg10
F1626.0
sg11
I38857977
sg12
S'/QCD_HT200to300_TuneCUETP8M1_13TeV-madgraphMLM-pythia8/RunIISummer16NanoAODv7-PUMoriond17_Nano02Apr2020_102X_mcRun2_asymptotic_v8_ext1-v1/NANOAODSIM'
p135
sg14
F0.0005846
sg15
S'/eos/user/e/ecasilar/SMPVJ_Gamma_BJETS/MC/QCD_HT200to300_TuneCUETP8M1_13TeV-madgraphMLM-pythia8/'
p136
ssS'QCD_HT_2000ToInf'
p137
(dp138
g8
F25.24
sg9
F0.0
sg10
F0.02437
sg11
I3812534
sg12
S'/QCD_HT2000toInf_TuneCUETP8M1_13TeV-madgraphMLM-pythia8/RunIISummer16NanoAODv7-PUMoriond17_Nano02Apr2020_102X_mcRun2_asymptotic_v8_ext1-v1/NANOAODSIM'
p139
sg14
F39.6
sg15
S'/eos/user/e/ecasilar/SMPVJ_Gamma_BJETS/MC/QCD_HT2000toInf_TuneCUETP8M1_13TeV-madgraphMLM-pythia8/'
p140
ssS'QCD_HT_700To1000'
p141
(dp142
g8
F6831.0
sg9
F0.0
sg10
F6.593
sg11
I21604533
sg12
S'/QCD_HT700to1000_TuneCUETP8M1_13TeV-madgraphMLM-pythia8/RunIISummer16NanoAODv7-PUMoriond17_Nano02Apr2020_102X_mcRun2_asymptotic_v8_ext1-v1/NANOAODSIM'
p143
sg14
F0.1464
sg15
S'/eos/user/e/ecasilar/SMPVJ_Gamma_BJETS/MC/QCD_HT700to1000_TuneCUETP8M1_13TeV-madgraphMLM-pythia8/'
p144
ssS'QCD_HT_100To200'
p145
(dp146
g8
F27990000.0
sg9
F0.0
sg10
F26130.0
sg11
I82293477
sg12
S'/QCD_HT100to200_TuneCUETP8M1_13TeV-madgraphMLM-pythia8/RunIISummer16NanoAODv7-PUMoriond17_Nano02Apr2020_102X_mcRun2_asymptotic_v8-v1/NANOAODSIM'
p147
sg14
F3.564e-05
sg15
S'/eos/user/e/ecasilar/SMPVJ_Gamma_BJETS/MC/QCD_HT100to200_TuneCUETP8M1_13TeV-madgraphMLM-pythia8/'
p148
ssS'QCD_HT_300To500'
p149
(dp150
g8
F347700.0
sg9
F0.0
sg10
F332.9
sg11
I37516961
sg12
S'/QCD_HT300to500_TuneCUETP8M1_13TeV-madgraphMLM-pythia8/RunIISummer16NanoAODv7-PUMoriond17_Nano02Apr2020_102X_mcRun2_asymptotic_v8_ext1-v1/NANOAODSIM'
p151
sg14
F0.002878
sg15
S'/eos/user/e/ecasilar/SMPVJ_Gamma_BJETS/MC/QCD_HT300to500_TuneCUETP8M1_13TeV-madgraphMLM-pythia8/'
p152
ssS'QCD_HT_50To100'
p153
(dp154
g8
F246400000.0
sg9
F0.0
sg10
F218700.0
sg11
I4180469
sg12
S'/QCD_HT50to100_TuneCUETP8M1_13TeV-madgraphMLM-pythia8/RunIISummer16NanoAODv7-PUMoriond17_Nano02Apr2020_102X_mcRun2_asymptotic_v8-v1/NANOAODSIM'
p155
sg14
F4.061e-06
sg15
S'/eos/user/e/ecasilar/SMPVJ_Gamma_BJETS/MC/QCD_HT50to100_TuneCUETP8M1_13TeV-madgraphMLM-pythia8/'
p156
ssS'QCD_HT_500To700'
p157
(dp158
g8
F32100.0
sg9
F0.0
sg10
F30.88
sg11
I44061488
sg12
S'/QCD_HT500to700_TuneCUETP8M1_13TeV-madgraphMLM-pythia8/RunIISummer16NanoAODv7-PUMoriond17_Nano02Apr2020_102X_mcRun2_asymptotic_v8_ext1-v1/NANOAODSIM'
p159
sg14
F0.03119
sg15
S'/eos/user/e/ecasilar/SMPVJ_Gamma_BJETS/MC/QCD_HT500to700_TuneCUETP8M1_13TeV-madgraphMLM-pythia8/'
p160
ssS'QCD_HT_1000To1500'
p161
(dp162
g8
F1207.0
sg9
F0.0
sg10
F1.166
sg11
I10360193
sg12
S'/QCD_HT1000to1500_TuneCUETP8M1_13TeV-madgraphMLM-pythia8/RunIISummer16NanoAODv7-PUMoriond17_Nano02Apr2020_102X_mcRun2_asymptotic_v8_ext1-v1/NANOAODSIM'
p163
sg14
F0.8285
sg15
S'/eos/user/e/ecasilar/SMPVJ_Gamma_BJETS/MC/QCD_HT1000to1500_TuneCUETP8M1_13TeV-madgraphMLM-pythia8/'
p164
sssS'TTJets'
p165
(dp166
g8
F511.3
sg9
F0.0
sg10
F1.412
sg11
I10199051
sg12
S'/TTJets_TuneCUETP8M1_13TeV-madgraphMLM-pythia8/RunIISummer16NanoAODv7-PUMoriond17_Nano02Apr2020_102X_mcRun2_asymptotic_v8-v1/NANOAODSIM'
p167
sg14
F1.956
sg15
S'/eos/user/e/ecasilar/SMPVJ_Gamma_BJETS/MC/TTJets_TuneCUETP8M1_13TeV-madgraphMLM-pythia8/'
p168
ssS'ST_s_channel'
p169
(dp170
g8
F10.12
sg9
F0.1857
sg10
F0.01334
sg11
I2917199
sg12
S'/ST_s-channel_4f_InclusiveDecays_13TeV-amcatnlo-pythia8/RunIISummer16NanoAODv7-PUMoriond17_Nano02Apr2020_102X_mcRun2_asymptotic_v8-v1/NANOAODSIM'
p171
sg14
F39.05
sg15
S'/eos/user/e/ecasilar/SMPVJ_Gamma_BJETS/MC/ST_s-channel_4f_InclusiveDecays_13TeV-amcatnlo-pythia8/'
p172
ssS'QCD_h1'
p173
(dp174
g8
F964800.0
sg9
F0.0
sg10
F92360.0
sg11
I9497268
sg12
S'/QCD_Pt-15to7000_TuneCUETHS1_FlatP6_13TeV_herwigpp/RunIISummer16NanoAODv7-PUMoriond17_Nano02Apr2020_102X_mcRun2_asymptotic_v8-v1/NANOAODSIM'
p175
sg14
F7.301e-07
sg15
S'/eos/user/e/ecasilar/SMPVJ_Gamma_BJETS/MC/QCD_Pt-15to7000_TuneCUETHS1_FlatP6_13TeV_herwigpp/'
p176
ssS'QCD_h2'
p177
(dp178
g8
F309800000.0
sg9
F0.0
sg10
F7932000.0
sg11
I9865688
sg12
S'/QCD_Pt-15to7000_TuneCUETHS1_Flat_13TeV_herwigpp/RunIISummer16NanoAODv7-PUMoriond17_Nano02Apr2020_102X_mcRun2_asymptotic_v8-v1/NANOAODSIM'
p179
sg14
F7.301e-07
sg15
S'/eos/user/e/ecasilar/SMPVJ_Gamma_BJETS/MC/QCD_Pt-15to7000_TuneCUETHS1_Flat_13TeV_herwigpp/'
p180
ssS'ST_tW_top'
p181
(dp182
g8
F38.09
sg9
F0.0
sg10
F0.0305
sg11
I6952830
sg12
S'/ST_tW_top_5f_inclusiveDecays_13TeV-powheg-pythia8_TuneCUETP8M1/RunIISummer16NanoAODv7-PUMoriond17_Nano02Apr2020_102X_mcRun2_asymptotic_v8_ext1-v1/NANOAODSIM'
p183
sg14
F26.25
sg15
S'/eos/user/e/ecasilar/SMPVJ_Gamma_BJETS/MC/ST_tW_top_5f_inclusiveDecays_13TeV-powheg-pythia8_TuneCUETP8M1/'
p184
sssS'data'
p185
(dp186
S'SinglePhoton'
p187
(dp188
S'C'
p189
(dp190
g8
I1
sg9
F0.0
sg10
I1
sg15
S'/eos/user/e/ecasilar/SMPVJ_Gamma_BJETS/data/SinglePhoton/Run2016C_02Apr2020-v1'
p191
sg14
I1
sg12
S'/SinglePhoton/Run2016C-02Apr2020-v1/NANOAOD'
p192
ssS'B'
p193
(dp194
g8
I1
sg9
F0.0
sg10
I1
sg15
S'/eos/user/e/ecasilar/SMPVJ_Gamma_BJETS/data/SinglePhoton/Run2016B_02Apr2020-v1'
p195
sg14
I1
sg12
S'/SinglePhoton/Run2016B-02Apr2020_ver2-v1/NANOAOD'
p196
ssS'E'
p197
(dp198
g8
I1
sg9
F0.0
sg10
I1
sg15
S'/eos/user/e/ecasilar/SMPVJ_Gamma_BJETS/data/SinglePhoton/Run2016E_02Apr2020-v1'
p199
sg14
I1
sg12
S'/SinglePhoton/Run2016E-02Apr2020-v1/NANOAOD'
p200
ssS'D'
p201
(dp202
g8
I1
sg9
F0.0
sg10
I1
sg15
S'/eos/user/e/ecasilar/SMPVJ_Gamma_BJETS/data/SinglePhoton/Run2016D_02Apr2020-v1'
p203
sg14
I1
sg12
S'/SinglePhoton/Run2016D-02Apr2020-v1/NANOAOD'
p204
ssS'G'
p205
(dp206
g8
I1
sg9
F0.0
sg10
I1
sg15
S'/eos/user/e/ecasilar/SMPVJ_Gamma_BJETS/data/SinglePhoton/Run2016G_02Apr2020-v1'
p207
sg14
I1
sg12
S'/SinglePhoton/Run2016G-02Apr2020-v1/NANOAOD'
p208
ssS'F'
p209
(dp210
g8
I1
sg9
F0.0
sg10
I1
sg15
S'/eos/user/e/ecasilar/SMPVJ_Gamma_BJETS/data/SinglePhoton/Run2016F_02Apr2020-v1'
p211
sg14
I1
sg12
S'/SinglePhoton/Run2016F-02Apr2020-v1/NANOAOD'
p212
ssS'H'
p213
(dp214
g8
I1
sg9
F0.0
sg10
I1
sg15
S'/eos/user/e/ecasilar/SMPVJ_Gamma_BJETS/data/SinglePhoton/Run2016H_02Apr2020-v1'
p215
sg14
I1
sg12
S'/SinglePhoton/Run2016H-02Apr2020-v1/NANOAOD'
p216
sssS'SingleMuon'
p217
(dp218
g189
(dp219
g8
I1
sg9
F0.0
sg10
I1
sg15
S'/eos/user/e/ecasilar/SMPVJ_Gamma_BJETS/data/SingleMuon/Run2016C_02Apr2020-v1'
p220
sg14
I1
sg12
S'/SingleMuon/Run2016C-02Apr2020-v1/NANOAOD'
p221
ssg193
(dp222
g8
I1
sg9
F0.0
sg10
I1
sg15
S'/eos/user/e/ecasilar/SMPVJ_Gamma_BJETS/data/SingleMuon/Run2016B_02Apr2020-v1'
p223
sg14
I1
sg12
S'/SingleMuon/Run2016B-02Apr2020_ver2-v1/NANOAOD'
p224
ssg197
(dp225
g8
I1
sg9
F0.0
sg10
I1
sg15
S'/eos/user/e/ecasilar/SMPVJ_Gamma_BJETS/data/SingleMuon/Run2016E_02Apr2020-v1'
p226
sg14
I1
sg12
S'/SingleMuon/Run2016E-02Apr2020-v1/NANOAOD'
p227
ssg201
(dp228
g8
I1
sg9
F0.0
sg10
I1
sg15
S'/eos/user/e/ecasilar/SMPVJ_Gamma_BJETS/data/SingleMuon/Run2016D_02Apr2020-v1'
p229
sg14
I1
sg12
S'/SingleMuon/Run2016D-02Apr2020-v1/NANOAOD'
p230
ssg205
(dp231
g8
I1
sg9
F0.0
sg10
I1
sg15
S'/eos/user/e/ecasilar/SMPVJ_Gamma_BJETS/data/SingleMuon/Run2016G_02Apr2020-v1'
p232
sg14
I1
sg12
S'/SingleMuon/Run2016G-02Apr2020-v1/NANOAOD'
p233
ssg209
(dp234
g8
I1
sg9
F0.0
sg10
I1
sg15
S'/eos/user/e/ecasilar/SMPVJ_Gamma_BJETS/data/SingleMuon/Run2016F_02Apr2020-v1'
p235
sg14
I1
sg12
S'/SingleMuon/Run2016F-02Apr2020-v1/NANOAOD'
p236
ssg213
(dp237
g8
I1
sg9
F0.0
sg10
I1
sg15
S'/eos/user/e/ecasilar/SMPVJ_Gamma_BJETS/data/SingleMuon/Run2016H_02Apr2020-v1'
p238
sg14
I1
sg12
S'/SingleMuon/Run2016H-02Apr2020-v1/NANOAOD'
p239
sssss.