(dp0
I2016
(dp1
S'signal'
p2
(dp3
S'G1Jet_LHEGpt'
p4
(dp5
S'G1Jet_LHEGpt_250To400_2016'
p6
(dp7
S'xsec'
p8
F26.99
sS'fraction_negative_weight'
p9
F0.1697
sS'xsec_unc'
p10
F0.08345
sS'nevents'
p11
I3004010
sS'das_path'
p12
S'/G1Jet_LHEGpT-250To400_TuneCP5_13TeV-amcatnlo-pythia8/RunIISummer20UL16NanoAODv9-106X_mcRun2_asymptotic_v17-v1/NANOAODSIM'
p13
sS'equivalent_lumi'
p14
F17.17
sS'dir'
p15
S'/eos/cms/store/group/phys_smp/AnalysisFramework/Baobab/Metin/gammaplusb/2016/UL_MC/G1Jet/G1Jet_LHEGpT-250To400_TuneCP5_13TeV-amcatnlo-pythia8/'
p16
ssS'G1Jet_LHEGpt_400To675_2016'
p17
(dp18
g8
F3.395
sg9
F0.1638
sg10
F0.007753
sg11
I1000053
sg12
S'/G1Jet_LHEGpT-400To675_TuneCP5_13TeV-amcatnlo-pythia8/RunIISummer20UL16NanoAODv9-106X_mcRun2_asymptotic_v17-v1/NANOAODSIM'
p19
sg14
F133.2
sg15
S'/eos/cms/store/group/phys_smp/AnalysisFramework/Baobab/Metin/gammaplusb/2016/UL_MC/G1Jet/G1Jet_LHEGpT-400To675_TuneCP5_13TeV-amcatnlo-pythia8/'
p20
ssS'G1Jet_LHEGpt_150To250_2016'
p21
(dp22
g8
F226.2
sg9
F0.1738
sg10
F0.6433
sg11
I5862211
sg12
S'/G1Jet_LHEGpT-150To250_TuneCP5_13TeV-amcatnlo-pythia8/RunIISummer20UL16NanoAODv9-106X_mcRun2_asymptotic_v17-v1/NANOAODSIM'
p23
sg14
F1.882
sg15
S'/eos/cms/store/group/phys_smp/AnalysisFramework/Baobab/Metin/gammaplusb/2016/UL_MC/G1Jet/G1Jet_LHEGpT-150To250_TuneCP5_13TeV-amcatnlo-pythia8/'
p24
ssS'G1Jet_LHEGpt_675ToInf_2016'
p25
(dp26
g8
F0.2478
sg9
F0.1584
sg10
F0.0005027
sg11
I249174
sg12
S'/G1Jet_LHEGpT-675ToInf_TuneCP5_13TeV-amcatnlo-pythia8/RunIISummer20UL16NanoAODv9-106X_mcRun2_asymptotic_v17-v1/NANOAODSIM'
p27
sg14
F1883.0
sg15
S'/eos/cms/store/group/phys_smp/AnalysisFramework/Baobab/Metin/gammaplusb/2016/UL_MC/G1Jet/G1Jet_LHEGpT-675ToInf_TuneCP5_13TeV-amcatnlo-pythia8/'
p28
sssS'GJets_DR_0p4_HT_PreVFP'
p29
(dp30
S'GJets_DR_0p4_HT_PreVFP_100To200_2016'
p31
(dp32
g8
F5034.0
sg9
F0.0
sg10
F14.69
sg11
I5069975
sg12
S'/GJets_DR_0p4_HT-100To200_TuneCP5_13TeV-madgraphMLM-pythia8/RunIISummer20UL16NanoAODAPVv9-106X_mcRun2_asymptotic_preVFP_v11-v2/NANOAODSIM'
p33
sg14
F0.1986
sg15
S'/eos/cms/store/group/phys_smp/AnalysisFramework/Baobab/Metin/gammaplusb/2016/UL_MC/GJets_HT_preVFP/GJets_DR-0p4_HT-100To200_TuneCP5_13TeV-madgraphMLM-pythia8/'
p34
ssS'GJets_DR_0p4_HT_PreVFP_400To600_2016'
p35
(dp36
g8
F126.2
sg9
F0.0
sg10
F0.03779
sg11
I4116285
sg12
S'/GJets_DR_0p4_HT-400To600_TuneCP5_13TeV-madgraphMLM-pythia8/RunIISummer20UL16NanoAODAPVv9-106X_mcRun2_asymptotic_preVFP_v11-v2/NANOAODSIM'
p37
sg14
F7.921
sg15
S'/eos/cms/store/group/phys_smp/AnalysisFramework/Baobab/Metin/gammaplusb/2016/UL_MC/GJets_HT_preVFP/GJets_DR-0p4_HT-400To600_TuneCP5_13TeV-madgraphMLM-pythia8/'
p38
ssS'GJets_DR_0p4_HT_PreVFP_200To400_2016'
p39
(dp40
g8
F1129.0
sg9
F0.0
sg10
F3.338
sg11
I14620395
sg12
S'/GJets_DR_0p4_HT-200To400_TuneCP5_13TeV-madgraphMLM-pythia8/RunIISummer20UL16NanoAODAPVv9-106X_mcRun2_asymptotic_preVFP_v11-v2/NANOAODSIM'
p41
sg14
F0.8859
sg15
S'/eos/cms/store/group/phys_smp/AnalysisFramework/Baobab/Metin/gammaplusb/2016/UL_MC/GJets_HT_preVFP/GJets_DR-0p4_HT-200To400_TuneCP5_13TeV-madgraphMLM-pythia8/'
p42
ssS'GJets_DR_0p4_HT_PreVFP_600ToInf_2016'
p43
(dp44
g8
F41.31
sg9
F0.0
sg10
F0.1242
sg11
I3936783
sg12
S'/GJets_DR_0p4_HT-600ToInf_TuneCP5_13TeV-madgraphMLM-pythia8/RunIISummer20UL16NanoAODAPVv9-106X_mcRun2_asymptotic_preVFP_v11-v2/NANOAODSIM'
p45
sg14
F24.21
sg15
S'/eos/cms/store/group/phys_smp/AnalysisFramework/Baobab/Metin/gammaplusb/2016/UL_MC/GJets_HT_preVFP/GJets_DR-0p4_HT-600ToInf_TuneCP5_13TeV-madgraphMLM-pythia8/'
p46
sssS'GJets_DR_0p4_HT'
p47
(dp48
S'GJets_DR_0p4_HT_100To200_2016'
p49
(dp50
g8
F5034.0
sg9
F0.0
sg10
F14.69
sg11
I4421327
sg12
S'/GJets_DR_0p4_HT-100To200_TuneCP5_13TeV-madgraphMLM-pythia8/RunIISummer20UL16NanoAODv9-106X_mcRun2_asymptotic_v17-v2/NANOAODSIM'
p51
sg14
F0.1986
sg15
S'/eos/cms/store/group/phys_smp/AnalysisFramework/Baobab/Metin/gammaplusb/2016/UL_MC/GJets_HT_postVFP/GJets_DR-0p4_HT-100To200_TuneCP5_13TeV-madgraphMLM-pythia8/'
p52
ssS'GJets_DR_0p4_HT_600ToInf_2016'
p53
(dp54
g8
F41.31
sg9
F0.0
sg10
F0.1242
sg11
I3427780
sg12
S'/GJets_DR_0p4_HT-600ToInf_TuneCP5_13TeV-madgraphMLM-pythia8/RunIISummer20UL16NanoAODv9-106X_mcRun2_asymptotic_v17-v2/NANOAODSIM'
p55
sg14
F24.21
sg15
S'/eos/cms/store/group/phys_smp/AnalysisFramework/Baobab/Metin/gammaplusb/2016/UL_MC/GJets_HT_postVFP/GJets_DR-0p4_HT-600ToInf_TuneCP5_13TeV-madgraphMLM-pythia8/'
p56
ssS'GJets_DR_0p4_HT_200To400_2016'
p57
(dp58
g8
F1129.0
sg9
F0.0
sg10
F3.338
sg11
I13744262
sg12
S'/GJets_DR_0p4_HT-200To400_TuneCP5_13TeV-madgraphMLM-pythia8/RunIISummer20UL16NanoAODv9-106X_mcRun2_asymptotic_v17-v2/NANOAODSIM'
p59
sg14
F0.8859
sg15
S'/eos/cms/store/group/phys_smp/AnalysisFramework/Baobab/Metin/gammaplusb/2016/UL_MC/GJets_HT_postVFP/GJets_DR-0p4_HT-200To400_TuneCP5_13TeV-madgraphMLM-pythia8/'
p60
ssS'GJets_DR_0p4_HT_400To600_2016'
p61
(dp62
g8
F126.2
sg9
F0.0
sg10
F0.03779
sg11
I4124520
sg12
S'/GJets_DR_0p4_HT-400To600_TuneCP5_13TeV-madgraphMLM-pythia8/RunIISummer20UL16NanoAODv9-106X_mcRun2_asymptotic_v17-v2/NANOAODSIM'
p63
sg14
F7.921
sg15
S'/eos/cms/store/group/phys_smp/AnalysisFramework/Baobab/Metin/gammaplusb/2016/UL_MC/GJets_HT_postVFP/GJets_DR-0p4_HT-400To600_TuneCP5_13TeV-madgraphMLM-pythia8/'
p64
sssS'G1Jet_LHEGPt_PreVFP'
p65
(dp66
S'G1Jet_LHEGPt_PreVFP_150To250_2016'
p67
(dp68
g8
F226.2
sg9
F0.1738
sg10
F0.6433
sg11
I5861243
sg12
g23
sg14
F1.882
sg15
S'/eos/cms/store/group/phys_smp/AnalysisFramework/Baobab/Metin/gammaplusb/2016/UL_MC/G1Jet_PreVFP/G1Jet_LHEGpT-150To250_TuneCP5_13TeV-amcatnlo-pythia8/'
p69
ssS'G1Jet_LHEGPt_PreVFP_675ToInf_2016'
p70
(dp71
g8
F0.2478
sg9
F0.1584
sg10
F0.0005027
sg11
I249100
sg12
g27
sg14
F1883.0
sg15
S'/eos/cms/store/group/phys_smp/AnalysisFramework/Baobab/Metin/gammaplusb/2016/UL_MC/G1Jet_PreVFP/G1Jet_LHEGpT-675ToInf_TuneCP5_13TeV-amcatnlo-pythia8/'
p72
ssS'G1Jet_LHEGPt_PreVFP_250To400_2016'
p73
(dp74
g8
F26.99
sg9
F0.1697
sg10
F0.08345
sg11
I2918574
sg12
g13
sg14
F17.17
sg15
S'/eos/cms/store/group/phys_smp/AnalysisFramework/Baobab/Metin/gammaplusb/2016/UL_MC/G1Jet_PreVFP/G1Jet_LHEGpT-250To400_TuneCP5_13TeV-amcatnlo-pythia8/'
p75
ssS'G1Jet_LHEGPt_PreVFP_400To675_2016'
p76
(dp77
g8
F3.395
sg9
F0.1638
sg10
F0.007753
sg11
I999246
sg12
g19
sg14
F133.2
sg15
S'/eos/cms/store/group/phys_smp/AnalysisFramework/Baobab/Metin/gammaplusb/2016/UL_MC/G1Jet_PreVFP/G1Jet_LHEGpT-400To675_TuneCP5_13TeV-amcatnlo-pythia8/'
p78
ssssS'bkg'
p79
(dp80
S'QCD_bEnriched_HT_UL2016_PreVFP'
p81
(dp82
S'QCD_bEnriched_HT_UL2016_PreVFP_2000ToInf'
p83
(dp84
g8
F0.6967
sg9
F0.0
sg10
F0.002099
sg11
I668223
sg12
S'/QCD_bEnriched_HT200toInf_TuneCP5_13TeV-madgraph-pythia8/RunIISummer20UL16NanoAODAPVv9-106X_mcRun2_asymptotic_preVFP_v11-v1/NANOAODSIM'
p85
sg14
F1435.0
sg15
S'/eos/cms/store/group/phys_smp/AnalysisFramework/Baobab/Metin/gammaplusb/2016/UL_MC/QCD_bEnriched_HT_preVFP/QCD_bEnriched_HT2000toInf_TuneCP5_13TeV-madgraph-pythia8/'
p86
ssS'QCD_bEnriched_HT_UL2016_PreVFP_100To200'
p87
(dp88
g8
F1127000.0
sg9
F0.0
sg10
F3241.0
sg11
I17657456
sg12
S'/QCD_bEnriched_HT100to200_TuneCP5_13TeV-madgraph-pythia8/RunIISummer20UL16NanoAODAPVv9-106X_mcRun2_asymptotic_preVFP_v11-v1/NANOAODSIM'
p89
sg14
F0.0008871
sg15
S'/eos/cms/store/group/phys_smp/AnalysisFramework/Baobab/Metin/gammaplusb/2016/UL_MC/QCD_bEnriched_HT_preVFP/QCD_bEnriched_HT100to200_TuneCP5_13TeV-madgraph-pythia8/'
p90
ssS'QCD_bEnriched_HT_UL2016_PreVFP_700To1000'
p91
(dp92
g8
F298.8
sg9
F0.0
sg10
F0.8983
sg11
I979344
sg12
S'/QCD_bEnriched_HT700to1000_TuneCP5_13TeV-madgraph-pythia8/RunIISummer20UL16NanoAODAPVv9-106X_mcRun2_asymptotic_preVFP_v11-v1/NANOAODSIM'
p93
sg14
F3.347
sg15
S'/eos/cms/store/group/phys_smp/AnalysisFramework/Baobab/Metin/gammaplusb/2016/UL_MC/QCD_bEnriched_HT_preVFP/QCD_bEnriched_HT700to1000_TuneCP5_13TeV-madgraph-pythia8/'
p94
ssS'QCD_bEnriched_HT_UL2016_PreVFP_300To500'
p95
(dp96
g8
F16700.0
sg9
F0.0
sg10
F49.74
sg11
I4978755
sg12
S'/QCD_bEnriched_HT300to500_TuneCP5_13TeV-madgraph-pythia8/RunIISummer20UL16NanoAODAPVv9-106X_mcRun2_asymptotic_preVFP_v11-v1/NANOAODSIM'
p97
sg14
F0.05988
sg15
S'/eos/cms/store/group/phys_smp/AnalysisFramework/Baobab/Metin/gammaplusb/2016/UL_MC/QCD_bEnriched_HT_preVFP/QCD_bEnriched_HT300to500_TuneCP5_13TeV-madgraph-pythia8/'
p98
ssS'QCD_bEnriched_HT_UL2016_PreVFP_1000To1500'
p99
(dp100
g8
F46.61
sg9
F0.002946
sg10
F0.2002
sg11
I591966
sg12
S'/QCD_bEnriched_HT1000to1500_TuneCP5_13TeV-madgraph-pythia8/RunIISummer20UL16NanoAODAPVv9-106X_mcRun2_asymptotic_preVFP_v11-v1/NANOAODSIM'
p101
sg14
F21.2
sg15
S'/eos/cms/store/group/phys_smp/AnalysisFramework/Baobab/Metin/gammaplusb/2016/UL_MC/QCD_bEnriched_HT_preVFP/QCD_bEnriched_HT1000to1500_TuneCP5_13TeV-madgraph-pythia8/'
p102
ssS'QCD_bEnriched_HT_UL2016_PreVFP_500To700'
p103
(dp104
g8
F1487.0
sg9
F0.001047
sg10
F4.442
sg11
I4433560
sg12
S'/QCD_bEnriched_HT500to700_TuneCP5_13TeV-madgraph-pythia8/RunIISummer20UL16NanoAODAPVv9-106X_mcRun2_asymptotic_preVFP_v11-v1/NANOAODSIM'
p105
sg14
F0.6699
sg15
S'/eos/cms/store/group/phys_smp/AnalysisFramework/Baobab/Metin/gammaplusb/2016/UL_MC/QCD_bEnriched_HT_preVFP/QCD_bEnriched_HT500to700_TuneCP5_13TeV-madgraph-pythia8/'
p106
ssS'QCD_bEnriched_HT_UL2016_PreVFP_1500To2000'
p107
(dp108
g8
F4.017
sg9
F0.0
sg10
F0.01213
sg11
I675657
sg12
S'/QCD_bEnriched_HT1500to2000_TuneCP5_13TeV-madgraph-pythia8/RunIISummer20UL16NanoAODAPVv9-106X_mcRun2_asymptotic_preVFP_v11-v1/NANOAODSIM'
p109
sg14
F248.9
sg15
S'/eos/cms/store/group/phys_smp/AnalysisFramework/Baobab/Metin/gammaplusb/2016/UL_MC/QCD_bEnriched_HT_preVFP/QCD_bEnriched_HT1500to2000_TuneCP5_13TeV-madgraph-pythia8/'
p110
ssS'QCD_bEnriched_HT_UL2016_PreVFP_200To300'
p111
(dp112
g8
F80220.0
sg9
F0.0
sg10
F235.7
sg11
I8886507
sg12
S'//QCD_bEnriched_HT200to300_TuneCP5_13TeV-madgraph-pythia8/RunIISummer20UL16NanoAODAPVv9-106X_mcRun2_asymptotic_preVFP_v11-v1/NANOAODSIM'
p113
sg14
F0.01247
sg15
S'/eos/cms/store/group/phys_smp/AnalysisFramework/Baobab/Metin/gammaplusb/2016/UL_MC/QCD_bEnriched_HT_preVFP/QCD_bEnriched_HT200to300_TuneCP5_13TeV-madgraph-pythia8/'
p114
sssS'QCD_HT_UL2016_PreVFP'
p115
(dp116
S'QCD_HT_UL2016_PreVFP_200To300'
p117
(dp118
g8
F1553000.0
sg9
F0.0
sg10
F349.9
sg11
I16524587
sg12
S'/QCD_HT200to300_TuneCP5_PSWeights_13TeV-madgraph-pythia8/RunIISummer20UL16NanoAODv9-106X_mcRun2_asymptotic_v17-v1/NANOAODSIM'
p119
sg14
F0.000644
sg15
S'/eos/cms/store/group/phys_smp/AnalysisFramework/Baobab/Metin/gammaplusb/2016/UL_MC/QCD_HT_PreVFP/QCD_HT200to300_TuneCP5_PSWeights_13TeV-madgraph-pythia8/'
p120
ssS'QCD_HT_UL2016_PreVFP_1500To2000'
p121
(dp122
g8
F108.3
sg9
F0.0
sg10
F0.05823
sg11
I3503675
sg12
S'/QCD_HT1500to2000_TuneCP5_PSWeights_13TeV-madgraph-pythia8/RunIISummer20UL16NanoAODv9-106X_mcRun2_asymptotic_v17-v1/NANOAODSIM'
p123
sg14
F9.23
sg15
S'/eos/cms/store/group/phys_smp/AnalysisFramework/Baobab/Metin/gammaplusb/2016/UL_MC/QCD_HT_PreVFP/QCD_HT1500to2000_TuneCP5_PSWeights_13TeV-madgraph-pythia8/'
p124
ssS'QCD_HT_UL2016_PreVFP_300To500'
p125
(dp126
g8
F324500.0
sg9
F0.0
sg10
F75.53
sg11
I15183920
sg12
S'/QCD_HT300to500_TuneCP5_PSWeights_13TeV-madgraph-pythia8/RunIISummer20UL16NanoAODv9-106X_mcRun2_asymptotic_v17-v1/NANOAODSIM'
p127
sg14
F0.003082
sg15
S'/eos/cms/store/group/phys_smp/AnalysisFramework/Baobab/Metin/gammaplusb/2016/UL_MC/QCD_HT_PreVFP/QCD_HT300to500_TuneCP5_PSWeights_13TeV-madgraph-pythia8/'
p128
ssS'QCD_HT_UL2016_PreVFP_700To1000'
p129
(dp130
g8
F6437.0
sg9
F0.0
sg10
F1.658
sg11
I15808790
sg12
S'/QCD_HT700to1000_TuneCP5_PSWeights_13TeV-madgraph-pythia8/RunIISummer20UL16NanoAODv9-106X_mcRun2_asymptotic_v17-v1/NANOAODSIM'
p131
sg14
F0.1554
sg15
S'/eos/cms/store/group/phys_smp/AnalysisFramework/Baobab/Metin/gammaplusb/2016/UL_MC/QCD_HT_PreVFP/QCD_HT700to1000_TuneCP5_PSWeights_13TeV-madgraph-pythia8/'
p132
ssS'QCD_HT_UL2016_PreVFP_100To200'
p133
(dp134
g8
F23650000.0
sg9
F0.0
sg10
F4467.0
sg11
I26312661
sg12
S'/QCD_HT100to200_TuneCP5_PSWeights_13TeV-madgraph-pythia8/RunIISummer20UL16NanoAODv9-106X_mcRun2_asymptotic_v17-v1/NANOAODSIM'
p135
sg14
F4.229e-05
sg15
S'/eos/cms/store/group/phys_smp/AnalysisFramework/Baobab/Metin/gammaplusb/2016/UL_MC/QCD_HT_PreVFP/QCD_HT100to200_TuneCP5_PSWeights_13TeV-madgraph-pythia8/'
p136
ssS'QCD_HT_UL2016_PreVFP_500To700'
p137
(dp138
g8
F30280.0
sg9
F0.0
sg10
F7.439
sg11
I15775001
sg12
S'/QCD_HT500to700_TuneCP5_PSWeights_13TeV-madgraph-pythia8/RunIISummer20UL16NanoAODv9-106X_mcRun2_asymptotic_v17-v1/NANOAODSIM'
p139
sg14
F0.03303
sg15
S'/eos/cms/store/group/phys_smp/AnalysisFramework/Baobab/Metin/gammaplusb/2016/UL_MC/QCD_HT_PreVFP/QCD_HT500to700_TuneCP5_PSWeights_13TeV-madgraph-pythia8/'
p140
ssS'QCD_HT_UL2016_PreVFP_50To100'
p141
(dp142
g8
F186000000.0
sg9
F0.0
sg10
F48970.0
sg11
I12233035
sg12
S'/QCD_HT50to100_TuneCP5_PSWeights_13TeV-madgraph-pythia8/RunIISummer20UL16NanoAODv9-106X_mcRun2_asymptotic_v17-v1/NANOAODSIM'
p143
sg14
F5.377e-06
sg15
S'/eos/cms/store/group/phys_smp/AnalysisFramework/Baobab/Metin/gammaplusb/2016/UL_MC/QCD_HT_PreVFP/QCD_HT50to100_TuneCP5_PSWeights_13TeV-madgraph-pythia8/'
p144
ssS'QCD_HT_UL2016_PreVFP_2000ToInf'
p145
(dp146
g8
F22.04
sg9
F0.0
sg10
F0.0156
sg11
I1629000
sg12
S'/QCD_HT2000toInf_TuneCP5_PSWeights_13TeV-madgraph-pythia8/RunIISummer20UL16NanoAODv9-106X_mcRun2_asymptotic_v17-v1/NANOAODSIM'
p147
sg14
F45.38
sg15
S'/eos/cms/store/group/phys_smp/AnalysisFramework/Baobab/Metin/gammaplusb/2016/UL_MC/QCD_HT_PreVFP/QCD_HT2000toInf_TuneCP5_PSWeights_13TeV-madgraph-pythia8/'
p148
ssS'QCD_HT_UL2016_PreVFP_1000To1500'
p149
(dp150
g8
F1122.0
sg9
F0.0
sg10
F0.5173
sg11
I4773503
sg12
S'/QCD_HT1000to1500_TuneCP5_PSWeights_13TeV-madgraph-pythia8/RunIISummer20UL16NanoAODv9-106X_mcRun2_asymptotic_v17-v1/NANOAODSIM'
p151
sg14
F0.8911
sg15
S'/eos/cms/store/group/phys_smp/AnalysisFramework/Baobab/Metin/gammaplusb/2016/UL_MC/QCD_HT_PreVFP/QCD_HT1000to1500_TuneCP5_PSWeights_13TeV-madgraph-pythia8/'
p152
sssS'QCD_bEnriched_HT_UL2016'
p153
(dp154
S'QCD_bEnriched_HT_UL2016_100To200'
p155
(dp156
g8
F1127000.0
sg9
F0.0
sg10
F3241.0
sg11
I19202473
sg12
S'/QCD_bEnriched_HT100to200_TuneCP5_13TeV-madgraph-pythia8/RunIISummer20UL16NanoAODv9-106X_mcRun2_asymptotic_v17-v1/NANOAODSIM'
p157
sg14
F0.0008871
sg15
S'/eos/cms/store/group/phys_smp/AnalysisFramework/Baobab/Metin/gammaplusb/2016/UL_MC/QCD_bEnriched_HT_postVFP/QCD_bEnriched_HT100to200_TuneCP5_13TeV-madgraph-pythia8/'
p158
ssS'QCD_bEnriched_HT_UL2016_300To500'
p159
(dp160
g8
F16700.0
sg9
F0.0
sg10
F49.74
sg11
I5612374
sg12
S'/QCD_bEnriched_HT300to500_TuneCP5_13TeV-madgraph-pythia8/RunIISummer20UL16NanoAODv9-106X_mcRun2_asymptotic_v17-v1/NANOAODSIM'
p161
sg14
F0.05988
sg15
S'/eos/cms/store/group/phys_smp/AnalysisFramework/Baobab/Metin/gammaplusb/2016/UL_MC/QCD_bEnriched_HT_postVFP/QCD_bEnriched_HT300to500_TuneCP5_13TeV-madgraph-pythia8/'
p162
ssS'QCD_bEnriched_HT_UL2016_200To300'
p163
(dp164
g8
F80220.0
sg9
F0.0
sg10
F235.7
sg11
I9196799
sg12
S'/QCD_bEnriched_HT200to300_TuneCP5_13TeV-madgraph-pythia8/RunIISummer20UL16NanoAODv9-106X_mcRun2_asymptotic_v17-v1/NANOAODSIM'
p165
sg14
F0.01247
sg15
S'/eos/cms/store/group/phys_smp/AnalysisFramework/Baobab/Metin/gammaplusb/2016/UL_MC/QCD_bEnriched_HT_postVFP/QCD_bEnriched_HT200to300_TuneCP5_13TeV-madgraph-pythia8/'
p166
ssS'QCD_bEnriched_HT_UL2016_1500To2000'
p167
(dp168
g8
F4.017
sg9
F0.0
sg10
F0.01213
sg11
I698469
sg12
S'/QCD_bEnriched_HT1500to2000_TuneCP5_13TeV-madgraph-pythia8/RunIISummer20UL16NanoAODv9-106X_mcRun2_asymptotic_v17-v1/NANOAODSIM'
p169
sg14
F248.9
sg15
S'/eos/cms/store/group/phys_smp/AnalysisFramework/Baobab/Metin/gammaplusb/2016/UL_MC/QCD_bEnriched_HT_postVFP/QCD_bEnriched_HT1500to2000_TuneCP5_13TeV-madgraph-pythia8/'
p170
ssS'QCD_bEnriched_HT_UL2016_1000To1500'
p171
(dp172
g8
F46.61
sg9
F0.002946
sg10
F0.2002
sg11
I663922
sg12
S'/QCD_bEnriched_HT1000to1500_TuneCP5_13TeV-madgraph-pythia8/RunIISummer20UL16NanoAODv9-106X_mcRun2_asymptotic_v17-v1/NANOAODSIM'
p173
sg14
F21.2
sg15
S'/eos/cms/store/group/phys_smp/AnalysisFramework/Baobab/Metin/gammaplusb/2016/UL_MC/QCD_bEnriched_HT_postVFP/QCD_bEnriched_HT1000to1500_TuneCP5_13TeV-madgraph-pythia8/'
p174
ssS'QCD_bEnriched_HT_UL2016_500To700'
p175
(dp176
g8
F1487.0
sg9
F0.001047
sg10
F4.442
sg11
I4616176
sg12
S'/QCD_bEnriched_HT500to700_TuneCP5_13TeV-madgraph-pythia8/RunIISummer20UL16NanoAODv9-106X_mcRun2_asymptotic_v17-v1/NANOAODSIM'
p177
sg14
F0.6699
sg15
S'/eos/cms/store/group/phys_smp/AnalysisFramework/Baobab/Metin/gammaplusb/2016/UL_MC/QCD_bEnriched_HT_postVFP/QCD_bEnriched_HT500to700_TuneCP5_13TeV-madgraph-pythia8/'
p178
ssS'QCD_bEnriched_HT_UL2016_700To1000'
p179
(dp180
g8
F298.8
sg9
F0.0
sg10
F0.8983
sg11
I903293
sg12
S'/QCD_bEnriched_HT700to1000_TuneCP5_13TeV-madgraph-pythia8/RunIISummer20UL16NanoAODv9-106X_mcRun2_asymptotic_v17-v1/NANOAODSIM'
p181
sg14
F3.347
sg15
S'/eos/cms/store/group/phys_smp/AnalysisFramework/Baobab/Metin/gammaplusb/2016/UL_MC/QCD_bEnriched_HT_postVFP/QCD_bEnriched_HT700to1000_TuneCP5_13TeV-madgraph-pythia8/'
p182
ssS'QCD_bEnriched_HT_UL2016_2000ToInf'
p183
(dp184
g8
F0.6967
sg9
F0.0
sg10
F0.002099
sg11
I684942
sg12
S'/QCD_bEnriched_HT2000toInf_TuneCP5_13TeV-madgraph-pythia8/RunIISummer20UL16NanoAODv9-106X_mcRun2_asymptotic_v17-v1/NANOAODSIM'
p185
sg14
F1435.0
sg15
S'/eos/cms/store/group/phys_smp/AnalysisFramework/Baobab/Metin/gammaplusb/2016/UL_MC/QCD_bEnriched_HT_postVFP/QCD_bEnriched_HT2000toInf_TuneCP5_13TeV-madgraph-pythia8/'
p186
sssS'QCD_HT_UL2016'
p187
(dp188
S'QCD_HT_UL2016_300To500'
p189
(dp190
g8
F324500.0
sg9
F0.0
sg10
F75.53
sg11
I16747056
sg12
g127
sg14
F0.003082
sg15
S'/eos/cms/store/group/phys_smp/AnalysisFramework/Baobab/Metin/gammaplusb/2016/UL_MC/QCD_HT/QCD_HT300to500_TuneCP5_PSWeights_13TeV-madgraph-pythia8/'
p191
ssS'QCD_HT_UL2016_200To300'
p192
(dp193
g8
F1553000.0
sg9
F0.0
sg10
F349.9
sg11
I17569141
sg12
g119
sg14
F0.000644
sg15
S'/eos/cms/store/group/phys_smp/AnalysisFramework/Baobab/Metin/gammaplusb/2016/UL_MC/QCD_HT/QCD_HT200to300_TuneCP5_PSWeights_13TeV-madgraph-pythia8/'
p194
ssS'QCD_HT_UL2016_2000ToInf'
p195
(dp196
g8
F22.04
sg9
F0.0
sg10
F0.0156
sg11
I1847781
sg12
g147
sg14
F45.38
sg15
S'/eos/cms/store/group/phys_smp/AnalysisFramework/Baobab/Metin/gammaplusb/2016/UL_MC/QCD_HT/QCD_HT2000toInf_TuneCP5_PSWeights_13TeV-madgraph-pythia8/'
p197
ssS'QCD_HT_UL2016_1500To2000'
p198
(dp199
g8
F108.3
sg9
F0.0
sg10
F0.05823
sg11
I3003707
sg12
g123
sg14
F9.23
sg15
S'/eos/cms/store/group/phys_smp/AnalysisFramework/Baobab/Metin/gammaplusb/2016/UL_MC/QCD_HT/QCD_HT1500to2000_TuneCP5_PSWeights_13TeV-madgraph-pythia8/'
p200
ssS'QCD_HT_UL2016_50To100'
p201
(dp202
g8
F186000000.0
sg9
F0.0
sg10
F48970.0
sg11
I11197186
sg12
g143
sg14
F5.377e-06
sg15
S'/eos/cms/store/group/phys_smp/AnalysisFramework/Baobab/Metin/gammaplusb/2016/UL_MC/QCD_HT/QCD_HT50to100_TuneCP5_PSWeights_13TeV-madgraph-pythia8/'
p203
ssS'QCD_HT_UL2016_700To1000'
p204
(dp205
g8
F6437.0
sg9
F0.0
sg10
F1.658
sg11
I13750537
sg12
g131
sg14
F0.1554
sg15
S'/eos/cms/store/group/phys_smp/AnalysisFramework/Baobab/Metin/gammaplusb/2016/UL_MC/QCD_HT/QCD_HT700to1000_TuneCP5_PSWeights_13TeV-madgraph-pythia8/'
p206
ssS'QCD_HT_UL2016_1000To1500'
p207
(dp208
g8
F1122.0
sg9
F0.0
sg10
F0.5173
sg11
I4365993
sg12
g151
sg14
F0.8911
sg15
S'/eos/cms/store/group/phys_smp/AnalysisFramework/Baobab/Metin/gammaplusb/2016/UL_MC/QCD_HT/QCD_HT1000to1500_TuneCP5_PSWeights_13TeV-madgraph-pythia8/'
p209
ssS'QCD_HT_UL2016_500To700'
p210
(dp211
g8
F30280.0
sg9
F0.0
sg10
F7.439
sg11
I14212819
sg12
g139
sg14
F0.03303
sg15
S'/eos/cms/store/group/phys_smp/AnalysisFramework/Baobab/Metin/gammaplusb/2016/UL_MC/QCD_HT/QCD_HT500to700_TuneCP5_PSWeights_13TeV-madgraph-pythia8/'
p212
ssS'QCD_HT_UL2016_100To200'
p213
(dp214
g8
F23650000.0
sg9
F0.0
sg10
F4467.0
sg11
I23717410
sg12
g135
sg14
F4.229e-05
sg15
S'/eos/cms/store/group/phys_smp/AnalysisFramework/Baobab/Metin/gammaplusb/2016/UL_MC/QCD_HT/QCD_HT100to200_TuneCP5_PSWeights_13TeV-madgraph-pythia8/'
p215
ssssS'data'
p216
(dp217
S'SinglePhoton_UL'
p218
(dp219
S'F_noHIPM'
p220
(dp221
g8
I1
sg9
F0.0
sg10
I1
sg15
S'/eos/cms/store/group/phys_smp/AnalysisFramework/Baobab/Metin/gammaplusb/2016/data/SinglePhoton/UL/run2016F_noHIPM/'
p222
sg14
I1
sg12
S'/SinglePhoton/Run2016F-UL2016_MiniAODv2_NanoAODv9-v1/NANOAOD'
p223
ssS'C'
p224
(dp225
g8
I1
sg9
F0.0
sg10
I1
sg15
S'/eos/cms/store/group/phys_smp/AnalysisFramework/Baobab/Metin/gammaplusb/2016/data/SinglePhoton/UL/Run2016C/'
p226
sg14
I1
sg12
S'/SinglePhoton/Run2016C-HIPM_UL2016_MiniAODv2_NanoAODv9-v1/NANOAOD'
p227
ssS'E'
p228
(dp229
g8
I1
sg9
F0.0
sg10
I1
sg15
S'/eos/cms/store/group/phys_smp/AnalysisFramework/Baobab/Metin/gammaplusb/2016/data/SinglePhoton/UL/Run2016E/'
p230
sg14
I1
sg12
S'/SinglePhoton/Run2016E-HIPM_UL2016_MiniAODv2_NanoAODv9-v1/NANOAOD'
p231
ssS'D'
p232
(dp233
g8
I1
sg9
F0.0
sg10
I1
sg15
S'/eos/cms/store/group/phys_smp/AnalysisFramework/Baobab/Metin/gammaplusb/2016/data/SinglePhoton/UL/Run2016D/'
p234
sg14
I1
sg12
S'/SinglePhoton/Run2016D-HIPM_UL2016_MiniAODv2_NanoAODv9-v1/NANOAOD'
p235
ssS'G'
p236
(dp237
g8
I1
sg9
F0.0
sg10
I1
sg15
S'/eos/cms/store/group/phys_smp/AnalysisFramework/Baobab/Metin/gammaplusb/2016/data/SinglePhoton/UL/Run2016G/'
p238
sg14
I1
sg12
S'/SinglePhoton/Run2016G-UL2016_MiniAODv2_NanoAODv9-v2/NANOAOD'
p239
ssS'F'
p240
(dp241
g8
I1
sg9
F0.0
sg10
I1
sg15
S'/eos/cms/store/group/phys_smp/AnalysisFramework/Baobab/Metin/gammaplusb/2016/data/SinglePhoton/UL/Run2016F/'
p242
sg14
I1
sg12
S'/SinglePhoton/Run2016F-HIPM_UL2016_MiniAODv2_NanoAODv9-v1/NANOAOD'
p243
ssS'B_ver2'
p244
(dp245
g8
I1
sg9
F0.0
sg10
I1
sg15
S'/eos/cms/store/group/phys_smp/AnalysisFramework/Baobab/Metin/gammaplusb/2016/data/SinglePhoton/UL/B_ver2/'
p246
sg14
I1
sg12
S'/SinglePhoton/Run2016B-ver2_HIPM_UL2016_MiniAODv2_NanoAODv9-v1/NANOAOD'
p247
ssS'H'
p248
(dp249
g8
I1
sg9
F0.0
sg10
I1
sg15
S'/eos/cms/store/group/phys_smp/AnalysisFramework/Baobab/Metin/gammaplusb/2016/data/SinglePhoton/UL/Run2016H/'
p250
sg14
I1
sg12
S'/SinglePhoton/Run2016H-UL2016_MiniAODv2_NanoAODv9-v2/NANOAOD'
p251
ssS'B_ver1'
p252
(dp253
g8
I1
sg9
F0.0
sg10
I1
sg15
S'/eos/cms/store/group/phys_smp/AnalysisFramework/Baobab/Metin/gammaplusb/2016/data/SinglePhoton/UL/B_ver1/'
p254
sg14
I1
sg12
S'/SinglePhoton/Run2016B-ver1_HIPM_UL2016_MiniAODv2_NanoAODv9-v1/NANOAOD'
p255
sssssI2017
(dp256
g2
(dp257
g4
(dp258
S'G1Jet_LHEGpt_250To400_2017'
p259
(dp260
g8
F26.99
sg9
F0.1697
sg10
F0.08345
sg11
I5994569
sg12
g13
sg14
F17.17
sg15
S'/eos/cms/store/group/phys_smp/AnalysisFramework/Baobab/Metin/gammaplusb/2017/UL_MC/G1Jet/G1Jet_LHEGpT-250To400_TuneCP5_13TeV-amcatnlo-pythia8/'
p261
ssS'G1Jet_LHEGpt_675ToInf_2017'
p262
(dp263
g8
F0.2478
sg9
F0.1584
sg10
F0.0005027
sg11
I498411
sg12
g27
sg14
F1883.0
sg15
S'/eos/cms/store/group/phys_smp/AnalysisFramework/Baobab/Metin/gammaplusb/2017/UL_MC/G1Jet/G1Jet_LHEGpT-675ToInf_TuneCP5_13TeV-amcatnlo-pythia8/'
p264
ssS'G1Jet_LHEGpt_400To675_2017'
p265
(dp266
g8
F3.395
sg9
F0.1638
sg10
F0.007753
sg11
I1999564
sg12
g19
sg14
F133.2
sg15
S'/eos/cms/store/group/phys_smp/AnalysisFramework/Baobab/Metin/gammaplusb/2017/UL_MC/G1Jet/G1Jet_LHEGpT-400To675_TuneCP5_13TeV-amcatnlo-pythia8/'
p267
ssS'G1Jet_LHEGpt_150To250_2017'
p268
(dp269
g8
F226.2
sg9
F0.1738
sg10
F0.6433
sg11
I11616288
sg12
g23
sg14
F1.882
sg15
S'/eos/cms/store/group/phys_smp/AnalysisFramework/Baobab/Metin/gammaplusb/2017/UL_MC/G1Jet/G1Jet_LHEGpT-150To250_TuneCP5_13TeV-amcatnlo-pythia8/'
p270
sssg47
(dp271
S'GJets_DR_0p4_HT_100To200_2017'
p272
(dp273
g8
F5034.0
sg9
F0.0
sg10
F14.69
sg11
I10034997
sg12
S'/GJets_DR_0p4_HT-100To200_TuneCP5_13TeV-madgraphMLM-pythia8/RunIISummer20UL17NanoAODv9-106X_mc2017_realistic_v9-v1/NANOAODSIM'
p274
sg14
F0.1986
sg15
S'/eos/cms/store/group/phys_smp/AnalysisFramework/Baobab/Metin/gammaplusb/2017/UL_MC/GJets_HT/GJets_DR-0p4_HT-100To200_TuneCP5_13TeV-madgraphMLM-pythia8/'
p275
ssS'GJets_DR_0p4_HT_600ToInf_2017'
p276
(dp277
g8
F41.31
sg9
F0.0
sg10
F0.1242
sg11
I8330226
sg12
S'/GJets_DR_0p4_HT-600ToInf_TuneCP5_13TeV-madgraphMLM-pythia8/RunIISummer20UL17NanoAODv9-106X_mc2017_realistic_v9-v1/NANOAODSIM'
p278
sg14
F24.21
sg15
S'/eos/cms/store/group/phys_smp/AnalysisFramework/Baobab/Metin/gammaplusb/2017/UL_MC/GJets_HT/GJets_DR-0p4_HT-600ToInf_TuneCP5_13TeV-madgraphMLM-pythia8/'
p279
ssS'GJets_DR_0p4_HT_200To400_2017'
p280
(dp281
g8
F1129.0
sg9
F0.0
sg10
F3.338
sg11
I33884844
sg12
S'/GJets_DR_0p4_HT-200To400_TuneCP5_13TeV-madgraphMLM-pythia8/RunIISummer20UL17NanoAODv9-106X_mc2017_realistic_v9-v1/NANOAODSIM'
p282
sg14
F0.8859
sg15
S'/eos/cms/store/group/phys_smp/AnalysisFramework/Baobab/Metin/gammaplusb/2017/UL_MC/GJets_HT/GJets_DR-0p4_HT-200To400_TuneCP5_13TeV-madgraphMLM-pythia8/'
p283
ssS'GJets_DR_0p4_HT_400To600_2017'
p284
(dp285
g8
F126.2
sg9
F0.0
sg10
F0.03779
sg11
I9022800
sg12
S'/GJets_DR_0p4_HT-400To600_TuneCP5_13TeV-madgraphMLM-pythia8/RunIISummer20UL17NanoAODv9-106X_mc2017_realistic_v9-v1/NANOAODSIM'
p286
sg14
F7.921
sg15
S'/eos/cms/store/group/phys_smp/AnalysisFramework/Baobab/Metin/gammaplusb/2017/UL_MC/GJets_HT/GJets_DR-0p4_HT-400To600_TuneCP5_13TeV-madgraphMLM-pythia8/'
p287
ssssg79
(dp288
S'TTGJets_UL_2017'
p289
(dp290
g8
F3.757
sg9
F0.3218
sg10
F0.02243
sg11
I3534208
sg12
S'/TTGJets_TuneCP5_13TeV-amcatnloFXFX-madspin-pythia8/RunIISummer20UL17NanoAODv9-106X_mc2017_realistic_v9-v1/NANOAODSIM'
p291
sg14
F33.81
sg15
S'/eos/user/m/myalvac/Small_bkg/2017/TTGJets_TuneCP5_13TeV-amcatnloFXFX-madspin-pythia8/'
p292
ssS'ZGToLLG_UL_2017'
p293
(dp294
g8
F51.1
sg9
F0.1923
sg10
F0.8077
sg11
I29890946
sg12
S'/ZGToLLG_01J_5f_TuneCP5_13TeV-amcatnloFXFX-pythia8/RunIISummer20UL17NanoAODv9-106X_mc2017_realistic_v9-v1/NANOAODSIM'
p295
sg14
F7.41
sg15
S'/eos/user/m/myalvac/Small_bkg/2017/ZGToLLG_01J_5f_TuneCP5_13TeV-amcatnloFXFX-pythia8/'
p296
ssS'WZG_UL_2017'
p297
(dp298
g8
F0.04345
sg9
F0.07975
sg10
F4.524e-05
sg11
I1400000
sg12
S'/WZG_TuneCP5_13TeV-amcatnlo-pythia8/RunIISummer20UL17NanoAODv9-106X_mc2017_realistic_v9-v1/NANOAODSIM'
p299
sg14
F16260.0
sg15
S'/eos/user/m/myalvac/Small_bkg/2017/WZG_TuneCP5_13TeV-amcatnlo-pythia8/'
p300
ssS'QCD_bEnriched_HT_UL2017'
p301
(dp302
S'QCD_bEnriched_HT_UL2017_2000ToInf'
p303
(dp304
g8
F0.6967
sg9
F0.0
sg10
F0.002099
sg11
I1408971
sg12
S'/QCD_bEnriched_HT2000toInf_TuneCP5_13TeV-madgraph-pythia8/RunIISummer20UL17NanoAODv9-106X_mc2017_realistic_v9-v1/NANOAODSIM'
p305
sg14
F1435.0
sg15
S'/eos/cms/store/group/phys_smp/AnalysisFramework/Baobab/Metin/gammaplusb/2017/UL_MC/QCD_bEnriched_HT/QCD_bEnriched_HT2000toInf_TuneCP5_13TeV-madgraph-pythia8/'
p306
ssS'QCD_bEnriched_HT_UL2017_1000To1500'
p307
(dp308
g8
F46.61
sg9
F0.002946
sg10
F0.2002
sg11
I1385631
sg12
S'/QCD_bEnriched_HT1000to1500_TuneCP5_13TeV-madgraph-pythia8/RunIISummer20UL17NanoAODv9-106X_mc2017_realistic_v9-v1/NANOAODSIM'
p309
sg14
F21.2
sg15
S'/eos/cms/store/group/phys_smp/AnalysisFramework/Baobab/Metin/gammaplusb/2017/UL_MC/QCD_bEnriched_HT/QCD_bEnriched_HT1000to1500_TuneCP5_13TeV-madgraph-pythia8/'
p310
ssS'QCD_bEnriched_HT_UL2017_500To700'
p311
(dp312
g8
F1487.0
sg9
F0.001047
sg10
F4.442
sg11
I10203561
sg12
S'/QCD_bEnriched_HT500to700_TuneCP5_13TeV-madgraph-pythia8/RunIISummer20UL17NanoAODv9-106X_mc2017_realistic_v9-v1/NANOAODSIM'
p313
sg14
F0.6699
sg15
S'/eos/cms/store/group/phys_smp/AnalysisFramework/Baobab/Metin/gammaplusb/2017/UL_MC/QCD_bEnriched_HT/QCD_bEnriched_HT500to700_TuneCP5_13TeV-madgraph-pythia8/'
p314
ssS'QCD_bEnriched_HT_UL2017_100To200'
p315
(dp316
g8
F1127000.0
sg9
F0.0
sg10
F3241.0
sg11
I37074807
sg12
S'/QCD_bEnriched_HT100to200_TuneCP5_13TeV-madgraph-pythia8/RunIISummer20UL17NanoAODv9-106X_mc2017_realistic_v9-v1/NANOAODSIM'
p317
sg14
F0.0008871
sg15
S'/eos/cms/store/group/phys_smp/AnalysisFramework/Baobab/Metin/gammaplusb/2017/UL_MC/QCD_bEnriched_HT/QCD_bEnriched_HT100to200_TuneCP5_13TeV-madgraph-pythia8/'
p318
ssS'QCD_bEnriched_HT_UL2017_300To500'
p319
(dp320
g8
F16700.0
sg9
F0.0
sg10
F49.74
sg11
I11312350
sg12
S'/QCD_bEnriched_HT300to500_TuneCP5_13TeV-madgraph-pythia8/RunIISummer20UL17NanoAODv9-106X_mc2017_realistic_v9-v1/NANOAODSIM'
p321
sg14
F0.05988
sg15
S'/eos/cms/store/group/phys_smp/AnalysisFramework/Baobab/Metin/gammaplusb/2017/UL_MC/QCD_bEnriched_HT/QCD_bEnriched_HT300to500_TuneCP5_13TeV-madgraph-pythia8/'
p322
ssS'QCD_bEnriched_HT_UL2017_700To1000'
p323
(dp324
g8
F298.8
sg9
F0.0
sg10
F0.8983
sg11
I1881618
sg12
S'/QCD_bEnriched_HT700to1000_TuneCP5_13TeV-madgraph-pythia8/RunIISummer20UL17NanoAODv9-106X_mc2017_realistic_v9-v1/NANOAODSIM'
p325
sg14
F3.347
sg15
S'/eos/cms/store/group/phys_smp/AnalysisFramework/Baobab/Metin/gammaplusb/2017/UL_MC/QCD_bEnriched_HT/QCD_bEnriched_HT700to1000_TuneCP5_13TeV-madgraph-pythia8/'
p326
ssS'QCD_bEnriched_HT_UL2017_1500To2000'
p327
(dp328
g8
F4.017
sg9
F0.0
sg10
F0.01213
sg11
I1458069
sg12
S'/QCD_bEnriched_HT1500to2000_TuneCP5_13TeV-madgraph-pythia8/RunIISummer20UL17NanoAODv9-106X_mc2017_realistic_v9-v1/NANOAODSIM'
p329
sg14
F248.9
sg15
S'/eos/cms/store/group/phys_smp/AnalysisFramework/Baobab/Metin/gammaplusb/2017/UL_MC/QCD_bEnriched_HT/QCD_bEnriched_HT1500to2000_TuneCP5_13TeV-madgraph-pythia8/'
p330
ssS'QCD_bEnriched_HT_UL2017_200To300'
p331
(dp332
g8
F80220.0
sg9
F0.0
sg10
F235.7
sg11
I19844424
sg12
S'/QCD_bEnriched_HT200to300_TuneCP5_13TeV-madgraph-pythia8/RunIISummer20UL17NanoAODv9-106X_mc2017_realistic_v9-v1/NANOAODSIM'
p333
sg14
F0.01247
sg15
S'/eos/cms/store/group/phys_smp/AnalysisFramework/Baobab/Metin/gammaplusb/2017/UL_MC/QCD_bEnriched_HT/QCD_bEnriched_HT200to300_TuneCP5_13TeV-madgraph-pythia8/'
p334
sssS'TGJets_UL_2017'
p335
(dp336
g8
F2.997
sg9
F0.3959
sg10
F0.01239
sg11
I1965000
sg12
S'/TGJets_TuneCP5_13TeV-amcatnlo-madspin-pythia8/RunIISummer20UL17NanoAODv9-106X_mc2017_realistic_v9-v2/NANOAODSIM'
p337
sg14
F14.46
sg15
S'/eos/cms/store/group/phys_smp/AnalysisFramework/Baobab/Metin/gammaplusb/2017/UL_MC/TGJets_TuneCP5_13TeV-amcatnlo-madspin-pythia8/'
p338
ssS'QCD_HT_UL2017'
p339
(dp340
S'QCD_HT_UL2017_1000To1500'
p341
(dp342
g8
F1122.0
sg9
F0.0
sg10
F0.5173
sg11
I10186734
sg12
g151
sg14
F0.8911
sg15
S'/eos/cms/store/group/phys_smp/AnalysisFramework/Baobab/Metin/gammaplusb/2017/UL_MC/QCD_HT/QCD_HT1000to1500_TuneCP5_PSWeights_13TeV-madgraph-pythia8/'
p343
ssS'QCD_HT_UL2017_100To200'
p344
(dp345
g8
F23650000.0
sg9
F0.0
sg10
F4467.0
sg11
I54381393
sg12
g135
sg14
F4.229e-05
sg15
S'/eos/cms/store/group/phys_smp/AnalysisFramework/Baobab/Metin/gammaplusb/2017/UL_MC/QCD_HT/QCD_HT100to200_TuneCP5_PSWeights_13TeV-madgraph-pythia8/'
p346
ssS'QCD_HT_UL2017_500To700'
p347
(dp348
g8
F30280.0
sg9
F0.0
sg10
F7.439
sg11
I36194860
sg12
g139
sg14
F0.03303
sg15
S'/eos/cms/store/group/phys_smp/AnalysisFramework/Baobab/Metin/gammaplusb/2017/UL_MC/QCD_HT/QCD_HT500to700_TuneCP5_PSWeights_13TeV-madgraph-pythia8/'
p349
ssS'QCD_HT_UL2017_50To100'
p350
(dp351
g8
F186000000.0
sg9
F0.0
sg10
F48970.0
sg11
I26243010
sg12
g143
sg14
F5.377e-06
sg15
S'/eos/cms/store/group/phys_smp/AnalysisFramework/Baobab/Metin/gammaplusb/2017/UL_MC/QCD_HT/QCD_HT50to100_TuneCP5_PSWeights_13TeV-madgraph-pythia8/'
p352
ssS'QCD_HT_UL2017_700To1000'
p353
(dp354
g8
F6437.0
sg9
F0.0
sg10
F1.658
sg11
I32934816
sg12
g131
sg14
F0.1554
sg15
S'/eos/cms/store/group/phys_smp/AnalysisFramework/Baobab/Metin/gammaplusb/2017/UL_MC/QCD_HT/QCD_HT700to1000_TuneCP5_PSWeights_13TeV-madgraph-pythia8/'
p355
ssS'QCD_HT_UL2017_2000ToInf'
p356
(dp357
g8
F22.04
sg9
F0.0
sg10
F0.0156
sg11
I4112573
sg12
g147
sg14
F45.38
sg15
S'/eos/cms/store/group/phys_smp/AnalysisFramework/Baobab/Metin/gammaplusb/2017/UL_MC/QCD_HT/QCD_HT2000toInf_TuneCP5_PSWeights_13TeV-madgraph-pythia8/'
p358
ssS'QCD_HT_UL2017_200To300'
p359
(dp360
g8
F1553000.0
sg9
F0.0
sg10
F349.9
sg11
I42714435
sg12
g119
sg14
F0.000644
sg15
S'/eos/cms/store/group/phys_smp/AnalysisFramework/Baobab/Metin/gammaplusb/2017/UL_MC/QCD_HT/QCD_HT200to300_TuneCP5_PSWeights_13TeV-madgraph-pythia8/'
p361
ssS'QCD_HT_UL2017_300To500'
p362
(dp363
g8
F324500.0
sg9
F0.0
sg10
F75.53
sg11
I43429979
sg12
g127
sg14
F0.003082
sg15
S'/eos/cms/store/group/phys_smp/AnalysisFramework/Baobab/Metin/gammaplusb/2017/UL_MC/QCD_HT/QCD_HT300to500_TuneCP5_PSWeights_13TeV-madgraph-pythia8/'
p364
ssS'QCD_HT_UL2017_1500To2000'
p365
(dp366
g8
F108.3
sg9
F0.0
sg10
F0.05823
sg11
I7701876
sg12
g123
sg14
F9.23
sg15
S'/eos/cms/store/group/phys_smp/AnalysisFramework/Baobab/Metin/gammaplusb/2017/UL_MC/QCD_HT/QCD_HT1500to2000_TuneCP5_PSWeights_13TeV-madgraph-pythia8/'
p367
ssssg216
(dp368
g218
(dp369
g224
(dp370
g8
I1
sg9
F0.0
sg10
I1
sg15
S'/eos/cms/store/group/phys_smp/AnalysisFramework/Baobab/Metin/gammaplusb/2017/data/SinglePhoton_UL/Run2017C/'
p371
sg14
I1
sg12
S'/SinglePhoton/Run2017C-UL2017_MiniAODv2_NanoAODv9-v1/NANOAOD'
p372
ssS'B'
p373
(dp374
g8
I1
sg9
F0.0
sg10
I1
sg15
S'/eos/cms/store/group/phys_smp/AnalysisFramework/Baobab/Metin/gammaplusb/2017/data/SinglePhoton_UL/Run2017B/'
p375
sg14
I1
sg12
S'/SinglePhoton/Run2017B-UL2017_MiniAODv2_NanoAODv9-v1/NANOAOD'
p376
ssg228
(dp377
g8
I1
sg9
F0.0
sg10
I1
sg15
S'/eos/cms/store/group/phys_smp/AnalysisFramework/Baobab/Metin/gammaplusb/2017/data/SinglePhoton_UL/Run2017E/'
p378
sg14
I1
sg12
S'/SinglePhoton/Run2017E-UL2017_MiniAODv2_NanoAODv9-v1/NANOAOD'
p379
ssg232
(dp380
g8
I1
sg9
F0.0
sg10
I1
sg15
S'/eos/cms/store/group/phys_smp/AnalysisFramework/Baobab/Metin/gammaplusb/2017/data/SinglePhoton_UL/Run2017D/'
p381
sg14
I1
sg12
S'/SinglePhoton/Run2017D-UL2017_MiniAODv2_NanoAODv9-v1/NANOAOD'
p382
ssg240
(dp383
g8
I1
sg9
F0.0
sg10
I1
sg15
S'/eos/cms/store/group/phys_smp/AnalysisFramework/Baobab/Metin/gammaplusb/2017/data/SinglePhoton_UL/Run2017F/'
p384
sg14
I1
sg12
S'/SinglePhoton/Run2017F-UL2017_MiniAODv2_NanoAODv9-v1/NANOAOD'
p385
sssssI2018
(dp386
g2
(dp387
g4
(dp388
S'G1Jet_LHEGpt_150To250_2018'
p389
(dp390
g8
F226.2
sg9
F0.1738
sg10
F0.6433
sg11
I11192434
sg12
S'/G1Jet_LHEGpT-150To250_TuneCP5_13TeV-amcatnlo-pythia8/RunIISummer20UL18NanoAODv9-106X_upgrade2018_realistic_v16_L1v1-v1/NANOAODSIM'
p391
sg14
F1.882
sg15
S'/eos/cms/store/group/phys_smp/AnalysisFramework/Baobab/Metin/gammaplusb/2018/UL_MC/G1Jet/G1Jet_LHEGpT-150To250_TuneCP5_13TeV-amcatnlo-pythia8/'
p392
ssS'G1Jet_LHEGpt_400To675_2018'
p393
(dp394
g8
F3.395
sg9
F0.1638
sg10
F0.007753
sg11
I1999690
sg12
S'/G1Jet_LHEGpT-400To675_TuneCP5_13TeV-amcatnlo-pythia8/RunIISummer20UL18NanoAODv9-106X_upgrade2018_realistic_v16_L1v1-v1/NANOAODSIM'
p395
sg14
F133.2
sg15
S'/eos/cms/store/group/phys_smp/AnalysisFramework/Baobab/Metin/gammaplusb/2018/UL_MC/G1Jet/G1Jet_LHEGpT-400To675_TuneCP5_13TeV-amcatnlo-pythia8/'
p396
ssS'G1Jet_LHEGpt_675ToInf_2018'
p397
(dp398
g8
F0.2478
sg9
F0.1584
sg10
F0.0005027
sg11
I498616
sg12
S'/G1Jet_LHEGpT-675ToInf_TuneCP5_13TeV-amcatnlo-pythia8/RunIISummer20UL18NanoAODv9-106X_upgrade2018_realistic_v16_L1v1-v1/NANOAODSIM'
p399
sg14
F1883.0
sg15
S'/eos/cms/store/group/phys_smp/AnalysisFramework/Baobab/Metin/gammaplusb/2018/UL_MC/G1Jet/G1Jet_LHEGpT-675ToInf_TuneCP5_13TeV-amcatnlo-pythia8/'
p400
ssS'G1Jet_LHEGpt_250To400_2018'
p401
(dp402
g8
F26.99
sg9
F0.1697
sg10
F0.08345
sg11
I6004413
sg12
S'/G1Jet_LHEGpT-250To400_TuneCP5_13TeV-amcatnlo-pythia8/RunIISummer20UL18NanoAODv9-106X_upgrade2018_realistic_v16_L1v1-v1/NANOAODSIM'
p403
sg14
F17.17
sg15
S'/eos/cms/store/group/phys_smp/AnalysisFramework/Baobab/Metin/gammaplusb/2018/UL_MC/G1Jet/G1Jet_LHEGpT-250To400_TuneCP5_13TeV-amcatnlo-pythia8/'
p404
sssg47
(dp405
S'GJets_DR_0p4_HT_400To600_2018'
p406
(dp407
g8
F126.2
sg9
F0.0
sg10
F0.03779
sg11
I13373955
sg12
S'/GJets_DR_0p4_HT-400To600_TuneCP5_13TeV-madgraphMLM-pythia8/RunIISummer20UL18NanoAODv9-106X_upgrade2018_realistic_v16_L1v1-v1/NANOAODSIM'
p408
sg14
F7.921
sg15
S'/eos/cms/store/group/phys_smp/AnalysisFramework/Baobab/Metin/gammaplusb/2018/UL_MC/GJets_HT/GJets_DR-0p4_HT-400To600_TuneCP5_13TeV-madgraphMLM-pythia8/'
p409
ssS'GJets_DR_0p4_HT_200To400_2018'
p410
(dp411
g8
F1129.0
sg9
F0.0
sg10
F3.338
sg11
I44247215
sg12
S'/GJets_DR_0p4_HT-200To400_TuneCP5_13TeV-madgraphMLM-pythia8/RunIISummer20UL18NanoAODv9-106X_upgrade2018_realistic_v16_L1v1-v1/NANOAODSIM'
p412
sg14
F0.8859
sg15
S'/eos/cms/store/group/phys_smp/AnalysisFramework/Baobab/Metin/gammaplusb/2018/UL_MC/GJets_HT/GJets_DR-0p4_HT-200To400_TuneCP5_13TeV-madgraphMLM-pythia8/'
p413
ssS'GJets_DR_0p4_HT_600ToInf_2018'
p414
(dp415
g8
F41.31
sg9
F0.0
sg10
F0.1242
sg11
I11584420
sg12
S'/GJets_DR_0p4_HT-400ToInf_TuneCP5_13TeV-madgraphMLM-pythia8/RunIISummer20UL18NanoAODv9-106X_upgrade2018_realistic_v16_L1v1-v1/NANOAODSIM'
p416
sg14
F24.21
sg15
S'/eos/cms/store/group/phys_smp/AnalysisFramework/Baobab/Metin/gammaplusb/2018/UL_MC/GJets_HT/GJets_DR-0p4_HT-600ToInf_TuneCP5_13TeV-madgraphMLM-pythia8/'
p417
ssS'GJets_DR_0p4_HT_100To200_2018'
p418
(dp419
g8
F5034.0
sg9
F0.0
sg10
F14.69
sg11
I14278296
sg12
S'/GJets_DR_0p4_HT-100To200_TuneCP5_13TeV-madgraphMLM-pythia8/RunIISummer20UL18NanoAODv9-106X_upgrade2018_realistic_v16_L1v1-v1/NANOAODSIM'
p420
sg14
F0.1986
sg15
S'/eos/cms/store/group/phys_smp/AnalysisFramework/Baobab/Metin/gammaplusb/2018/UL_MC/GJets_HT/GJets_DR-0p4_HT-100To200_TuneCP5_13TeV-madgraphMLM-pythia8/'
p421
ssssg79
(dp422
S'QCD_HT_UL2018'
p423
(dp424
S'QCD_HT_UL2018_2000ToInf'
p425
(dp426
g8
F22.04
sg9
F0.0
sg10
F0.0156
sg11
I5374711
sg12
S'/QCD_HT2000toInf_TuneCP5_PSWeights_13TeV-madgraph-pythia8/RunIISummer20UL18NanoAODv9-106X_upgrade2018_realistic_v16_L1v1-v1/NANOAODSIM'
p427
sg14
F45.38
sg15
S'/eos/cms/store/group/phys_smp/AnalysisFramework/Baobab/Metin/gammaplusb/2018/UL_MC/QCD_HT/QCD_HT2000toInf_TuneCP5_PSWeights_13TeV-madgraph-pythia8/'
p428
ssS'QCD_HT_UL2018_1000To1500'
p429
(dp430
g8
F1122.0
sg9
F0.0
sg10
F0.5173
sg11
I14394786
sg12
S'/QCD_HT1000to1500_TuneCP5_PSWeights_13TeV-madgraph-pythia8/RunIISummer20UL18NanoAODv9-106X_mcRun2_upgrade2018_realistic_v16_L1v1-v1/NANOAODSIM'
p431
sg14
F0.8911
sg15
S'/eos/cms/store/group/phys_smp/AnalysisFramework/Baobab/Metin/gammaplusb/2018/UL_MC/QCD_HT/QCD_HT1000to1500_TuneCP5_PSWeights_13TeV-madgraph-pythia8/'
p432
ssS'QCD_HT_UL2018_500To700'
p433
(dp434
g8
F30280.0
sg9
F0.0
sg10
F7.439
sg11
I49184771
sg12
S'/QCD_HT500to700_TuneCP5_PSWeights_13TeV-madgraph-pythia8/RunIISummer20UL18NanoAODv9-106X_upgrade2018_realistic_v16_L1v1-v1/NANOAODSIM'
p435
sg14
F0.03303
sg15
S'/eos/cms/store/group/phys_smp/AnalysisFramework/Baobab/Metin/gammaplusb/2018/UL_MC/QCD_HT/QCD_HT500to700_TuneCP5_PSWeights_13TeV-madgraph-pythia8/'
p436
ssS'QCD_HT_UL2018_100To200'
p437
(dp438
g8
F23650000.0
sg9
F0.0
sg10
F4467.0
sg11
I84434559
sg12
S'/QCD_HT100to200_TuneCP5_PSWeights_13TeV-madgraph-pythia8/RunIISummer20UL18NanoAODv9-106X_upgrade2018_realistic_v16_L1v1-v1/NANOAODSIM'
p439
sg14
F4.229e-05
sg15
S'/eos/cms/store/group/phys_smp/AnalysisFramework/Baobab/Metin/gammaplusb/2018/UL_MC/QCD_HT/QCD_HT100to200_TuneCP5_PSWeights_13TeV-madgraph-pythia8/'
p440
ssS'QCD_HT_UL2018_300To500'
p441
(dp442
g8
F324500.0
sg9
F0.0
sg10
F75.53
sg11
I61609663
sg12
S'/QCD_HT300to500_TuneCP5_PSWeights_13TeV-madgraph-pythia8/RunIISummer20UL18NanoAODv9-106X_upgrade2018_realistic_v16_L1v1-v1/NANOAODSIM'
p443
sg14
F0.003082
sg15
S'/eos/cms/store/group/phys_smp/AnalysisFramework/Baobab/Metin/gammaplusb/2018/UL_MC/QCD_HT/QCD_HT300to500_TuneCP5_PSWeights_13TeV-madgraph-pythia8/'
p444
ssS'QCD_HT_UL2018_50To100'
p445
(dp446
g8
F186000000.0
sg9
F0.0
sg10
F48970.0
sg11
I38599389
sg12
S'/QCD_HT50to100_TuneCP5_PSWeights_13TeV-madgraph-pythia8/RunIISummer20UL18NanoAODv9-106X_upgrade2018_realistic_v16_L1v1-v1/NANOAODSIM'
p447
sg14
F5.377e-06
sg15
S'/eos/cms/store/group/phys_smp/AnalysisFramework/Baobab/Metin/gammaplusb/2018/UL_MC/QCD_HT/QCD_HT50to100_TuneCP5_PSWeights_13TeV-madgraph-pythia8/'
p448
ssS'QCD_HT_UL2018_1500To2000'
p449
(dp450
g8
F108.3
sg9
F0.0
sg10
F0.05823
sg11
I10411831
sg12
S'/QCD_HT1500to2000_TuneCP5_PSWeights_13TeV-madgraph-pythia8/RunIISummer20UL18NanoAODv9-106X_upgrade2018_realistic_v16_L1v1-v1/NANOAODSIM'
p451
sg14
F9.23
sg15
S'/eos/cms/store/group/phys_smp/AnalysisFramework/Baobab/Metin/gammaplusb/2018/UL_MC/QCD_HT/QCD_HT1500to2000_TuneCP5_PSWeights_13TeV-madgraph-pythia8/'
p452
ssS'QCD_HT_UL2018_200To300'
p453
(dp454
g8
F1553000.0
sg9
F0.0
sg10
F349.9
sg11
I57336623
sg12
S'/QCD_HT200to300_TuneCP5_PSWeights_13TeV-madgraph-pythia8/RunIISummer20UL18NanoAODv9-106X_upgrade2018_realistic_v16_L1v1-v1/NANOAODSIM'
p455
sg14
F0.000644
sg15
S'/eos/cms/store/group/phys_smp/AnalysisFramework/Baobab/Metin/gammaplusb/2018/UL_MC/QCD_HT/QCD_HT200to300_TuneCP5_PSWeights_13TeV-madgraph-pythia8/'
p456
ssS'QCD_HT_UL2018_700To1000'
p457
(dp458
g8
F6437.0
sg9
F0.0
sg10
F1.658
sg11
I48506751
sg12
S'/QCD_HT700to1000_TuneCP5_PSWeights_13TeV-madgraph-pythia8/RunIISummer20UL18NanoAODv9-106X_upgrade2018_realistic_v16_L1v1-v1/NANOAODSIM'
p459
sg14
F0.1554
sg15
S'/eos/cms/store/group/phys_smp/AnalysisFramework/Baobab/Metin/gammaplusb/2018/UL_MC/QCD_HT/QCD_HT700to1000_TuneCP5_PSWeights_13TeV-madgraph-pythia8/'
p460
sssS'TGJets_UL_2018'
p461
(dp462
g8
F2.997
sg9
F0.3959
sg10
F0.01239
sg11
I1960000
sg12
S'/TGJets_TuneCP5_13TeV-amcatnlo-madspin-pythia8/RunIISummer20UL18NanoAODv9-106X_upgrade2018_realistic_v16_L1v1-v2/NANOAODSIM'
p463
sg14
F14.46
sg15
S'/eos/cms/store/group/phys_smp/AnalysisFramework/Baobab/Metin/gammaplusb/2018/UL_MC/TGJets_TuneCP5_13TeV-amcatnlo-madspin-pythia8/'
p464
ssS'QCD_bEnriched_HT_UL2018'
p465
(dp466
S'QCD_bEnriched_HT_UL2018_2000ToInf'
p467
(dp468
g8
F0.6967
sg9
F0.0
sg10
F0.002099
sg11
I1357334
sg12
S'/QCD_bEnriched_HT2000toInf_TuneCP5_13TeV-madgraph-pythia8/RunIISummer20UL18NanoAODv9-106Xupgrade2018_realistic_v16_L1v1-v1/NANOAODSIM'
p469
sg14
F1435.0
sg15
S'/eos/cms/store/group/phys_smp/AnalysisFramework/Baobab/Metin/gammaplusb/2018/UL_MC/QCD_bEnriched_HT/QCD_bEnriched_HT2000toInf_TuneCP5_13TeV-madgraph-pythia8/'
p470
ssS'QCD_bEnriched_HT_UL2018_1500To2000'
p471
(dp472
g8
F4.017
sg9
F0.0
sg10
F0.01213
sg11
I1431254
sg12
S'/QCD_bEnriched_HT1500to2000_TuneCP5_13TeV-madgraph-pythia8/RunIISummer20UL18NanoAODv9-106Xupgrade2018_realistic_v16_L1v1-v1NANOAODSIM'
p473
sg14
F248.9
sg15
S'/eos/cms/store/group/phys_smp/AnalysisFramework/Baobab/Metin/gammaplusb/2018/UL_MC/QCD_bEnriched_HT/QCD_bEnriched_HT1500to2000_TuneCP5_13TeV-madgraph-pythia8/'
p474
ssS'QCD_bEnriched_HT_UL2018_1000To1500'
p475
(dp476
g8
F46.61
sg9
F0.002946
sg10
F0.2002
sg11
I1330829
sg12
S'/QCD_bEnriched_HT1000to1500_TuneCP5_13TeV-madgraph-pythia8/RunIISummer20UL18NanoAODv9-106Xupgrade2018_realistic_v16_L1v1-v1/NANOAODSIM'
p477
sg14
F21.2
sg15
S'/eos/cms/store/group/phys_smp/AnalysisFramework/Baobab/Metin/gammaplusb/2018/UL_MC/QCD_bEnriched_HT/QCD_bEnriched_HT1000to1500_TuneCP5_13TeV-madgraph-pythia8/'
p478
ssS'QCD_bEnriched_HT_UL2018_200To300'
p479
(dp480
g8
F80220.0
sg9
F0.0
sg10
F235.7
sg11
I18462183
sg12
S'/QCD_bEnriched_HT200to300_TuneCP5_13TeV-madgraph-pythia8/RunIISummer20UL18NanoAODv9-106Xupgrade2018_realistic_v16_L1v1-v1/NANOAODSIM'
p481
sg14
F0.01247
sg15
S'/eos/cms/store/group/phys_smp/AnalysisFramework/Baobab/Metin/gammaplusb/2018/UL_MC/QCD_bEnriched_HT/QCD_bEnriched_HT200to300_TuneCP5_13TeV-madgraph-pythia8/'
p482
ssS'QCD_bEnriched_HT_UL2018_500To700'
p483
(dp484
g8
F1487.0
sg9
F0.001047
sg10
F4.442
sg11
I9246898
sg12
S'/QCD_bEnriched_HT500to700_TuneCP5_13TeV-madgraph-pythia8/RunIISummer20UL18NanoAODv9-106Xupgrade2018_realistic_v16_L1v1-v1NANOAODSIM'
p485
sg14
F0.6699
sg15
S'/eos/cms/store/group/phys_smp/AnalysisFramework/Baobab/Metin/gammaplusb/2018/UL_MC/QCD_bEnriched_HT/QCD_bEnriched_HT500to700_TuneCP5_13TeV-madgraph-pythia8/'
p486
ssS'QCD_bEnriched_HT_UL2018_700To1000'
p487
(dp488
g8
F298.8
sg9
F0.0
sg10
F0.8983
sg11
I1844165
sg12
S'/QCD_bEnriched_HT700to1000_TuneCP5_13TeV-madgraph-pythia8/RunIISummer20UL18NanoAODv9-106Xupgrade2018_realistic_v16_L1v1-v1/NANOAODSIM'
p489
sg14
F3.347
sg15
S'/eos/cms/store/group/phys_smp/AnalysisFramework/Baobab/Metin/gammaplusb/2018/UL_MC/QCD_bEnriched_HT/QCD_bEnriched_HT700to1000_TuneCP5_13TeV-madgraph-pythia8/'
p490
ssS'QCD_bEnriched_HT_UL2018_100To200'
p491
(dp492
g8
F1127000.0
sg9
F0.0
sg10
F3241.0
sg11
I36118282
sg12
S'/QCD_bEnriched_HT100to200_TuneCP5_13TeV-madgraph-pythia8/RunIISummer20UL18NanoAODv9-106X_upgrade2018_realistic_v16_L1v1-v1/NANOAODSIM'
p493
sg14
F0.0008871
sg15
S'/eos/cms/store/group/phys_smp/AnalysisFramework/Baobab/Metin/gammaplusb/2018/UL_MC/QCD_bEnriched_HT/QCD_bEnriched_HT100to200_TuneCP5_13TeV-madgraph-pythia8/'
p494
ssS'QCD_bEnriched_HT_UL2018_300To500'
p495
(dp496
g8
F16700.0
sg9
F0.0
sg10
F49.74
sg11
I11197722
sg12
S'/QCD_bEnriched_HT300to500_TuneCP5_13TeV-madgraph-pythia8/RunIISummer20UL18NanoAODv9-106Xupgrade2018_realistic_v16_L1v1-v1/NANOAODSIM'
p497
sg14
F0.05988
sg15
S'/eos/cms/store/group/phys_smp/AnalysisFramework/Baobab/Metin/gammaplusb/2018/UL_MC/QCD_bEnriched_HT/QCD_bEnriched_HT300to500_TuneCP5_13TeV-madgraph-pythia8/'
p498
sssS'ZGToLLG_UL_2018'
p499
(dp500
g8
F51.1
sg9
F0.1923
sg10
F0.8077
sg11
I29919798
sg12
S'/ZGToLLG_01J_5f_TuneCP5_13TeV-amcatnloFXFX-pythia8/RunIISummer20UL18NanoAODv9-106X_upgrade2018_realistic_v16_L1v1-v1/NANOAODSIM'
p501
sg14
F7.41
sg15
S'/eos/cms/store/group/phys_smp/AnalysisFramework/Baobab/Metin/gammaplusb/2018/UL_MC/ZGToLLG_01J_5f_TuneCP5_13TeV-amcatnloFXFX-pythia8/'
p502
ssS'WJetsToLNu_HT'
p503
(dp504
S'WJetsToLNu_HT_UL2018_600To800'
p505
(dp506
g8
F12.87
sg9
F0.0
sg10
F0.8983
sg11
I7718765
sg12
g489
sg14
F3.347
sg15
S'/eos/cms/store/group/phys_smp/AnalysisFramework/Baobab/Metin/gammaplusb/2018/UL_MC/WJJets_HT/WJetsToLNu_HT-600To800_TuneCP5_13TeV-madgraphMLM-pythia8/'
p507
ssS'WJetsToLNu_HT_UL2018_800To1200'
p508
(dp509
g8
F5.366
sg9
F0.002946
sg10
F0.2002
sg11
I7306187
sg12
g477
sg14
F21.2
sg15
S'/eos/cms/store/group/phys_smp/AnalysisFramework/Baobab/Metin/gammaplusb/2018/UL_MC/WJJets_HT/WJetsToLNu_HT-800To1200_TuneCP5_13TeV-madgraphMLM-pythia8/'
p510
ssS'WJetsToLNu_HT_UL2018_2500ToInf'
p511
(dp512
g8
F0.008001
sg9
F0.0
sg10
F0.002099
sg11
I2097648
sg12
g469
sg14
F1435.0
sg15
S'/eos/cms/store/group/phys_smp/AnalysisFramework/Baobab/Metin/gammaplusb/2018/UL_MC/WJJets_HT/WJetsToLNu_HT-2500ToInf_TuneCP5_13TeV-madgraphMLM-pythia8/'
p513
ssS'WJetsToLNu_HT_UL2018_1200To2500'
p514
(dp515
g8
F1.074
sg9
F0.0
sg10
F0.01213
sg11
I6481518
sg12
g473
sg14
F248.9
sg15
S'/eos/cms/store/group/phys_smp/AnalysisFramework/Baobab/Metin/gammaplusb/2018/UL_MC/WJJets_HT/WJetsToLNu_HT-1200To2500_TuneCP5_13TeV-madgraphMLM-pythia8/'
p516
ssS'WJetsToLNu_HT_UL2018_100To200'
p517
(dp518
g8
F1395.0
sg9
F0.0
sg10
F235.7
sg11
I51408967
sg12
S'/WJetsToLNu_HT-70To100_TuneCP5_13TeV-madgraphMLM-pythia8/RunIISummer20UL18NanoAODv9-106X_upgrade2018_realistic_v16_L1v1-v1/NANOAODSIM'
p519
sg14
F0.01247
sg15
S'/eos/cms/store/group/phys_smp/AnalysisFramework/Baobab/Metin/gammaplusb/2018/UL_MC/WJJets_HT/WJetsToLNu_HT-100To200_TuneCP5_13TeV-madgraphMLM-pythia8/'
p520
ssS'WJetsToLNu_HT_UL2018_400To600'
p521
(dp522
g8
F57.48
sg9
F0.001047
sg10
F4.442
sg11
I9246898
sg12
g519
sg14
F0.6699
sg15
S'/eos/cms/store/group/phys_smp/AnalysisFramework/Baobab/Metin/gammaplusb/2018/UL_MC/WJJets_HT/WJetsToLNu_HT-400To600_TuneCP5_13TeV-madgraphMLM-pythia8/'
p523
ssS'WJetsToLNu_HT_UL2018_200To400'
p524
(dp525
g8
F407.9
sg9
F0.0
sg10
F49.74
sg11
I58225632
sg12
g519
sg14
F0.05988
sg15
S'/eos/cms/store/group/phys_smp/AnalysisFramework/Baobab/Metin/gammaplusb/2018/UL_MC/WJJets_HT/WJetsToLNu_HT-200To400_TuneCP5_13TeV-madgraphMLM-pythia8/'
p526
sssS'WZG_UL_2018'
p527
(dp528
g8
F0.04345
sg9
F0.07975
sg10
F4.524e-05
sg11
I2000000
sg12
S'/WZG_TuneCP5_13TeV-amcatnlo-pythia8/RunIISummer20UL18NanoAODv9-106X_upgrade2018_realistic_v16_L1v1-v1/NANOAODSIM'
p529
sg14
F16260.0
sg15
S'/eos/cms/store/group/phys_smp/AnalysisFramework/Baobab/Metin/gammaplusb/2018/UL_MC/WZG_TuneCP5_13TeV-amcatnlo-pythia8/'
p530
ssS'TTGJets_UL_2018'
p531
(dp532
g8
F3.757
sg9
F0.3218
sg10
F0.02243
sg11
I5968670
sg12
S'/TTGJets_TuneCP5_13TeV-amcatnloFXFX-madspin-pythia8/RunIISummer20UL18NanoAODv9-106X_upgrade2018_realistic_v16_L1v1_ext1-v1/NANOAODSIM'
p533
sg14
F33.81
sg15
S'/eos/cms/store/group/phys_smp/AnalysisFramework/Baobab/Metin/gammaplusb/2018/UL_MC/TTGJets_TuneCP5_13TeV-amcatnloFXFX-madspin-pythia8/'
p534
ssS'DYJetsToLL_M_50_HT'
p535
(dp536
S'DYJetsToLL_M_50_HT_UL2018_1200To2500'
p537
(dp538
g8
F0.1933
sg9
F0.0
sg10
F0.01213
sg11
I5966661
sg12
g473
sg14
F248.9
sg15
S'/eos/cms/store/group/phys_smp/AnalysisFramework/Baobab/Metin/gammaplusb/2018/UL_MC/DYJets/DYJetsToLL_M-50_HT-1200to2500_TuneCP5_PSweights_13TeV-madgraphMLM-pythia8/'
p539
ssS'DYJetsToLL_M_50_HT_UL2018_800To1200'
p540
(dp541
g8
F0.8052
sg9
F0.002946
sg10
F0.2002
sg11
I6554679
sg12
g477
sg14
F21.2
sg15
S'/eos/cms/store/group/phys_smp/AnalysisFramework/Baobab/Metin/gammaplusb/2018/UL_MC/DYJets/DYJetsToLL_M-50_HT-800to1200_TuneCP5_PSweights_13TeV-madgraphMLM-pythia8/'
p542
ssS'DYJetsToLL_M_50_HT_UL2018_100To200'
p543
(dp544
g8
F161.1
sg9
F0.0
sg10
F235.7
sg11
I26202328
sg12
g481
sg14
F0.01247
sg15
S'/eos/cms/store/group/phys_smp/AnalysisFramework/Baobab/Metin/gammaplusb/2018/UL_MC/DYJets/DYJetsToLL_M-50_HT-100to200_TuneCP5_PSweights_13TeV-madgraphMLM-pythia8/'
p545
ssS'DYJetsToLL_M_50_HT_UL2018_400To600'
p546
(dp547
g8
F6.96
sg9
F0.001047
sg10
F4.442
sg11
I8682257
sg12
g485
sg14
F0.6699
sg15
S'/eos/cms/store/group/phys_smp/AnalysisFramework/Baobab/Metin/gammaplusb/2018/UL_MC/DYJets/DYJetsToLL_M-50_HT-400to600_TuneCP5_PSweights_13TeV-madgraphMLM-pythia8/'
p548
ssS'DYJetsToLL_M_50_HT_UL2018_2500ToInf'
p549
(dp550
g8
F0.003468
sg9
F0.0
sg10
F0.002099
sg11
I1978203
sg12
g469
sg14
F1435.0
sg15
S'/eos/cms/store/group/phys_smp/AnalysisFramework/Baobab/Metin/gammaplusb/2018/UL_MC/DYJets/DYJetsToLL_M-50_HT-2500toInf_TuneCP5_PSweights_13TeV-madgraphMLM-pythia8/'
p551
ssS'DYJetsToLL_M_50_HT_UL2018_200To400'
p552
(dp553
g8
F48.6
sg9
F0.0
sg10
F49.74
sg11
I18455718
sg12
g497
sg14
F0.05988
sg15
S'/eos/cms/store/group/phys_smp/AnalysisFramework/Baobab/Metin/gammaplusb/2018/UL_MC/DYJets/DYJetsToLL_M-50_HT-200to400_TuneCP5_PSweights_13TeV-madgraphMLM-pythia8/'
p554
ssS'DYJetsToLL_M_50_HT_UL2018_600To800'
p555
(dp556
g8
F1.74
sg9
F0.0
sg10
F0.8983
sg11
I7035971
sg12
g489
sg14
F3.347
sg15
S'/eos/cms/store/group/phys_smp/AnalysisFramework/Baobab/Metin/gammaplusb/2018/UL_MC/DYJets/DYJetsToLL_M-50_HT-600to800_TuneCP5_PSweights_13TeV-madgraphMLM-pythia8/'
p557
ssssg216
(dp558
S'EGamma_UL'
p559
(dp560
S'A'
p561
(dp562
g8
I1
sg9
F0.0
sg10
I1
sg15
S'/eos/cms/store/group/phys_smp/AnalysisFramework/Baobab/Metin/gammaplusb/2018/data/EGamma_UL/EGamma/Run2018A/'
p563
sg14
I1
sg12
S'/EGamma/Run2018A-UL2018_MiniAODv2_NanoAODv9-v1/NANOAOD'
p564
ssg224
(dp565
g8
I1
sg9
F0.0
sg10
I1
sg15
S'/eos/cms/store/group/phys_smp/AnalysisFramework/Baobab/Metin/gammaplusb/2018/data/EGamma_UL/EGamma/Run2018C/'
p566
sg14
I1
sg12
S'/EGamma/Run2018C-UL2018_MiniAODv2_NanoAODv9-v1/NANOAOD'
p567
ssg373
(dp568
g8
I1
sg9
F0.0
sg10
I1
sg15
S'/eos/cms/store/group/phys_smp/AnalysisFramework/Baobab/Metin/gammaplusb/2018/data/EGamma_UL/EGamma/Run2018B/'
p569
sg14
I1
sg12
S'/EGamma/Run2018B-UL2018_MiniAODv2_NanoAODv9-v1/NANOAOD'
p570
ssg232
(dp571
g8
I1
sg9
F0.0
sg10
I1
sg15
S'/eos/cms/store/group/phys_smp/AnalysisFramework/Baobab/Metin/gammaplusb/2018/data/EGamma_UL/EGamma/Run2018D/'
p572
sg14
I1
sg12
S'/EGamma/Run2018D-UL2018_MiniAODv2_NanoAODv9-v3/NANOAOD'
p573
sssss.