(dp0
I2016
(dp1
S'signal'
p2
(dp3
S'GJets'
p4
(dp5
S'xsec'
p6
F365400.0
sS'fraction_negative_weight'
p7
F0.0
sS'xsec_unc'
p8
F382.7
sS'dir'
p9
S'/eos/cms/store/group/phys_smp/AnalysisFramework/Baobab/Metin/gammaplusb/2016/MC/GJet_Pt-15To6000_TuneCUETP8M1-Flat_13TeV_pythia8_20M/'
p10
sS'equivalent_lumi'
p11
F0.002737
sS'das_path'
p12
S'/GJet_Pt-15To6000_TuneCUETP8M1-Flat_13TeV_pythia8_20M/RunIISummer16NanoAODv7-PUMoriond17_Nano02Apr2020_102X_mcRun2_asymptotic_v8-v1/NANOAODSIM'
p13
sssS'bkg'
p14
(dp15
S'ST_t_channel_antitop'
p16
(dp17
g6
F81.42
sg7
F0.0
sg8
F0.0
sg9
S'/eos/cms/store/group/phys_smp/AnalysisFramework/Baobab/Metin/gammaplusb/2016/MC/ST_t-channel_antitop_4f_inclusiveDecays_13TeV-powhegV2-madspin-pythia8_TuneCUETP8M1/'
p18
sg11
F0.0
sg12
S'/ST_t-channel_antitop_4f_inclusiveDecays_13TeV-powhegV2-madspin-pythia8_TuneCUETP8M1/RunIISummer16NanoAODv7-PUMoriond17_Nano02Apr2020_102X_mcRun2_asymptotic_v8-v1/NANOAODSIM'
p19
ssS'TTJets'
p20
(dp21
g6
F511.3
sg7
F0.0
sg8
F1.412
sg9
S'/eos/cms/store/group/phys_smp/AnalysisFramework/Baobab/Metin/gammaplusb/2016/MC/TTJets_TuneCUETP8M1_13TeV-madgraphMLM-pythia8/'
p22
sg11
F1.956
sg12
S'/TTJets_TuneCUETP8M1_13TeV-madgraphMLM-pythia8/RunIISummer16NanoAODv7-PUMoriond17_Nano02Apr2020_102X_mcRun2_asymptotic_v8-v1/NANOAODSIM'
p23
ssS'ST_s_channel'
p24
(dp25
g6
F10.12
sg7
F0.1857
sg8
F0.01334
sg9
S'/eos/cms/store/group/phys_smp/AnalysisFramework/Baobab/Metin/gammaplusb/2016/MC/ST_s-channel_4f_InclusiveDecays_13TeV-amcatnlo-pythia8'
p26
sg11
F39.05
sg12
S'/ST_s-channel_4f_InclusiveDecays_13TeV-amcatnlo-pythia8/RunIISummer16NanoAODv7-PUMoriond17_Nano02Apr2020_102X_mcRun2_asymptotic_v8-v1/NANOAODSIM'
p27
ssS'ST_t_channel_top'
p28
(dp29
g6
F136.82
sg7
F0.0
sg8
F0.0
sg9
S'/eos/cms/store/group/phys_smp/AnalysisFramework/Baobab/Metin/gammaplusb/2016/MC/ST_t-channel_top_4f_inclusiveDecays_13TeV-powhegV2-madspin-pythia8_TuneCUETP8M1/'
p30
sg11
F0.0
sg12
S'/ST_t-channel_top_4f_inclusiveDecays_13TeV-powhegV2-madspin-pythia8_TuneCUETP8M1/RunIISummer16NanoAODv7-PUMoriond17_Nano02Apr2020_102X_mcRun2_asymptotic_v8-v2/NANOAODSIM'
p31
ssS'ST_tW_top'
p32
(dp33
g6
F38.09
sg7
F0.0
sg8
F0.0305
sg9
S'/eos/cms/store/group/phys_smp/AnalysisFramework/Baobab/Metin/gammaplusb/2016/MC/ST_tW_top_5f_inclusiveDecays_13TeV-powheg-pythia8_TuneCUETP8M1/'
p34
sg11
F26.25
sg12
S'/ST_tW_top_5f_inclusiveDecays_13TeV-powheg-pythia8_TuneCUETP8M1/RunIISummer16NanoAODv7-PUMoriond17_Nano02Apr2020_102X_mcRun2_asymptotic_v8_ext1-v1/NANOAODSIM'
p35
ssS'QCD'
p36
(dp37
g6
F1370000000.0
sg7
F0.0
sg8
F2159000.0
sg9
S'/eos/cms/store/group/phys_smp/AnalysisFramework/Baobab/Metin/gammaplusb/2016/MC/QCD_Pt-15to7000_TuneCUETP8M1_FlatP6_13TeV_pythia8/'
p38
sg11
F7.301e-07
sg12
S'/QCD_Pt-15to7000_TuneCUETP8M1_FlatP6_13TeV_pythia8/RunIISummer16NanoAODv7-PUMoriond17_Nano02Apr2020_102X_mcRun2_asymptotic_v8-v1/NANOAODSIM'
p39
ssS'TTGJets'
p40
(dp41
g6
F3.795
sg7
F0.3381
sg8
F0.02629
sg9
S'/eos/cms/store/group/phys_smp/AnalysisFramework/Baobab/Metin/gammaplusb/2016/MC/TTGJets_TuneCUETP8M1_13TeV-amcatnloFXFX-madspin-pythia8/'
p42
sg11
F27.63
sg12
S'/TTGJets_TuneCP5_13TeV-amcatnloFXFX-madspin-pythia8/RunIIFall17NanoAODv7-PU2017_12Apr2018_Nano02Apr2020_102X_mc2017_realistic_v8_ext1-v1/NANOAODSIM'
p43
ssS'TGJets'
p44
(dp45
g6
F2.967
sg7
F0.4008
sg8
F0.01052
sg9
S'/eos/cms/store/group/phys_smp/AnalysisFramework/Baobab/Metin/gammaplusb/2016/MC/TGJets_TuneCUETP8M1_13TeV_amcatnlo_madspin_pythia8/'
p46
sg11
F13.27
sg12
S'/TGJets_TuneCP5_13TeV_amcatnlo_madspin_pythia8/RunIIFall17NanoAODv7-PU2017_12Apr2018_Nano02Apr2020_102X_mc2017_realistic_v8-v1/NANOAODSIM'
p47
ssS'ST_tW_antitop'
p48
(dp49
g6
F38.06
sg7
F0.0
sg8
F0.03055
sg9
S'/eos/cms/store/group/phys_smp/AnalysisFramework/Baobab/Metin/gammaplusb/2016/MC/ST_tW_antitop_5f_inclusiveDecays_13TeV-powheg-pythia8_TuneCUETP8M1/'
p50
sg11
F26.27
sg12
S'/ST_tW_antitop_5f_inclusiveDecays_13TeV-powheg-pythia8_TuneCUETP8M1/RunIISummer16NanoAODv7-PUMoriond17_Nano02Apr2020_102X_mcRun2_asymptotic_v8_ext1-v1/NANOAODSIM'
p51
sssS'data'
p52
(dp53
S'SinglePhoton'
p54
(dp55
S'C'
p56
(dp57
g6
I1
sg7
F0.0
sg8
I1
sg9
S'/eos/cms/store/group/phys_smp/AnalysisFramework/Baobab/Metin/gammaplusb/2016/data/SinglePhoton/data/Run2016C_02Apr2020-v1'
p58
sg11
I1
sg12
S'/SinglePhoton/Run2016C-02Apr2020-v1/NANOAOD'
p59
ssS'B'
p60
(dp61
g6
I1
sg7
F0.0
sg8
I1
sg9
S'/eos/cms/store/group/phys_smp/AnalysisFramework/Baobab/Metin/gammaplusb/2016/data/SinglePhoton/data/Run2016B_02Apr2020_ver2-v1'
p62
sg11
I1
sg12
S'/SinglePhoton/Run2016B-02Apr2020_ver2-v1/NANOAOD'
p63
ssS'E'
p64
(dp65
g6
I1
sg7
F0.0
sg8
I1
sg9
S'/eos/cms/store/group/phys_smp/AnalysisFramework/Baobab/Metin/gammaplusb/2016/data/SinglePhoton/data/Run2016E_02Apr2020-v1'
p66
sg11
I1
sg12
S'/SinglePhoton/Run2016E-02Apr2020-v1/NANOAOD'
p67
ssS'D'
p68
(dp69
g6
I1
sg7
F0.0
sg8
I1
sg9
S'/eos/cms/store/group/phys_smp/AnalysisFramework/Baobab/Metin/gammaplusb/2016/data/SinglePhoton/data/Run2016D_02Apr2020-v1'
p70
sg11
I1
sg12
S'/SinglePhoton/Run2016D-02Apr2020-v1/NANOAOD'
p71
ssS'G'
p72
(dp73
g6
I1
sg7
F0.0
sg8
I1
sg9
S'/eos/cms/store/group/phys_smp/AnalysisFramework/Baobab/Metin/gammaplusb/2016/data/SinglePhoton/data/Run2016G_02Apr2020-v1'
p74
sg11
I1
sg12
S'/SinglePhoton/Run2016G-02Apr2020-v1/NANOAOD'
p75
ssS'F'
p76
(dp77
g6
I1
sg7
F0.0
sg8
I1
sg9
S'/eos/cms/store/group/phys_smp/AnalysisFramework/Baobab/Metin/gammaplusb/2016/data/SinglePhoton/data/Run2016F_02Apr2020-v1'
p78
sg11
I1
sg12
S'/SinglePhoton/Run2016F-02Apr2020-v1/NANOAOD'
p79
ssS'H'
p80
(dp81
g6
I1
sg7
F0.0
sg8
I1
sg9
S'/eos/cms/store/group/phys_smp/AnalysisFramework/Baobab/Metin/gammaplusb/2016/data/SinglePhoton/data/Run2016H_02Apr2020-v1'
p82
sg11
I1
sg12
S'/SinglePhoton/Run2016H-02Apr2020-v1/NANOAOD'
p83
sssss.