(dp0
I2016
(dp1
S'signal'
p2
(dp3
S'G1Jet_LHEGpt'
p4
(dp5
S'G1Jet_LHEGpt_250To400_2016'
p6
(dp7
S'xsec'
p8
F26.99
sS'fraction_negative_weight'
p9
F0.1697
sS'xsec_unc'
p10
F0.08345
sS'nevents'
p11
I3004010
sS'das_path'
p12
S'/G1Jet_LHEGpT-250To400_TuneCP5_13TeV-amcatnlo-pythia8/RunIISummer20UL16NanoAODv9-106X_mcRun2_asymptotic_v17-v1/NANOAODSIM'
p13
sS'equivalent_lumi'
p14
F17.17
sS'dir'
p15
S'/eos/user/e/ecasilar/SMPVJ_Gamma_BJETS/MC//2016/G1Jet_LHEGpt/High_PT_Tight//G1Jet_LHEGpT-250To400_TuneCP5_13TeV-amcatnlo-pythia8/hadd/'
p16
ssS'G1Jet_LHEGpt_400To675_2016'
p17
(dp18
g8
F3.395
sg9
F0.1638
sg10
F0.007753
sg11
I1000053
sg12
S'/G1Jet_LHEGpT-400To675_TuneCP5_13TeV-amcatnlo-pythia8/RunIISummer20UL16NanoAODv9-106X_mcRun2_asymptotic_v17-v1/NANOAODSIM'
p19
sg14
F133.2
sg15
S'/eos/user/e/ecasilar/SMPVJ_Gamma_BJETS/MC//2016/G1Jet_LHEGpt/High_PT_Tight//G1Jet_LHEGpT-400To675_TuneCP5_13TeV-amcatnlo-pythia8/hadd/'
p20
ssS'G1Jet_LHEGpt_150To250_2016'
p21
(dp22
g8
F226.2
sg9
F0.1738
sg10
F0.6433
sg11
I5862211
sg12
S'/G1Jet_LHEGpT-150To250_TuneCP5_13TeV-amcatnlo-pythia8/RunIISummer20UL16NanoAODv9-106X_mcRun2_asymptotic_v17-v1/NANOAODSIM'
p23
sg14
F1.882
sg15
S'/eos/user/e/ecasilar/SMPVJ_Gamma_BJETS/MC//2016/G1Jet_LHEGpt/High_PT_Tight//G1Jet_LHEGpT-150To250_TuneCP5_13TeV-amcatnlo-pythia8/hadd/'
p24
ssS'G1Jet_LHEGpt_675ToInf_2016'
p25
(dp26
g8
F0.2478
sg9
F0.1584
sg10
F0.0005027
sg11
I249174
sg12
S'/G1Jet_LHEGpT-675ToInf_TuneCP5_13TeV-amcatnlo-pythia8/RunIISummer20UL16NanoAODv9-106X_mcRun2_asymptotic_v17-v1/NANOAODSIM'
p27
sg14
F1883.0
sg15
S'/eos/user/e/ecasilar/SMPVJ_Gamma_BJETS/MC//2016/G1Jet_LHEGpt/High_PT_Tight//G1Jet_LHEGpT-675ToInf_TuneCP5_13TeV-amcatnlo-pythia8/hadd/'
p28
sssS'GJets_DR_0p4_HT_PreVFP'
p29
(dp30
S'GJets_DR_0p4_HT_PreVFP_100To200_2016'
p31
(dp32
g8
F5034.0
sg9
F0.0
sg10
F14.69
sg11
I5069975
sg12
S'/GJets_DR_0p4_HT-100To200_TuneCP5_13TeV-madgraphMLM-pythia8/RunIISummer20UL16NanoAODAPVv9-106X_mcRun2_asymptotic_preVFP_v11-v2/NANOAODSIM'
p33
sg14
F0.1986
sg15
S'/eos/user/m/myalvac/GPlusBJets/MC//2016/GJets_DR_0p4_HT_PreVFP/High_PT_Tight/GJets_DR-0p4_HT-100To200_TuneCP5_13TeV-madgraphMLM-pythia8/hadd/'
p34
ssS'GJets_DR_0p4_HT_PreVFP_400To600_2016'
p35
(dp36
g8
F126.2
sg9
F0.0
sg10
F0.03779
sg11
I4116285
sg12
S'/GJets_DR_0p4_HT-400To600_TuneCP5_13TeV-madgraphMLM-pythia8/RunIISummer20UL16NanoAODAPVv9-106X_mcRun2_asymptotic_preVFP_v11-v2/NANOAODSIM'
p37
sg14
F7.921
sg15
S'/eos/user/m/myalvac/GPlusBJets/MC//2016/GJets_DR_0p4_HT_PreVFP/High_PT_Tight/GJets_DR-0p4_HT-400To600_TuneCP5_13TeV-madgraphMLM-pythia8/hadd/'
p38
ssS'GJets_DR_0p4_HT_PreVFP_200To400_2016'
p39
(dp40
g8
F1129.0
sg9
F0.0
sg10
F3.338
sg11
I14620395
sg12
S'/GJets_DR_0p4_HT-200To400_TuneCP5_13TeV-madgraphMLM-pythia8/RunIISummer20UL16NanoAODAPVv9-106X_mcRun2_asymptotic_preVFP_v11-v2/NANOAODSIM'
p41
sg14
F0.8859
sg15
S'/eos/user/m/myalvac/GPlusBJets/MC//2016/GJets_DR_0p4_HT_PreVFP/High_PT_Tight/GJets_DR-0p4_HT-200To400_TuneCP5_13TeV-madgraphMLM-pythia8/hadd/'
p42
ssS'GJets_DR_0p4_HT_PreVFP_600ToInf_2016'
p43
(dp44
g8
F41.31
sg9
F0.0
sg10
F0.1242
sg11
I3936783
sg12
S'/GJets_DR_0p4_HT-600ToInf_TuneCP5_13TeV-madgraphMLM-pythia8/RunIISummer20UL16NanoAODAPVv9-106X_mcRun2_asymptotic_preVFP_v11-v2/NANOAODSIM'
p45
sg14
F24.21
sg15
S'/eos/user/m/myalvac/GPlusBJets/MC//2016/GJets_DR_0p4_HT_PreVFP/High_PT_Tight/GJets_DR-0p4_HT-600ToInf_TuneCP5_13TeV-madgraphMLM-pythia8/hadd/'
p46
sssS'GJets_DR_0p4_HT'
p47
(dp48
S'GJets_DR_0p4_HT_100To200_2016'
p49
(dp50
g8
F5034.0
sg9
F0.0
sg10
F14.69
sg11
I4421327
sg12
S'/GJets_DR_0p4_HT-100To200_TuneCP5_13TeV-madgraphMLM-pythia8/RunIISummer20UL16NanoAODv9-106X_mcRun2_asymptotic_v17-v2/NANOAODSIM'
p51
sg14
F0.1986
sg15
S'/eos/user/m/myalvac/GPlusBJets/MC//2016/GJets_DR_0p4_HT/High_PT_Tight/GJets_DR-0p4_HT-100To200_TuneCP5_13TeV-madgraphMLM-pythia8/hadd/'
p52
ssS'GJets_DR_0p4_HT_600ToInf_2016'
p53
(dp54
g8
F41.31
sg9
F0.0
sg10
F0.1242
sg11
I3427780
sg12
S'/GJets_DR_0p4_HT-600ToInf_TuneCP5_13TeV-madgraphMLM-pythia8/RunIISummer20UL16NanoAODv9-106X_mcRun2_asymptotic_v17-v2/NANOAODSIM'
p55
sg14
F24.21
sg15
S'/eos/user/m/myalvac/GPlusBJets/MC//2016/GJets_DR_0p4_HT/High_PT_Tight/GJets_DR-0p4_HT-600ToInf_TuneCP5_13TeV-madgraphMLM-pythia8/hadd/'
p56
ssS'GJets_DR_0p4_HT_200To400_2016'
p57
(dp58
g8
F1129.0
sg9
F0.0
sg10
F3.338
sg11
I13744262
sg12
S'/GJets_DR_0p4_HT-200To400_TuneCP5_13TeV-madgraphMLM-pythia8/RunIISummer20UL16NanoAODv9-106X_mcRun2_asymptotic_v17-v2/NANOAODSIM'
p59
sg14
F0.8859
sg15
S'/eos/user/m/myalvac/GPlusBJets/MC//2016/GJets_DR_0p4_HT/High_PT_Tight/GJets_DR-0p4_HT-200To400_TuneCP5_13TeV-madgraphMLM-pythia8/hadd/'
p60
ssS'GJets_DR_0p4_HT_400To600_2016'
p61
(dp62
g8
F126.2
sg9
F0.0
sg10
F0.03779
sg11
I4124520
sg12
S'/GJets_DR_0p4_HT-400To600_TuneCP5_13TeV-madgraphMLM-pythia8/RunIISummer20UL16NanoAODv9-106X_mcRun2_asymptotic_v17-v2/NANOAODSIM'
p63
sg14
F7.921
sg15
S'/eos/user/m/myalvac/GPlusBJets/MC//2016/GJets_DR_0p4_HT/High_PT_Tight/GJets_DR-0p4_HT-400To600_TuneCP5_13TeV-madgraphMLM-pythia8/hadd/'
p64
sssS'G1Jet_LHEGPt_PreVFP'
p65
(dp66
S'G1Jet_LHEGPt_PreVFP_150To250_2016'
p67
(dp68
g8
F226.2
sg9
F0.1738
sg10
F0.6433
sg11
I5861243
sg12
g23
sg14
F1.882
sg15
S'/eos/user/m/myalvac/GPlusBJets/MC//2016/G1Jet_LHEGPt_PreVFP/High_PT_Tight//G1Jet_LHEGpT-150To250_TuneCP5_13TeV-amcatnlo-pythia8/hadd/'
p69
ssS'G1Jet_LHEGPt_PreVFP_675ToInf_2016'
p70
(dp71
g8
F0.2478
sg9
F0.1584
sg10
F0.0005027
sg11
I249100
sg12
g27
sg14
F1883.0
sg15
S'/eos/user/m/myalvac/GPlusBJets/MC//2016/G1Jet_LHEGPt_PreVFP/High_PT_Tight//G1Jet_LHEGpT-675ToInf_TuneCP5_13TeV-amcatnlo-pythia8/hadd/'
p72
ssS'G1Jet_LHEGPt_PreVFP_250To400_2016'
p73
(dp74
g8
F26.99
sg9
F0.1697
sg10
F0.08345
sg11
I2918574
sg12
g13
sg14
F17.17
sg15
S'/eos/user/m/myalvac/GPlusBJets/MC//2016/G1Jet_LHEGPt_PreVFP/High_PT_Tight//G1Jet_LHEGpT-250To400_TuneCP5_13TeV-amcatnlo-pythia8/hadd/'
p75
ssS'G1Jet_LHEGPt_PreVFP_400To675_2016'
p76
(dp77
g8
F3.395
sg9
F0.1638
sg10
F0.007753
sg11
I999246
sg12
g19
sg14
F133.2
sg15
S'/eos/user/m/myalvac/GPlusBJets/MC//2016/G1Jet_LHEGPt_PreVFP/High_PT_Tight//G1Jet_LHEGpT-400To675_TuneCP5_13TeV-amcatnlo-pythia8/hadd/'
p78
ssssS'bkg'
p79
(dp80
S'TTGJets_UL_2016_PreVFP'
p81
(dp82
g8
F3.757
sg9
F0.3218
sg10
F0.02243
sg11
I3534208
sg12
S'/TTGJets_TuneCP5_13TeV-amcatnloFXFX-madspin-pythia8/RunIISummer20UL17NanoAODv9-106X_mc2017_realistic_v9-v1/NANOAODSIM'
p83
sg14
F33.81
sg15
S'/eos/user/m/myalvac/GPlusBJets/MC//2017/TTGJets_UL_2017/High_PT_Tight/TTGJets_TuneCP5_13TeV-amcatnloFXFX-madspin-pythia8/hadd/'
p84
ssS'TGJets_UL_2016_PreVFP'
p85
(dp86
g8
F2.997
sg9
F0.3959
sg10
F0.01239
sg11
I1965000
sg12
S'/TGJets_TuneCP5_13TeV-amcatnlo-madspin-pythia8/RunIISummer20UL17NanoAODv9-106X_mc2017_realistic_v9-v2/NANOAODSIM'
p87
sg14
F14.46
sg15
S'/eos/user/m/myalvac/GPlusBJets/MC//2017/TGJets_UL_2017/High_PT_Tight/TGJets_TuneCP5_13TeV-amcatnlo-madspin-pythia8/hadd/'
p88
ssS'QCD_bEnriched_HT_UL2016_PreVFP'
p89
(dp90
S'QCD_bEnriched_HT_UL2016_PreVFP_2000ToInf'
p91
(dp92
g8
F0.6967
sg9
F0.0
sg10
F0.002099
sg11
I668223
sg12
S'/QCD_bEnriched_HT200toInf_TuneCP5_13TeV-madgraph-pythia8/RunIISummer20UL16NanoAODAPVv9-106X_mcRun2_asymptotic_preVFP_v11-v1/NANOAODSIM'
p93
sg14
F1435.0
sg15
S'/eos/user/m/myalvac/GPlusBJets/MC//2016/QCD_bEnriched_HT_UL2016_PreVFP/High_PT_Tight//QCD_bEnriched_HT2000toInf_TuneCP5_13TeV-madgraph-pythia8/hadd/'
p94
ssS'QCD_bEnriched_HT_UL2016_PreVFP_100To200'
p95
(dp96
g8
F1127000.0
sg9
F0.0
sg10
F3241.0
sg11
I17657456
sg12
S'/QCD_bEnriched_HT100to200_TuneCP5_13TeV-madgraph-pythia8/RunIISummer20UL16NanoAODAPVv9-106X_mcRun2_asymptotic_preVFP_v11-v1/NANOAODSIM'
p97
sg14
F0.0008871
sg15
S'/eos/user/m/myalvac/GPlusBJets/MC//2016/QCD_bEnriched_HT_UL2016_PreVFP/High_PT_Tight//QCD_bEnriched_HT100to200_TuneCP5_13TeV-madgraph-pythia8/hadd/'
p98
ssS'QCD_bEnriched_HT_UL2016_PreVFP_700To1000'
p99
(dp100
g8
F298.8
sg9
F0.0
sg10
F0.8983
sg11
I979344
sg12
S'/QCD_bEnriched_HT700to1000_TuneCP5_13TeV-madgraph-pythia8/RunIISummer20UL16NanoAODAPVv9-106X_mcRun2_asymptotic_preVFP_v11-v1/NANOAODSIM'
p101
sg14
F3.347
sg15
S'/eos/user/m/myalvac/GPlusBJets/MC//2016/QCD_bEnriched_HT_UL2016_PreVFP/High_PT_Tight//QCD_bEnriched_HT700to1000_TuneCP5_13TeV-madgraph-pythia8/hadd/'
p102
ssS'QCD_bEnriched_HT_UL2016_PreVFP_300To500'
p103
(dp104
g8
F16700.0
sg9
F0.0
sg10
F49.74
sg11
I4978755
sg12
S'/QCD_bEnriched_HT300to500_TuneCP5_13TeV-madgraph-pythia8/RunIISummer20UL16NanoAODAPVv9-106X_mcRun2_asymptotic_preVFP_v11-v1/NANOAODSIM'
p105
sg14
F0.05988
sg15
S'/eos/user/m/myalvac/GPlusBJets/MC//2016/QCD_bEnriched_HT_UL2016_PreVFP/High_PT_Tight//QCD_bEnriched_HT300to500_TuneCP5_13TeV-madgraph-pythia8/hadd/'
p106
ssS'QCD_bEnriched_HT_UL2016_PreVFP_1000To1500'
p107
(dp108
g8
F46.61
sg9
F0.002946
sg10
F0.2002
sg11
I591966
sg12
S'/QCD_bEnriched_HT1000to1500_TuneCP5_13TeV-madgraph-pythia8/RunIISummer20UL16NanoAODAPVv9-106X_mcRun2_asymptotic_preVFP_v11-v1/NANOAODSIM'
p109
sg14
F21.2
sg15
S'/eos/user/m/myalvac/GPlusBJets/MC//2016/QCD_bEnriched_HT_UL2016_PreVFP/High_PT_Tight//QCD_bEnriched_HT1000to1500_TuneCP5_13TeV-madgraph-pythia8/hadd/'
p110
ssS'QCD_bEnriched_HT_UL2016_PreVFP_500To700'
p111
(dp112
g8
F1487.0
sg9
F0.001047
sg10
F4.442
sg11
I4433560
sg12
S'/QCD_bEnriched_HT500to700_TuneCP5_13TeV-madgraph-pythia8/RunIISummer20UL16NanoAODAPVv9-106X_mcRun2_asymptotic_preVFP_v11-v1/NANOAODSIM'
p113
sg14
F0.6699
sg15
S'/eos/user/m/myalvac/GPlusBJets/MC//2016/QCD_bEnriched_HT_UL2016_PreVFP/High_PT_Tight//QCD_bEnriched_HT500to700_TuneCP5_13TeV-madgraph-pythia8/hadd/'
p114
ssS'QCD_bEnriched_HT_UL2016_PreVFP_1500To2000'
p115
(dp116
g8
F4.017
sg9
F0.0
sg10
F0.01213
sg11
I675657
sg12
S'/QCD_bEnriched_HT1500to2000_TuneCP5_13TeV-madgraph-pythia8/RunIISummer20UL16NanoAODAPVv9-106X_mcRun2_asymptotic_preVFP_v11-v1/NANOAODSIM'
p117
sg14
F248.9
sg15
S'/eos/user/m/myalvac/GPlusBJets/MC//2016/QCD_bEnriched_HT_UL2016_PreVFP/High_PT_Tight//QCD_bEnriched_HT1500to2000_TuneCP5_13TeV-madgraph-pythia8/hadd/'
p118
ssS'QCD_bEnriched_HT_UL2016_PreVFP_200To300'
p119
(dp120
g8
F80220.0
sg9
F0.0
sg10
F235.7
sg11
I8886507
sg12
S'//QCD_bEnriched_HT200to300_TuneCP5_13TeV-madgraph-pythia8/RunIISummer20UL16NanoAODAPVv9-106X_mcRun2_asymptotic_preVFP_v11-v1/NANOAODSIM'
p121
sg14
F0.01247
sg15
S'/eos/user/m/myalvac/GPlusBJets/MC//2016/QCD_bEnriched_HT_UL2016_PreVFP/High_PT_Tight//QCD_bEnriched_HT200to300_TuneCP5_13TeV-madgraph-pythia8/hadd/'
p122
sssS'QCD_HT_UL2016'
p123
(dp124
S'QCD_HT_UL2016_300To500'
p125
(dp126
g8
F324500.0
sg9
F0.0
sg10
F75.53
sg11
I16747056
sg12
S'/QCD_HT300to500_TuneCP5_PSWeights_13TeV-madgraph-pythia8/RunIISummer20UL16NanoAODv9-106X_mcRun2_asymptotic_v17-v1/NANOAODSIM'
p127
sg14
F0.003082
sg15
S'/eos/user/e/ecasilar/SMPVJ_Gamma_BJETS/MC/QCD_HT_UL2016/High_PT_Tight//QCD_HT300to500_TuneCP5_PSWeights_13TeV-madgraph-pythia8/hadd/'
p128
ssS'QCD_HT_UL2016_200To300'
p129
(dp130
g8
F1553000.0
sg9
F0.0
sg10
F349.9
sg11
I17569141
sg12
S'/QCD_HT200to300_TuneCP5_PSWeights_13TeV-madgraph-pythia8/RunIISummer20UL16NanoAODv9-106X_mcRun2_asymptotic_v17-v1/NANOAODSIM'
p131
sg14
F0.000644
sg15
S'/eos/user/e/ecasilar/SMPVJ_Gamma_BJETS/MC/QCD_HT_UL2016/High_PT_Tight//QCD_HT200to300_TuneCP5_PSWeights_13TeV-madgraph-pythia8/hadd/'
p132
ssS'QCD_HT_UL2016_2000ToInf'
p133
(dp134
g8
F22.04
sg9
F0.0
sg10
F0.0156
sg11
I1847781
sg12
S'/QCD_HT2000toInf_TuneCP5_PSWeights_13TeV-madgraph-pythia8/RunIISummer20UL16NanoAODv9-106X_mcRun2_asymptotic_v17-v1/NANOAODSIM'
p135
sg14
F45.38
sg15
S'/eos/user/e/ecasilar/SMPVJ_Gamma_BJETS/MC/QCD_HT_UL2016/High_PT_Tight//QCD_HT2000toInf_TuneCP5_PSWeights_13TeV-madgraph-pythia8/hadd/'
p136
ssS'QCD_HT_UL2016_1500To2000'
p137
(dp138
g8
F108.3
sg9
F0.0
sg10
F0.05823
sg11
I3003707
sg12
S'/QCD_HT1500to2000_TuneCP5_PSWeights_13TeV-madgraph-pythia8/RunIISummer20UL16NanoAODv9-106X_mcRun2_asymptotic_v17-v1/NANOAODSIM'
p139
sg14
F9.23
sg15
S'/eos/user/e/ecasilar/SMPVJ_Gamma_BJETS/MC/QCD_HT_UL2016/High_PT_Tight//QCD_HT1500to2000_TuneCP5_PSWeights_13TeV-madgraph-pythia8/hadd/'
p140
ssS'QCD_HT_UL2016_50To100'
p141
(dp142
g8
F186000000.0
sg9
F0.0
sg10
F48970.0
sg11
I11197186
sg12
S'/QCD_HT50to100_TuneCP5_PSWeights_13TeV-madgraph-pythia8/RunIISummer20UL16NanoAODv9-106X_mcRun2_asymptotic_v17-v1/NANOAODSIM'
p143
sg14
F5.377e-06
sg15
S'/eos/user/e/ecasilar/SMPVJ_Gamma_BJETS/MC/QCD_HT_UL2016/High_PT_Tight//QCD_HT50to100_TuneCP5_PSWeights_13TeV-madgraph-pythia8/hadd/'
p144
ssS'QCD_HT_UL2016_700To1000'
p145
(dp146
g8
F6437.0
sg9
F0.0
sg10
F1.658
sg11
I13750537
sg12
S'/QCD_HT700to1000_TuneCP5_PSWeights_13TeV-madgraph-pythia8/RunIISummer20UL16NanoAODv9-106X_mcRun2_asymptotic_v17-v1/NANOAODSIM'
p147
sg14
F0.1554
sg15
S'/eos/user/e/ecasilar/SMPVJ_Gamma_BJETS/MC/QCD_HT_UL2016/High_PT_Tight//QCD_HT700to1000_TuneCP5_PSWeights_13TeV-madgraph-pythia8/hadd/'
p148
ssS'QCD_HT_UL2016_1000To1500'
p149
(dp150
g8
F1122.0
sg9
F0.0
sg10
F0.5173
sg11
I4365993
sg12
S'/QCD_HT1000to1500_TuneCP5_PSWeights_13TeV-madgraph-pythia8/RunIISummer20UL16NanoAODv9-106X_mcRun2_asymptotic_v17-v1/NANOAODSIM'
p151
sg14
F0.8911
sg15
S'/eos/user/e/ecasilar/SMPVJ_Gamma_BJETS/MC/QCD_HT_UL2016/High_PT_Tight//QCD_HT1000to1500_TuneCP5_PSWeights_13TeV-madgraph-pythia8/hadd/'
p152
ssS'QCD_HT_UL2016_500To700'
p153
(dp154
g8
F30280.0
sg9
F0.0
sg10
F7.439
sg11
I14212819
sg12
S'/QCD_HT500to700_TuneCP5_PSWeights_13TeV-madgraph-pythia8/RunIISummer20UL16NanoAODv9-106X_mcRun2_asymptotic_v17-v1/NANOAODSIM'
p155
sg14
F0.03303
sg15
S'/eos/user/e/ecasilar/SMPVJ_Gamma_BJETS/MC/QCD_HT_UL2016/High_PT_Tight//QCD_HT500to700_TuneCP5_PSWeights_13TeV-madgraph-pythia8/hadd/'
p156
ssS'QCD_HT_UL2016_100To200'
p157
(dp158
g8
F23650000.0
sg9
F0.0
sg10
F4467.0
sg11
I23717410
sg12
S'/QCD_HT100to200_TuneCP5_PSWeights_13TeV-madgraph-pythia8/RunIISummer20UL16NanoAODv9-106X_mcRun2_asymptotic_v17-v1/NANOAODSIM'
p159
sg14
F4.229e-05
sg15
S'/eos/user/e/ecasilar/SMPVJ_Gamma_BJETS/MC/QCD_HT_UL2016/High_PT_Tight//QCD_HT100to200_TuneCP5_PSWeights_13TeV-madgraph-pythia8/hadd/'
p160
sssS'TTGJets_UL_2016'
p161
(dp162
g8
F3.757
sg9
F0.3218
sg10
F0.02243
sg11
I3534208
sg12
g83
sg14
F33.81
sg15
g84
ssS'ZGToLLG_UL_2016_PreVFP'
p163
(dp164
g8
F51.1
sg9
F0.1923
sg10
F0.8077
sg11
I29890946
sg12
S'/ZGToLLG_01J_5f_TuneCP5_13TeV-amcatnloFXFX-pythia8/RunIISummer20UL17NanoAODv9-106X_mc2017_realistic_v9-v1/NANOAODSIM'
p165
sg14
F7.41
sg15
S'/eos/user/m/myalvac/GPlusBJets/MC//2017/ZGToLLG_UL_2017/High_PT_Tight/ZGToLLG_01J_5f_TuneCP5_13TeV-amcatnloFXFX-pythia8/hadd/'
p166
ssS'QCD_HT_UL2016_PreVFP'
p167
(dp168
S'QCD_HT_UL2016_PreVFP_200To300'
p169
(dp170
g8
F1553000.0
sg9
F0.0
sg10
F349.9
sg11
I16524587
sg12
g131
sg14
F0.000644
sg15
S'/eos/user/m/myalvac/GPlusBJets/MC//2016/QCD_HT_UL2016_PreVFP/High_PT_Tight//QCD_HT200to300_TuneCP5_PSWeights_13TeV-madgraph-pythia8/hadd/'
p171
ssS'QCD_HT_UL2016_PreVFP_1500To2000'
p172
(dp173
g8
F108.3
sg9
F0.0
sg10
F0.05823
sg11
I3503675
sg12
g139
sg14
F9.23
sg15
S'/eos/user/m/myalvac/GPlusBJets/MC//2016/QCD_HT_UL2016_PreVFP/High_PT_Tight//QCD_HT1500to2000_TuneCP5_PSWeights_13TeV-madgraph-pythia8/hadd/'
p174
ssS'QCD_HT_UL2016_PreVFP_300To500'
p175
(dp176
g8
F324500.0
sg9
F0.0
sg10
F75.53
sg11
I15183920
sg12
g127
sg14
F0.003082
sg15
S'/eos/user/m/myalvac/GPlusBJets/MC//2016/QCD_HT_UL2016_PreVFP/High_PT_Tight//QCD_HT300to500_TuneCP5_PSWeights_13TeV-madgraph-pythia8/hadd/'
p177
ssS'QCD_HT_UL2016_PreVFP_700To1000'
p178
(dp179
g8
F6437.0
sg9
F0.0
sg10
F1.658
sg11
I15808790
sg12
g147
sg14
F0.1554
sg15
S'/eos/user/m/myalvac/GPlusBJets/MC//2016/QCD_HT_UL2016_PreVFP/High_PT_Tight//QCD_HT700to1000_TuneCP5_PSWeights_13TeV-madgraph-pythia8/hadd/'
p180
ssS'QCD_HT_UL2016_PreVFP_100To200'
p181
(dp182
g8
F23650000.0
sg9
F0.0
sg10
F4467.0
sg11
I26312661
sg12
g159
sg14
F4.229e-05
sg15
S'/eos/user/m/myalvac/GPlusBJets/MC//2016/QCD_HT_UL2016_PreVFP/High_PT_Tight//QCD_HT100to200_TuneCP5_PSWeights_13TeV-madgraph-pythia8/hadd/'
p183
ssS'QCD_HT_UL2016_PreVFP_500To700'
p184
(dp185
g8
F30280.0
sg9
F0.0
sg10
F7.439
sg11
I15775001
sg12
g155
sg14
F0.03303
sg15
S'/eos/user/m/myalvac/GPlusBJets/MC//2016/QCD_HT_UL2016_PreVFP/High_PT_Tight//QCD_HT500to700_TuneCP5_PSWeights_13TeV-madgraph-pythia8/hadd/'
p186
ssS'QCD_HT_UL2016_PreVFP_50To100'
p187
(dp188
g8
F186000000.0
sg9
F0.0
sg10
F48970.0
sg11
I12233035
sg12
g143
sg14
F5.377e-06
sg15
S'/eos/user/m/myalvac/GPlusBJets/MC//2016/QCD_HT_UL2016_PreVFP/High_PT_Tight//QCD_HT50to100_TuneCP5_PSWeights_13TeV-madgraph-pythia8/hadd/'
p189
ssS'QCD_HT_UL2016_PreVFP_2000ToInf'
p190
(dp191
g8
F22.04
sg9
F0.0
sg10
F0.0156
sg11
I1629000
sg12
g135
sg14
F45.38
sg15
S'/eos/user/m/myalvac/GPlusBJets/MC//2016/QCD_HT_UL2016_PreVFP/High_PT_Tight//QCD_HT2000toInf_TuneCP5_PSWeights_13TeV-madgraph-pythia8/hadd/'
p192
ssS'QCD_HT_UL2016_PreVFP_1000To1500'
p193
(dp194
g8
F1122.0
sg9
F0.0
sg10
F0.5173
sg11
I4773503
sg12
g151
sg14
F0.8911
sg15
S'/eos/user/m/myalvac/GPlusBJets/MC//2016/QCD_HT_UL2016_PreVFP/High_PT_Tight//QCD_HT1000to1500_TuneCP5_PSWeights_13TeV-madgraph-pythia8/hadd/'
p195
sssS'ZGToLLG_UL_2016'
p196
(dp197
g8
F51.1
sg9
F0.1923
sg10
F0.8077
sg11
I29890946
sg12
g165
sg14
F7.41
sg15
g166
ssS'WZG_UL_2016_PreVFP'
p198
(dp199
g8
F3.75
sg9
F0.07975
sg10
F4.524e-05
sg11
I1400000
sg12
S'/WZG_TuneCP5_13TeV-amcatnlo-pythia8/RunIISummer20UL17NanoAODv9-106X_mc2017_realistic_v9-v1/NANOAODSIM'
p200
sg14
F16260.0
sg15
S'/eos/user/m/myalvac/GPlusBJets/MC//2017/WZG_UL_2017/High_PT_Tight/WZG_TuneCP5_13TeV-amcatnlo-pythia8/hadd/'
p201
ssS'WZG_UL_2016'
p202
(dp203
g8
F3.75
sg9
F0.07975
sg10
F4.524e-05
sg11
I1400000
sg12
g200
sg14
F16260.0
sg15
g201
ssS'QCD_bEnriched_HT_UL2016'
p204
(dp205
S'QCD_bEnriched_HT_UL2016_100To200'
p206
(dp207
g8
F1127000.0
sg9
F0.0
sg10
F3241.0
sg11
I19202473
sg12
S'/QCD_bEnriched_HT100to200_TuneCP5_13TeV-madgraph-pythia8/RunIISummer20UL16NanoAODv9-106X_mcRun2_asymptotic_v17-v1/NANOAODSIM'
p208
sg14
F0.0008871
sg15
S'/eos/user/m/myalvac/GPlusBJets/MC//2016/QCD_bEnriched_HT_UL2016/High_PT_Tight//QCD_bEnriched_HT100to200_TuneCP5_13TeV-madgraph-pythia8/hadd/'
p209
ssS'QCD_bEnriched_HT_UL2016_300To500'
p210
(dp211
g8
F16700.0
sg9
F0.0
sg10
F49.74
sg11
I5612374
sg12
S'/QCD_bEnriched_HT300to500_TuneCP5_13TeV-madgraph-pythia8/RunIISummer20UL16NanoAODv9-106X_mcRun2_asymptotic_v17-v1/NANOAODSIM'
p212
sg14
F0.05988
sg15
S'/eos/user/m/myalvac/GPlusBJets/MC//2016/QCD_bEnriched_HT_UL2016/High_PT_Tight//QCD_bEnriched_HT300to500_TuneCP5_13TeV-madgraph-pythia8/hadd/'
p213
ssS'QCD_bEnriched_HT_UL2016_200To300'
p214
(dp215
g8
F80220.0
sg9
F0.0
sg10
F235.7
sg11
I9196799
sg12
S'/QCD_bEnriched_HT200to300_TuneCP5_13TeV-madgraph-pythia8/RunIISummer20UL16NanoAODv9-106X_mcRun2_asymptotic_v17-v1/NANOAODSIM'
p216
sg14
F0.01247
sg15
S'/eos/user/m/myalvac/GPlusBJets/MC//2016/QCD_bEnriched_HT_UL2016/High_PT_Tight//QCD_bEnriched_HT200to300_TuneCP5_13TeV-madgraph-pythia8/hadd/'
p217
ssS'QCD_bEnriched_HT_UL2016_1500To2000'
p218
(dp219
g8
F4.017
sg9
F0.0
sg10
F0.01213
sg11
I698469
sg12
S'/QCD_bEnriched_HT1500to2000_TuneCP5_13TeV-madgraph-pythia8/RunIISummer20UL16NanoAODv9-106X_mcRun2_asymptotic_v17-v1/NANOAODSIM'
p220
sg14
F248.9
sg15
S'/eos/user/m/myalvac/GPlusBJets/MC//2016/QCD_bEnriched_HT_UL2016/High_PT_Tight//QCD_bEnriched_HT1500to2000_TuneCP5_13TeV-madgraph-pythia8/hadd/'
p221
ssS'QCD_bEnriched_HT_UL2016_1000To1500'
p222
(dp223
g8
F46.61
sg9
F0.002946
sg10
F0.2002
sg11
I663922
sg12
S'/QCD_bEnriched_HT1000to1500_TuneCP5_13TeV-madgraph-pythia8/RunIISummer20UL16NanoAODv9-106X_mcRun2_asymptotic_v17-v1/NANOAODSIM'
p224
sg14
F21.2
sg15
S'/eos/user/m/myalvac/GPlusBJets/MC//2016/QCD_bEnriched_HT_UL2016/High_PT_Tight//QCD_bEnriched_HT1000to1500_TuneCP5_13TeV-madgraph-pythia8/hadd/'
p225
ssS'QCD_bEnriched_HT_UL2016_500To700'
p226
(dp227
g8
F1487.0
sg9
F0.001047
sg10
F4.442
sg11
I4616176
sg12
S'/QCD_bEnriched_HT500to700_TuneCP5_13TeV-madgraph-pythia8/RunIISummer20UL16NanoAODv9-106X_mcRun2_asymptotic_v17-v1/NANOAODSIM'
p228
sg14
F0.6699
sg15
S'/eos/user/m/myalvac/GPlusBJets/MC//2016/QCD_bEnriched_HT_UL2016/High_PT_Tight//QCD_bEnriched_HT500to700_TuneCP5_13TeV-madgraph-pythia8/hadd/'
p229
ssS'QCD_bEnriched_HT_UL2016_700To1000'
p230
(dp231
g8
F298.8
sg9
F0.0
sg10
F0.8983
sg11
I903293
sg12
S'/QCD_bEnriched_HT700to1000_TuneCP5_13TeV-madgraph-pythia8/RunIISummer20UL16NanoAODv9-106X_mcRun2_asymptotic_v17-v1/NANOAODSIM'
p232
sg14
F3.347
sg15
S'/eos/user/m/myalvac/GPlusBJets/MC//2016/QCD_bEnriched_HT_UL2016/High_PT_Tight//QCD_bEnriched_HT700to1000_TuneCP5_13TeV-madgraph-pythia8/hadd/'
p233
ssS'QCD_bEnriched_HT_UL2016_2000ToInf'
p234
(dp235
g8
F0.6967
sg9
F0.0
sg10
F0.002099
sg11
I684942
sg12
S'/QCD_bEnriched_HT2000toInf_TuneCP5_13TeV-madgraph-pythia8/RunIISummer20UL16NanoAODv9-106X_mcRun2_asymptotic_v17-v1/NANOAODSIM'
p236
sg14
F1435.0
sg15
S'/eos/user/m/myalvac/GPlusBJets/MC//2016/QCD_bEnriched_HT_UL2016/High_PT_Tight//QCD_bEnriched_HT2000toInf_TuneCP5_13TeV-madgraph-pythia8/hadd/'
p237
sssS'TGJets_UL_2016'
p238
(dp239
g8
F2.997
sg9
F0.3959
sg10
F0.01239
sg11
I1965000
sg12
g87
sg14
F14.46
sg15
g88
sssS'data'
p240
(dp241
S'SinglePhoton_UL_PostVFP'
p242
(dp243
S'F_noHIPM'
p244
(dp245
g8
I1
sg9
F0.0
sg10
I1
sg15
S'/eos/user/e/ecasilar/SMPVJ_Gamma_BJETS/data/2016/SinglePhoton_UL/High_PT_Tight/run2016F_noHIPM/hadd/'
p246
sg14
I1
sg12
S'/SinglePhoton/Run2016F-UL2016_MiniAODv2_NanoAODv9-v1/NANOAOD'
p247
ssS'H'
p248
(dp249
g8
I1
sg9
F0.0
sg10
I1
sg15
S'/eos/user/e/ecasilar/SMPVJ_Gamma_BJETS/data/2016/SinglePhoton_UL/High_PT_Tight/Run2016H/hadd/'
p250
sg14
I1
sg12
S'/SinglePhoton/Run2016H-UL2016_MiniAODv2_NanoAODv9-v2/NANOAOD'
p251
ssS'G'
p252
(dp253
g8
I1
sg9
F0.0
sg10
I1
sg15
S'/eos/user/e/ecasilar/SMPVJ_Gamma_BJETS/data/2016/SinglePhoton_UL/High_PT_Tight/Run2016G/hadd/'
p254
sg14
I1
sg12
S'/SinglePhoton/Run2016G-UL2016_MiniAODv2_NanoAODv9-v2/NANOAOD'
p255
sssS'SinglePhoton_UL_PreVFP'
p256
(dp257
S'C'
p258
(dp259
g8
I1
sg9
F0.0
sg10
I1
sg15
S'/eos/user/m/myalvac/GPlusBJets/data/2016/SinglePhoton_UL/High_PT_Tight/Run2016C/hadd/'
p260
sg14
I1
sg12
S'/SinglePhoton/Run2016C-HIPM_UL2016_MiniAODv2_NanoAODv9-v1/NANOAOD'
p261
ssS'E'
p262
(dp263
g8
I1
sg9
F0.0
sg10
I1
sg15
S'/eos/user/m/myalvac/GPlusBJets/data/2016/SinglePhoton_UL/High_PT_Tight/Run2016E/hadd/'
p264
sg14
I1
sg12
S'/SinglePhoton/Run2016E-HIPM_UL2016_MiniAODv2_NanoAODv9-v1/NANOAOD'
p265
ssS'D'
p266
(dp267
g8
I1
sg9
F0.0
sg10
I1
sg15
S'/eos/user/m/myalvac/GPlusBJets/data/2016/SinglePhoton_UL/High_PT_Tight/Run2016D/hadd/'
p268
sg14
I1
sg12
S'/SinglePhoton/Run2016D-HIPM_UL2016_MiniAODv2_NanoAODv9-v1/NANOAOD'
p269
ssS'F'
p270
(dp271
g8
I1
sg9
F0.0
sg10
I1
sg15
S'/eos/user/m/myalvac/GPlusBJets/data/2016/SinglePhoton_UL/High_PT_Tight/Run2016F/hadd/'
p272
sg14
I1
sg12
S'/SinglePhoton/Run2016F-HIPM_UL2016_MiniAODv2_NanoAODv9-v1/NANOAOD'
p273
ssS'B_ver2'
p274
(dp275
g8
I1
sg9
F0.0
sg10
I1
sg15
S'/eos/user/m/myalvac/GPlusBJets/data/2016/SinglePhoton_UL/High_PT_Tight/B_ver2/hadd/'
p276
sg14
I1
sg12
S'/SinglePhoton/Run2016B-ver2_HIPM_UL2016_MiniAODv2_NanoAODv9-v1/NANOAOD'
p277
ssS'B_ver1'
p278
(dp279
g8
I1
sg9
F0.0
sg10
I1
sg15
S'/eos/user/m/myalvac/GPlusBJets/data/2016/SinglePhoton_UL/High_PT_Tight/B_ver1/hadd/'
p280
sg14
I1
sg12
S'/SinglePhoton/Run2016B-ver1_HIPM_UL2016_MiniAODv2_NanoAODv9-v1/NANOAOD'
p281
sssssI2017
(dp282
g2
(dp283
g4
(dp284
S'G1Jet_LHEGpt_250To400_2017'
p285
(dp286
g8
F26.99
sg9
F0.1697
sg10
F0.08345
sg11
I5994569
sg12
g13
sg14
F17.17
sg15
S'/eos/user/e/ecasilar/SMPVJ_Gamma_BJETS/MC//2017/G1Jet_LHEGpt/High_PT_Tight//G1Jet_LHEGpT-250To400_TuneCP5_13TeV-amcatnlo-pythia8/hadd/'
p287
ssS'G1Jet_LHEGpt_675ToInf_2017'
p288
(dp289
g8
F0.2478
sg9
F0.1584
sg10
F0.0005027
sg11
I498411
sg12
g27
sg14
F1883.0
sg15
S'/eos/user/e/ecasilar/SMPVJ_Gamma_BJETS/MC//2017/G1Jet_LHEGpt/High_PT_Tight//G1Jet_LHEGpT-675ToInf_TuneCP5_13TeV-amcatnlo-pythia8/hadd/'
p290
ssS'G1Jet_LHEGpt_400To675_2017'
p291
(dp292
g8
F3.395
sg9
F0.1638
sg10
F0.007753
sg11
I1999564
sg12
g19
sg14
F133.2
sg15
S'/eos/user/e/ecasilar/SMPVJ_Gamma_BJETS/MC//2017/G1Jet_LHEGpt/High_PT_Tight//G1Jet_LHEGpT-400To675_TuneCP5_13TeV-amcatnlo-pythia8/hadd/'
p293
ssS'G1Jet_LHEGpt_150To250_2017'
p294
(dp295
g8
F226.2
sg9
F0.1738
sg10
F0.6433
sg11
I11616288
sg12
g23
sg14
F1.882
sg15
S'/eos/user/e/ecasilar/SMPVJ_Gamma_BJETS/MC//2017/G1Jet_LHEGpt/High_PT_Tight//G1Jet_LHEGpT-150To250_TuneCP5_13TeV-amcatnlo-pythia8/hadd/'
p296
sssg47
(dp297
S'GJets_DR_0p4_HT_100To200_2017'
p298
(dp299
g8
F5034.0
sg9
F0.0
sg10
F14.69
sg11
I10034997
sg12
S'/GJets_DR_0p4_HT-100To200_TuneCP5_13TeV-madgraphMLM-pythia8/RunIISummer20UL17NanoAODv9-106X_mc2017_realistic_v9-v1/NANOAODSIM'
p300
sg14
F0.1986
sg15
S'/eos/user/m/myalvac/GPlusBJets/MC//2017/GJets_DR_0p4_HT/High_PT_Tight/GJets_DR-0p4_HT-100To200_TuneCP5_13TeV-madgraphMLM-pythia8/hadd/'
p301
ssS'GJets_DR_0p4_HT_600ToInf_2017'
p302
(dp303
g8
F41.31
sg9
F0.0
sg10
F0.1242
sg11
I8330226
sg12
S'/GJets_DR_0p4_HT-600ToInf_TuneCP5_13TeV-madgraphMLM-pythia8/RunIISummer20UL17NanoAODv9-106X_mc2017_realistic_v9-v1/NANOAODSIM'
p304
sg14
F24.21
sg15
S'/eos/user/m/myalvac/GPlusBJets/MC//2017/GJets_DR_0p4_HT/High_PT_Tight/GJets_DR-0p4_HT-600ToInf_TuneCP5_13TeV-madgraphMLM-pythia8/hadd/'
p305
ssS'GJets_DR_0p4_HT_200To400_2017'
p306
(dp307
g8
F1129.0
sg9
F0.0
sg10
F3.338
sg11
I33884844
sg12
S'/GJets_DR_0p4_HT-200To400_TuneCP5_13TeV-madgraphMLM-pythia8/RunIISummer20UL17NanoAODv9-106X_mc2017_realistic_v9-v1/NANOAODSIM'
p308
sg14
F0.8859
sg15
S'/eos/user/m/myalvac/GPlusBJets/MC//2017/GJets_DR_0p4_HT/High_PT_Tight/GJets_DR-0p4_HT-200To400_TuneCP5_13TeV-madgraphMLM-pythia8/hadd/'
p309
ssS'GJets_DR_0p4_HT_400To600_2017'
p310
(dp311
g8
F126.2
sg9
F0.0
sg10
F0.03779
sg11
I9022800
sg12
S'/GJets_DR_0p4_HT-400To600_TuneCP5_13TeV-madgraphMLM-pythia8/RunIISummer20UL17NanoAODv9-106X_mc2017_realistic_v9-v1/NANOAODSIM'
p312
sg14
F7.921
sg15
S'/eos/user/m/myalvac/GPlusBJets/MC//2017/GJets_DR_0p4_HT/High_PT_Tight/GJets_DR-0p4_HT-400To600_TuneCP5_13TeV-madgraphMLM-pythia8/hadd/'
p313
ssssg79
(dp314
S'TTGJets_UL_2017'
p315
(dp316
g8
F3.757
sg9
F0.3218
sg10
F0.02243
sg11
I3534208
sg12
g83
sg14
F33.81
sg15
g84
ssS'ZGToLLG_UL_2017'
p317
(dp318
g8
F51.1
sg9
F0.1923
sg10
F0.8077
sg11
I29890946
sg12
g165
sg14
F7.41
sg15
g166
ssS'WZG_UL_2017'
p319
(dp320
g8
F3.75
sg9
F0.07975
sg10
F4.524e-05
sg11
I1400000
sg12
g200
sg14
F16260.0
sg15
g201
ssS'QCD_bEnriched_HT_UL2017'
p321
(dp322
S'QCD_bEnriched_HT_UL2017_2000ToInf'
p323
(dp324
g8
F0.6967
sg9
F0.0
sg10
F0.002099
sg11
I1408971
sg12
S'/QCD_bEnriched_HT2000toInf_TuneCP5_13TeV-madgraph-pythia8/RunIISummer20UL17NanoAODv9-106X_mc2017_realistic_v9-v1/NANOAODSIM'
p325
sg14
F1435.0
sg15
S'/eos/user/m/myalvac/GPlusBJets/MC//2017/QCD_bEnriched_HT_UL2017/High_PT_Tight/QCD_bEnriched_HT2000toInf_TuneCP5_13TeV-madgraph-pythia8/hadd/'
p326
ssS'QCD_bEnriched_HT_UL2017_1000To1500'
p327
(dp328
g8
F46.61
sg9
F0.002946
sg10
F0.2002
sg11
I1385631
sg12
S'/QCD_bEnriched_HT1000to1500_TuneCP5_13TeV-madgraph-pythia8/RunIISummer20UL17NanoAODv9-106X_mc2017_realistic_v9-v1/NANOAODSIM'
p329
sg14
F21.2
sg15
S'/eos/user/m/myalvac/GPlusBJets/MC//2017/QCD_bEnriched_HT_UL2017/High_PT_Tight/QCD_bEnriched_HT1000to1500_TuneCP5_13TeV-madgraph-pythia8/hadd/'
p330
ssS'QCD_bEnriched_HT_UL2017_500To700'
p331
(dp332
g8
F1487.0
sg9
F0.001047
sg10
F4.442
sg11
I10203561
sg12
S'/QCD_bEnriched_HT500to700_TuneCP5_13TeV-madgraph-pythia8/RunIISummer20UL17NanoAODv9-106X_mc2017_realistic_v9-v1/NANOAODSIM'
p333
sg14
F0.6699
sg15
S'/eos/user/m/myalvac/GPlusBJets/MC//2017/QCD_bEnriched_HT_UL2017/High_PT_Tight/QCD_bEnriched_HT500to700_TuneCP5_13TeV-madgraph-pythia8/hadd/'
p334
ssS'QCD_bEnriched_HT_UL2017_100To200'
p335
(dp336
g8
F1127000.0
sg9
F0.0
sg10
F3241.0
sg11
I37074807
sg12
S'/QCD_bEnriched_HT100to200_TuneCP5_13TeV-madgraph-pythia8/RunIISummer20UL17NanoAODv9-106X_mc2017_realistic_v9-v1/NANOAODSIM'
p337
sg14
F0.0008871
sg15
S'/eos/user/m/myalvac/GPlusBJets/MC//2017/QCD_bEnriched_HT_UL2017/High_PT_Tight/QCD_bEnriched_HT100to200_TuneCP5_13TeV-madgraph-pythia8/hadd/'
p338
ssS'QCD_bEnriched_HT_UL2017_300To500'
p339
(dp340
g8
F16700.0
sg9
F0.0
sg10
F49.74
sg11
I11312350
sg12
S'/QCD_bEnriched_HT300to500_TuneCP5_13TeV-madgraph-pythia8/RunIISummer20UL17NanoAODv9-106X_mc2017_realistic_v9-v1/NANOAODSIM'
p341
sg14
F0.05988
sg15
S'/eos/user/m/myalvac/GPlusBJets/MC//2017/QCD_bEnriched_HT_UL2017/High_PT_Tight/QCD_bEnriched_HT300to500_TuneCP5_13TeV-madgraph-pythia8/hadd/'
p342
ssS'QCD_bEnriched_HT_UL2017_700To1000'
p343
(dp344
g8
F298.8
sg9
F0.0
sg10
F0.8983
sg11
I1881618
sg12
S'/QCD_bEnriched_HT700to1000_TuneCP5_13TeV-madgraph-pythia8/RunIISummer20UL17NanoAODv9-106X_mc2017_realistic_v9-v1/NANOAODSIM'
p345
sg14
F3.347
sg15
S'/eos/user/m/myalvac/GPlusBJets/MC//2017/QCD_bEnriched_HT_UL2017/High_PT_Tight/QCD_bEnriched_HT700to1000_TuneCP5_13TeV-madgraph-pythia8/hadd/'
p346
ssS'QCD_bEnriched_HT_UL2017_1500To2000'
p347
(dp348
g8
F4.017
sg9
F0.0
sg10
F0.01213
sg11
I1458069
sg12
S'/QCD_bEnriched_HT1500to2000_TuneCP5_13TeV-madgraph-pythia8/RunIISummer20UL17NanoAODv9-106X_mc2017_realistic_v9-v1/NANOAODSIM'
p349
sg14
F248.9
sg15
S'/eos/user/m/myalvac/GPlusBJets/MC//2017/QCD_bEnriched_HT_UL2017/High_PT_Tight/QCD_bEnriched_HT1500to2000_TuneCP5_13TeV-madgraph-pythia8/hadd/'
p350
ssS'QCD_bEnriched_HT_UL2017_200To300'
p351
(dp352
g8
F80220.0
sg9
F0.0
sg10
F235.7
sg11
I19844424
sg12
S'/QCD_bEnriched_HT200to300_TuneCP5_13TeV-madgraph-pythia8/RunIISummer20UL17NanoAODv9-106X_mc2017_realistic_v9-v1/NANOAODSIM'
p353
sg14
F0.01247
sg15
S'/eos/user/m/myalvac/GPlusBJets/MC//2017/QCD_bEnriched_HT_UL2017/High_PT_Tight/QCD_bEnriched_HT200to300_TuneCP5_13TeV-madgraph-pythia8/hadd/'
p354
sssS'TGJets_UL_2017'
p355
(dp356
g8
F2.997
sg9
F0.3959
sg10
F0.01239
sg11
I1965000
sg12
g87
sg14
F14.46
sg15
g88
ssS'QCD_HT_UL2017'
p357
(dp358
S'QCD_HT_UL2017_1000To1500'
p359
(dp360
g8
F1122.0
sg9
F0.0
sg10
F0.5173
sg11
I10186734
sg12
g151
sg14
F0.8911
sg15
S'/eos/user/e/ecasilar/SMPVJ_Gamma_BJETS/MC//2017/QCD_HT_UL2017/High_PT_Tight//QCD_HT1000to1500_TuneCP5_PSWeights_13TeV-madgraph-pythia8/hadd/'
p361
ssS'QCD_HT_UL2017_100To200'
p362
(dp363
g8
F23650000.0
sg9
F0.0
sg10
F4467.0
sg11
I54381393
sg12
g159
sg14
F4.229e-05
sg15
S'/eos/user/e/ecasilar/SMPVJ_Gamma_BJETS/MC//2017/QCD_HT_UL2017/High_PT_Tight//QCD_HT100to200_TuneCP5_PSWeights_13TeV-madgraph-pythia8/hadd/'
p364
ssS'QCD_HT_UL2017_500To700'
p365
(dp366
g8
F30280.0
sg9
F0.0
sg10
F7.439
sg11
I36194860
sg12
g155
sg14
F0.03303
sg15
S'/eos/user/e/ecasilar/SMPVJ_Gamma_BJETS/MC//2017/QCD_HT_UL2017/High_PT_Tight//QCD_HT500to700_TuneCP5_PSWeights_13TeV-madgraph-pythia8/hadd/'
p367
ssS'QCD_HT_UL2017_50To100'
p368
(dp369
g8
F186000000.0
sg9
F0.0
sg10
F48970.0
sg11
I26243010
sg12
g143
sg14
F5.377e-06
sg15
S'/eos/user/e/ecasilar/SMPVJ_Gamma_BJETS/MC//2017/QCD_HT_UL2017/High_PT_Tight//QCD_HT50to100_TuneCP5_PSWeights_13TeV-madgraph-pythia8/hadd/'
p370
ssS'QCD_HT_UL2017_700To1000'
p371
(dp372
g8
F6437.0
sg9
F0.0
sg10
F1.658
sg11
I32934816
sg12
g147
sg14
F0.1554
sg15
S'/eos/user/e/ecasilar/SMPVJ_Gamma_BJETS/MC//2017/QCD_HT_UL2017/High_PT_Tight//QCD_HT700to1000_TuneCP5_PSWeights_13TeV-madgraph-pythia8/hadd/'
p373
ssS'QCD_HT_UL2017_2000ToInf'
p374
(dp375
g8
F22.04
sg9
F0.0
sg10
F0.0156
sg11
I4112573
sg12
g135
sg14
F45.38
sg15
S'/eos/user/e/ecasilar/SMPVJ_Gamma_BJETS/MC//2017/QCD_HT_UL2017/High_PT_Tight//QCD_HT2000toInf_TuneCP5_PSWeights_13TeV-madgraph-pythia8/hadd/'
p376
ssS'QCD_HT_UL2017_200To300'
p377
(dp378
g8
F1553000.0
sg9
F0.0
sg10
F349.9
sg11
I42714435
sg12
g131
sg14
F0.000644
sg15
S'/eos/user/e/ecasilar/SMPVJ_Gamma_BJETS/MC//2017/QCD_HT_UL2017/High_PT_Tight//QCD_HT200to300_TuneCP5_PSWeights_13TeV-madgraph-pythia8/hadd/'
p379
ssS'QCD_HT_UL2017_300To500'
p380
(dp381
g8
F324500.0
sg9
F0.0
sg10
F75.53
sg11
I43429979
sg12
g127
sg14
F0.003082
sg15
S'/eos/user/e/ecasilar/SMPVJ_Gamma_BJETS/MC//2017/QCD_HT_UL2017/High_PT_Tight//QCD_HT300to500_TuneCP5_PSWeights_13TeV-madgraph-pythia8/hadd/'
p382
ssS'QCD_HT_UL2017_1500To2000'
p383
(dp384
g8
F108.3
sg9
F0.0
sg10
F0.05823
sg11
I7701876
sg12
g139
sg14
F9.23
sg15
S'/eos/user/e/ecasilar/SMPVJ_Gamma_BJETS/MC//2017/QCD_HT_UL2017/High_PT_Tight//QCD_HT1500to2000_TuneCP5_PSWeights_13TeV-madgraph-pythia8/hadd/'
p385
ssssg240
(dp386
S'SinglePhoton_UL'
p387
(dp388
g258
(dp389
g8
I1
sg9
F0.0
sg10
I1
sg15
S'/eos/user/m/myalvac/GPlusBJets/data/2017/SinglePhoton_UL/High_PT_Tight/Run2017C/hadd/'
p390
sg14
I1
sg12
S'/SinglePhoton/Run2017C-UL2017_MiniAODv2_NanoAODv9-v1/NANOAOD'
p391
ssS'B'
p392
(dp393
g8
I1
sg9
F0.0
sg10
I1
sg15
S'/eos/user/m/myalvac/GPlusBJets/data/2017/SinglePhoton_UL/High_PT_Tight/Run2017B/hadd/'
p394
sg14
I1
sg12
S'/SinglePhoton/Run2017B-UL2017_MiniAODv2_NanoAODv9-v1/NANOAOD'
p395
ssg262
(dp396
g8
I1
sg9
F0.0
sg10
I1
sg15
S'/eos/user/m/myalvac/GPlusBJets/data/2017/SinglePhoton_UL/High_PT_Tight/Run2017E/hadd/'
p397
sg14
I1
sg12
S'/SinglePhoton/Run2017E-UL2017_MiniAODv2_NanoAODv9-v1/NANOAOD'
p398
ssg266
(dp399
g8
I1
sg9
F0.0
sg10
I1
sg15
S'/eos/user/m/myalvac/GPlusBJets/data/2017/SinglePhoton_UL/High_PT_Tight/Run2017D/hadd/'
p400
sg14
I1
sg12
S'/SinglePhoton/Run2017D-UL2017_MiniAODv2_NanoAODv9-v1/NANOAOD'
p401
ssg270
(dp402
g8
I1
sg9
F0.0
sg10
I1
sg15
S'/eos/user/m/myalvac/GPlusBJets/data/2017/SinglePhoton_UL/High_PT_Tight/Run2017F/hadd/'
p403
sg14
I1
sg12
S'/SinglePhoton/Run2017F-UL2017_MiniAODv2_NanoAODv9-v1/NANOAOD'
p404
sssssI2018
(dp405
g2
(dp406
g4
(dp407
S'G1Jet_LHEGpt_150To250_2018'
p408
(dp409
g8
F226.2
sg9
F0.1738
sg10
F0.6433
sg11
I11192434
sg12
S'/G1Jet_LHEGpT-150To250_TuneCP5_13TeV-amcatnlo-pythia8/RunIISummer20UL18NanoAODv9-106X_upgrade2018_realistic_v16_L1v1-v1/NANOAODSIM'
p410
sg14
F1.882
sg15
S'/eos/user/e/ecasilar/SMPVJ_Gamma_BJETS/MC//2018/G1Jet_LHEGpt/High_PT_Tight//G1Jet_LHEGpT-150To250_TuneCP5_13TeV-amcatnlo-pythia8/hadd/'
p411
ssS'G1Jet_LHEGpt_400To675_2018'
p412
(dp413
g8
F3.395
sg9
F0.1638
sg10
F0.007753
sg11
I1999690
sg12
S'/G1Jet_LHEGpT-400To675_TuneCP5_13TeV-amcatnlo-pythia8/RunIISummer20UL18NanoAODv9-106X_upgrade2018_realistic_v16_L1v1-v1/NANOAODSIM'
p414
sg14
F133.2
sg15
S'/eos/user/e/ecasilar/SMPVJ_Gamma_BJETS/MC//2018/G1Jet_LHEGpt/High_PT_Tight//G1Jet_LHEGpT-400To675_TuneCP5_13TeV-amcatnlo-pythia8/hadd/'
p415
ssS'G1Jet_LHEGpt_675ToInf_2018'
p416
(dp417
g8
F0.2478
sg9
F0.1584
sg10
F0.0005027
sg11
I498616
sg12
g27
sg14
F1883.0
sg15
S'/eos/user/e/ecasilar/SMPVJ_Gamma_BJETS/MC//2018/G1Jet_LHEGpt/High_PT_Tight//G1Jet_LHEGpT-675ToInf_TuneCP5_13TeV-amcatnlo-pythia8/hadd/'
p418
ssS'G1Jet_LHEGpt_250To400_2018'
p419
(dp420
g8
F26.99
sg9
F0.1697
sg10
F0.08345
sg11
I6004413
sg12
S'/G1Jet_LHEGpT-250To400_TuneCP5_13TeV-amcatnlo-pythia8/RunIISummer20UL18NanoAODv9-106X_upgrade2018_realistic_v16_L1v1-v1/NANOAODSIM'
p421
sg14
F17.17
sg15
S'/eos/user/e/ecasilar/SMPVJ_Gamma_BJETS/MC//2018/G1Jet_LHEGpt/High_PT_Tight//G1Jet_LHEGpT-250To400_TuneCP5_13TeV-amcatnlo-pythia8/hadd/'
p422
sssg47
(dp423
S'GJets_DR_0p4_HT_400To600_2018'
p424
(dp425
g8
F126.2
sg9
F0.0
sg10
F0.03779
sg11
I13373955
sg12
S'/GJets_DR_0p4_HT-400To600_TuneCP5_13TeV-madgraphMLM-pythia8/RunIISummer20UL18NanoAODv9-106X_upgrade2018_realistic_v16_L1v1-v1/NANOAODSIM'
p426
sg14
F7.921
sg15
S'/eos/user/m/myalvac/GPlusBJets/MC//2018/GJets_DR_0p4_HT/High_PT_Tight/GJets_DR-0p4_HT-400To600_TuneCP5_13TeV-madgraphMLM-pythia8/hadd_UNC/'
p427
ssS'GJets_DR_0p4_HT_200To400_2018'
p428
(dp429
g8
F1129.0
sg9
F0.0
sg10
F3.338
sg11
I44247215
sg12
S'/GJets_DR_0p4_HT-200To400_TuneCP5_13TeV-madgraphMLM-pythia8/RunIISummer20UL18NanoAODv9-106X_upgrade2018_realistic_v16_L1v1-v1/NANOAODSIM'
p430
sg14
F0.8859
sg15
S'/eos/user/m/myalvac/GPlusBJets/MC//2018/GJets_DR_0p4_HT/High_PT_Tight/GJets_DR-0p4_HT-200To400_TuneCP5_13TeV-madgraphMLM-pythia8/hadd_UNC/'
p431
ssS'GJets_DR_0p4_HT_600ToInf_2018'
p432
(dp433
g8
F41.31
sg9
F0.0
sg10
F0.1242
sg11
I11584420
sg12
S'/GJets_DR_0p4_HT-400ToInf_TuneCP5_13TeV-madgraphMLM-pythia8/RunIISummer20UL18NanoAODv9-106X_upgrade2018_realistic_v16_L1v1-v1/NANOAODSIM'
p434
sg14
F24.21
sg15
S'/eos/user/m/myalvac/GPlusBJets/MC//2018/GJets_DR_0p4_HT/High_PT_Tight/GJets_DR-0p4_HT-600ToInf_TuneCP5_13TeV-madgraphMLM-pythia8/hadd_UNC/'
p435
ssS'GJets_DR_0p4_HT_100To200_2018'
p436
(dp437
g8
F5034.0
sg9
F0.0
sg10
F14.69
sg11
I14278296
sg12
S'/GJets_DR_0p4_HT-100To200_TuneCP5_13TeV-madgraphMLM-pythia8/RunIISummer20UL18NanoAODv9-106X_upgrade2018_realistic_v16_L1v1-v1/NANOAODSIM'
p438
sg14
F0.1986
sg15
S'/eos/user/m/myalvac/GPlusBJets/MC//2018/GJets_DR_0p4_HT/High_PT_Tight/GJets_DR-0p4_HT-100To200_TuneCP5_13TeV-madgraphMLM-pythia8/hadd_UNC/'
p439
ssssg79
(dp440
S'QCD_HT_UL2018'
p441
(dp442
S'QCD_HT_UL2018_2000ToInf'
p443
(dp444
g8
F22.04
sg9
F0.0
sg10
F0.0156
sg11
I5374711
sg12
S'/QCD_HT2000toInf_TuneCP5_PSWeights_13TeV-madgraph-pythia8/RunIISummer20UL18NanoAODv9-106X_upgrade2018_realistic_v16_L1v1-v1/NANOAODSIM'
p445
sg14
F45.38
sg15
S'/eos/user/m/myalvac/GPlusBJets/MC//2018/QCD_HT_UL2018/High_PT_Tight//QCD_HT2000toInf_TuneCP5_PSWeights_13TeV-madgraph-pythia8/hadd_UNC/'
p446
ssS'QCD_HT_UL2018_1000To1500'
p447
(dp448
g8
F1122.0
sg9
F0.0
sg10
F0.5173
sg11
I14394786
sg12
S'/QCD_HT1000to1500_TuneCP5_PSWeights_13TeV-madgraph-pythia8/RunIISummer20UL18NanoAODv9-106X_upgrade2018_realistic_v16_L1v1-v1/NANOAODSIM'
p449
sg14
F0.8911
sg15
S'/eos/user/m/myalvac/GPlusBJets/MC//2018/QCD_HT_UL2018/High_PT_Tight//QCD_HT1000to1500_TuneCP5_PSWeights_13TeV-madgraph-pythia8/hadd_UNC/'
p450
ssS'QCD_HT_UL2018_500To700'
p451
(dp452
g8
F30280.0
sg9
F0.0
sg10
F7.439
sg11
I49184771
sg12
S'/QCD_HT500to700_TuneCP5_PSWeights_13TeV-madgraph-pythia8/RunIISummer20UL18NanoAODv9-106X_upgrade2018_realistic_v16_L1v1-v1/NANOAODSIM'
p453
sg14
F0.03303
sg15
S'/eos/user/m/myalvac/GPlusBJets/MC//2018/QCD_HT_UL2018/High_PT_Tight//QCD_HT500to700_TuneCP5_PSWeights_13TeV-madgraph-pythia8/hadd_UNC/'
p454
ssS'QCD_HT_UL2018_100To200'
p455
(dp456
g8
F23650000.0
sg9
F0.0
sg10
F4467.0
sg11
I84434559
sg12
S'/QCD_HT100to200_TuneCP5_PSWeights_13TeV-madgraph-pythia8/RunIISummer20UL18NanoAODv9-106X_upgrade2018_realistic_v16_L1v1-v1/NANOAODSIM'
p457
sg14
F4.229e-05
sg15
S'/eos/user/m/myalvac/GPlusBJets/MC//2018/QCD_HT_UL2018/High_PT_Tight//QCD_HT100to200_TuneCP5_PSWeights_13TeV-madgraph-pythia8/hadd_UNC/'
p458
ssS'QCD_HT_UL2018_300To500'
p459
(dp460
g8
F324500.0
sg9
F0.0
sg10
F75.53
sg11
I61609663
sg12
S'/QCD_HT300to500_TuneCP5_PSWeights_13TeV-madgraph-pythia8/RunIISummer20UL18NanoAODv9-106X_upgrade2018_realistic_v16_L1v1-v1/NANOAODSIM'
p461
sg14
F0.003082
sg15
S'/eos/user/m/myalvac/GPlusBJets/MC//2018/QCD_HT_UL2018/High_PT_Tight//QCD_HT300to500_TuneCP5_PSWeights_13TeV-madgraph-pythia8/hadd_UNC/'
p462
ssS'QCD_HT_UL2018_50To100'
p463
(dp464
g8
F186000000.0
sg9
F0.0
sg10
F48970.0
sg11
I38599389
sg12
S'/QCD_HT50to100_TuneCP5_PSWeights_13TeV-madgraph-pythia8/RunIISummer20UL18NanoAODv9-106X_upgrade2018_realistic_v16_L1v1-v1/NANOAODSIM'
p465
sg14
F5.377e-06
sg15
S'/eos/user/m/myalvac/GPlusBJets/MC//2018/QCD_HT_UL2018/High_PT_Tight//QCD_HT50to100_TuneCP5_PSWeights_13TeV-madgraph-pythia8/hadd_UNC/'
p466
ssS'QCD_HT_UL2018_1500To2000'
p467
(dp468
g8
F108.3
sg9
F0.0
sg10
F0.05823
sg11
I10411831
sg12
S'/QCD_HT1500to2000_TuneCP5_PSWeights_13TeV-madgraph-pythia8/RunIISummer20UL18NanoAODv9-106X_upgrade2018_realistic_v16_L1v1-v1/NANOAODSIM'
p469
sg14
F9.23
sg15
S'/eos/user/m/myalvac/GPlusBJets/MC//2018/QCD_HT_UL2018/High_PT_Tight//QCD_HT1500to2000_TuneCP5_PSWeights_13TeV-madgraph-pythia8/hadd_UNC/'
p470
ssS'QCD_HT_UL2018_200To300'
p471
(dp472
g8
F1553000.0
sg9
F0.0
sg10
F349.9
sg11
I57336623
sg12
S'/QCD_HT200to300_TuneCP5_PSWeights_13TeV-madgraph-pythia8/RunIISummer20UL18NanoAODv9-106X_upgrade2018_realistic_v16_L1v1-v1/NANOAODSIM'
p473
sg14
F0.000644
sg15
S'/eos/user/m/myalvac/GPlusBJets/MC//2018/QCD_HT_UL2018/High_PT_Tight//QCD_HT200to300_TuneCP5_PSWeights_13TeV-madgraph-pythia8/hadd_UNC/'
p474
ssS'QCD_HT_UL2018_700To1000'
p475
(dp476
g8
F6437.0
sg9
F0.0
sg10
F1.658
sg11
I48506751
sg12
S'/QCD_HT700to1000_TuneCP5_PSWeights_13TeV-madgraph-pythia8/RunIISummer20UL18NanoAODv9-106X_upgrade2018_realistic_v16_L1v1-v1/NANOAODSIM'
p477
sg14
F0.1554
sg15
S'/eos/user/m/myalvac/GPlusBJets/MC//2018/QCD_HT_UL2018/High_PT_Tight//QCD_HT700to1000_TuneCP5_PSWeights_13TeV-madgraph-pythia8/hadd_UNC/'
p478
sssS'TGJets_UL_2018'
p479
(dp480
g8
F2.997
sg9
F0.3959
sg10
F0.01239
sg11
I1965000
sg12
g87
sg14
F14.46
sg15
S'/eos/user/m/myalvac/GPlusBJets/MC//2018/TGJets_UL_2018/High_PT_Tight/TGJets_TuneCP5_13TeV-amcatnlo-madspin-pythia8/hadd_UNC/'
p481
ssS'DYJetsToLL_M_50_HT'
p482
(dp483
S'DYJetsToLL_M_50_HT_UL2018_1200To2500'
p484
(dp485
g8
F0.1933
sg9
F0.0
sg10
F0.01213
sg11
I5966661
sg12
S'/QCD_bEnriched_HT1500to2000_TuneCP5_13TeV-madgraph-pythia8/RunIISummer20UL18NanoAODv9-106Xupgrade2018_realistic_v16_L1v1-v1NANOAODSIM'
p486
sg14
F248.9
sg15
S'/eos/user/m/myalvac/GPlusBJets/MC//2018/DYJetsToLL_M_50_HT/High_PT_Tight/DYJetsToLL_M-50_HT-1200to2500_TuneCP5_PSweights_13TeV-madgraphMLM-pythia8/hadd_UNC/'
p487
ssS'DYJetsToLL_M_50_HT_UL2018_800To1200'
p488
(dp489
g8
F0.8052
sg9
F0.002946
sg10
F0.2002
sg11
I6554679
sg12
S'/QCD_bEnriched_HT1000to1500_TuneCP5_13TeV-madgraph-pythia8/RunIISummer20UL18NanoAODv9-106Xupgrade2018_realistic_v16_L1v1-v1/NANOAODSIM'
p490
sg14
F21.2
sg15
S'/eos/user/m/myalvac/GPlusBJets/MC//2018/DYJetsToLL_M_50_HT/High_PT_Tight/DYJetsToLL_M-50_HT-800to1200_TuneCP5_PSweights_13TeV-madgraphMLM-pythia8/hadd_UNC/'
p491
ssS'DYJetsToLL_M_50_HT_UL2018_100To200'
p492
(dp493
g8
F161.1
sg9
F0.0
sg10
F235.7
sg11
I26202328
sg12
S'/QCD_bEnriched_HT200to300_TuneCP5_13TeV-madgraph-pythia8/RunIISummer20UL18NanoAODv9-106Xupgrade2018_realistic_v16_L1v1-v1/NANOAODSIM'
p494
sg14
F0.01247
sg15
S'/eos/user/m/myalvac/GPlusBJets/MC//2018/DYJetsToLL_M_50_HT/High_PT_Tight/DYJetsToLL_M-50_HT-100to200_TuneCP5_PSweights_13TeV-madgraphMLM-pythia8/hadd_UNC/'
p495
ssS'DYJetsToLL_M_50_HT_UL2018_400To600'
p496
(dp497
g8
F6.96
sg9
F0.001047
sg10
F4.442
sg11
I8682257
sg12
S'/QCD_bEnriched_HT500to700_TuneCP5_13TeV-madgraph-pythia8/RunIISummer20UL18NanoAODv9-106Xupgrade2018_realistic_v16_L1v1-v1NANOAODSIM'
p498
sg14
F0.6699
sg15
S'/eos/user/m/myalvac/GPlusBJets/MC//2018/DYJetsToLL_M_50_HT/High_PT_Tight/DYJetsToLL_M-50_HT-400to600_TuneCP5_PSweights_13TeV-madgraphMLM-pythia8/hadd_UNC/'
p499
ssS'DYJetsToLL_M_50_HT_UL2018_2500ToInf'
p500
(dp501
g8
F0.003468
sg9
F0.0
sg10
F0.002099
sg11
I1978203
sg12
S'/QCD_bEnriched_HT2000toInf_TuneCP5_13TeV-madgraph-pythia8/RunIISummer20UL18NanoAODv9-106Xupgrade2018_realistic_v16_L1v1-v1/NANOAODSIM'
p502
sg14
F1435.0
sg15
S'/eos/user/m/myalvac/GPlusBJets/MC//2018/DYJetsToLL_M_50_HT/High_PT_Tight/DYJetsToLL_M-50_HT-2500toInf_TuneCP5_PSweights_13TeV-madgraphMLM-pythia8/hadd_UNC/'
p503
ssS'DYJetsToLL_M_50_HT_UL2018_200To400'
p504
(dp505
g8
F48.6
sg9
F0.0
sg10
F49.74
sg11
I18455718
sg12
S'/QCD_bEnriched_HT300to500_TuneCP5_13TeV-madgraph-pythia8/RunIISummer20UL18NanoAODv9-106Xupgrade2018_realistic_v16_L1v1-v1/NANOAODSIM'
p506
sg14
F0.05988
sg15
S'/eos/user/m/myalvac/GPlusBJets/MC//2018/DYJetsToLL_M_50_HT/High_PT_Tight/DYJetsToLL_M-50_HT-200to400_TuneCP5_PSweights_13TeV-madgraphMLM-pythia8/hadd_UNC/'
p507
ssS'DYJetsToLL_M_50_HT_UL2018_600To800'
p508
(dp509
g8
F1.74
sg9
F0.0
sg10
F0.8983
sg11
I7035971
sg12
S'/QCD_bEnriched_HT700to1000_TuneCP5_13TeV-madgraph-pythia8/RunIISummer20UL18NanoAODv9-106Xupgrade2018_realistic_v16_L1v1-v1/NANOAODSIM'
p510
sg14
F3.347
sg15
S'/eos/user/m/myalvac/GPlusBJets/MC//2018/DYJetsToLL_M_50_HT/High_PT_Tight/DYJetsToLL_M-50_HT-600to800_TuneCP5_PSweights_13TeV-madgraphMLM-pythia8/hadd_UNC/'
p511
sssS'QCD_bEnriched_HT_UL2018'
p512
(dp513
S'QCD_bEnriched_HT_UL2018_2000ToInf'
p514
(dp515
g8
F0.6967
sg9
F0.0
sg10
F0.002099
sg11
I1357334
sg12
g502
sg14
F1435.0
sg15
S'/eos/user/m/myalvac/GPlusBJets/MC//2018/QCD_bEnriched_HT_UL2018/High_PT_Tight/QCD_bEnriched_HT2000toInf_TuneCP5_13TeV-madgraph-pythia8/hadd_UNC/'
p516
ssS'QCD_bEnriched_HT_UL2018_1500To2000'
p517
(dp518
g8
F4.017
sg9
F0.0
sg10
F0.01213
sg11
I1431254
sg12
g486
sg14
F248.9
sg15
S'/eos/user/m/myalvac/GPlusBJets/MC//2018/QCD_bEnriched_HT_UL2018/High_PT_Tight/QCD_bEnriched_HT1500to2000_TuneCP5_13TeV-madgraph-pythia8/hadd_UNC/'
p519
ssS'QCD_bEnriched_HT_UL2018_1000To1500'
p520
(dp521
g8
F46.61
sg9
F0.002946
sg10
F0.2002
sg11
I1330829
sg12
g490
sg14
F21.2
sg15
S'/eos/user/m/myalvac/GPlusBJets/MC//2018/QCD_bEnriched_HT_UL2018/High_PT_Tight/QCD_bEnriched_HT1000to1500_TuneCP5_13TeV-madgraph-pythia8/hadd_UNC/'
p522
ssS'QCD_bEnriched_HT_UL2018_200To300'
p523
(dp524
g8
F80220.0
sg9
F0.0
sg10
F235.7
sg11
I18462183
sg12
g494
sg14
F0.01247
sg15
S'/eos/user/m/myalvac/GPlusBJets/MC//2018/QCD_bEnriched_HT_UL2018/High_PT_Tight/QCD_bEnriched_HT200to300_TuneCP5_13TeV-madgraph-pythia8/hadd_UNC/'
p525
ssS'QCD_bEnriched_HT_UL2018_500To700'
p526
(dp527
g8
F1487.0
sg9
F0.001047
sg10
F4.442
sg11
I9246898
sg12
g498
sg14
F0.6699
sg15
S'/eos/user/m/myalvac/GPlusBJets/MC//2018/QCD_bEnriched_HT_UL2018/High_PT_Tight/QCD_bEnriched_HT500to700_TuneCP5_13TeV-madgraph-pythia8/hadd_UNC/'
p528
ssS'QCD_bEnriched_HT_UL2018_700To1000'
p529
(dp530
g8
F298.8
sg9
F0.0
sg10
F0.8983
sg11
I1844165
sg12
g510
sg14
F3.347
sg15
S'/eos/user/m/myalvac/GPlusBJets/MC//2018/QCD_bEnriched_HT_UL2018/High_PT_Tight/QCD_bEnriched_HT700to1000_TuneCP5_13TeV-madgraph-pythia8/hadd_UNC/'
p531
ssS'QCD_bEnriched_HT_UL2018_100To200'
p532
(dp533
g8
F1127000.0
sg9
F0.0
sg10
F3241.0
sg11
I36118282
sg12
S'/QCD_bEnriched_HT100to200_TuneCP5_13TeV-madgraph-pythia8/RunIISummer20UL18NanoAODv9-106X_upgrade2018_realistic_v16_L1v1-v1/NANOAODSIM'
p534
sg14
F0.0008871
sg15
S'/eos/user/m/myalvac/GPlusBJets/MC//2018/QCD_bEnriched_HT_UL2018/High_PT_Tight/QCD_bEnriched_HT100to200_TuneCP5_13TeV-madgraph-pythia8/hadd_UNC/'
p535
ssS'QCD_bEnriched_HT_UL2018_300To500'
p536
(dp537
g8
F16700.0
sg9
F0.0
sg10
F49.74
sg11
I11197722
sg12
g506
sg14
F0.05988
sg15
S'/eos/user/m/myalvac/GPlusBJets/MC//2018/QCD_bEnriched_HT_UL2018/High_PT_Tight/QCD_bEnriched_HT300to500_TuneCP5_13TeV-madgraph-pythia8/hadd_UNC/'
p538
sssS'ZGToLLG_UL_2018'
p539
(dp540
g8
F51.1
sg9
F0.1923
sg10
F0.8077
sg11
I29890946
sg12
g165
sg14
F7.41
sg15
S'/eos/user/m/myalvac/GPlusBJets/MC//2018/ZGToLLG_UL_2018/High_PT_Tight/ZGToLLG_01J_5f_TuneCP5_13TeV-amcatnloFXFX-pythia8/hadd_UNC/'
p541
ssS'WJetsToLNu_HT'
p542
(dp543
S'WJetsToLNu_HT_UL2018_600To800'
p544
(dp545
g8
F12.87
sg9
F0.0
sg10
F0.8983
sg11
I7718765
sg12
g510
sg14
F3.347
sg15
S'/eos/user/m/myalvac/GPlusBJets/MC//2018/WJetsToLNu_HT/High_PT_Tight/WJetsToLNu_HT-600To800_TuneCP5_13TeV-madgraphMLM-pythia8/hadd_UNC/'
p546
ssS'WJetsToLNu_HT_UL2018_800To1200'
p547
(dp548
g8
F5.366
sg9
F0.002946
sg10
F0.2002
sg11
I7306187
sg12
g490
sg14
F21.2
sg15
S'/eos/user/m/myalvac/GPlusBJets/MC//2018/WJetsToLNu_HT/High_PT_Tight/WJetsToLNu_HT-800To1200_TuneCP5_13TeV-madgraphMLM-pythia8/hadd_UNC/'
p549
ssS'WJetsToLNu_HT_UL2018_2500ToInf'
p550
(dp551
g8
F0.008001
sg9
F0.0
sg10
F0.002099
sg11
I2097648
sg12
g502
sg14
F1435.0
sg15
S'/eos/user/m/myalvac/GPlusBJets/MC//2018/WJetsToLNu_HT/High_PT_Tight/WJetsToLNu_HT-2500ToInf_TuneCP5_13TeV-madgraphMLM-pythia8/hadd_UNC/'
p552
ssS'WJetsToLNu_HT_UL2018_1200To2500'
p553
(dp554
g8
F1.074
sg9
F0.0
sg10
F0.01213
sg11
I6481518
sg12
g486
sg14
F248.9
sg15
S'/eos/user/m/myalvac/GPlusBJets/MC//2018/WJetsToLNu_HT/High_PT_Tight/WJetsToLNu_HT-1200To2500_TuneCP5_13TeV-madgraphMLM-pythia8/hadd_UNC/'
p555
ssS'WJetsToLNu_HT_UL2018_100To200'
p556
(dp557
g8
F1395.0
sg9
F0.0
sg10
F235.7
sg11
I51408967
sg12
S'/WJetsToLNu_HT-70To100_TuneCP5_13TeV-madgraphMLM-pythia8/RunIISummer20UL18NanoAODv9-106X_upgrade2018_realistic_v16_L1v1-v1/NANOAODSIM'
p558
sg14
F0.01247
sg15
S'/eos/user/m/myalvac/GPlusBJets/MC//2018/WJetsToLNu_HT/High_PT_Tight/WJetsToLNu_HT-100To200_TuneCP5_13TeV-madgraphMLM-pythia8/hadd_UNC/'
p559
ssS'WJetsToLNu_HT_UL2018_400To600'
p560
(dp561
g8
F57.48
sg9
F0.001047
sg10
F4.442
sg11
I9246898
sg12
g558
sg14
F0.6699
sg15
S'/eos/user/m/myalvac/GPlusBJets/MC//2018/WJetsToLNu_HT/High_PT_Tight/WJetsToLNu_HT-400To600_TuneCP5_13TeV-madgraphMLM-pythia8/hadd_UNC/'
p562
ssS'WJetsToLNu_HT_UL2018_200To400'
p563
(dp564
g8
F407.9
sg9
F0.0
sg10
F49.74
sg11
I58225632
sg12
g558
sg14
F0.05988
sg15
S'/eos/user/m/myalvac/GPlusBJets/MC//2018/WJetsToLNu_HT/High_PT_Tight/WJetsToLNu_HT-200To400_TuneCP5_13TeV-madgraphMLM-pythia8/hadd_UNC/'
p565
sssS'TTGJets_UL_2018'
p566
(dp567
g8
F3.757
sg9
F0.3218
sg10
F0.02243
sg11
I3534208
sg12
g83
sg14
F33.81
sg15
S'/eos/user/m/myalvac/GPlusBJets/MC//2018/TTGJets_UL_2018/High_PT_Tight/TTGJets_TuneCP5_13TeV-amcatnloFXFX-madspin-pythia8/hadd_UNC/'
p568
ssS'WZG_UL_2018'
p569
(dp570
g8
F3.75
sg9
F0.07975
sg10
F4.524e-05
sg11
I1400000
sg12
g200
sg14
F16260.0
sg15
S'/eos/user/m/myalvac/GPlusBJets/MC//2018/WZG_UL_2018/High_PT_Tight/WZG_TuneCP5_13TeV-amcatnlo-pythia8/hadd_UNC/'
p571
sssg240
(dp572
S'EGamma_UL'
p573
(dp574
S'A'
p575
(dp576
g8
I1
sg9
F0.0
sg10
I1
sg15
S'/eos/user/m/myalvac/GPlusBJets/data/2018/EGamma_UL/High_PT_Tight/Run2018A/hadd/'
p577
sg14
I1
sg12
S'/EGamma/Run2018A-UL2018_MiniAODv2_NanoAODv9-v1/NANOAOD'
p578
ssg258
(dp579
g8
I1
sg9
F0.0
sg10
I1
sg15
S'/eos/user/m/myalvac/GPlusBJets/data/2018/EGamma_UL/High_PT_Tight/Run2018C/hadd/'
p580
sg14
I1
sg12
S'/EGamma/Run2018C-UL2018_MiniAODv2_NanoAODv9-v1/NANOAOD'
p581
ssg392
(dp582
g8
I1
sg9
F0.0
sg10
I1
sg15
S'/eos/user/m/myalvac/GPlusBJets/data/2018/EGamma_UL/High_PT_Tight/Run2018B/hadd/'
p583
sg14
I1
sg12
S'/EGamma/Run2018B-UL2018_MiniAODv2_NanoAODv9-v1/NANOAOD'
p584
ssg266
(dp585
g8
I1
sg9
F0.0
sg10
I1
sg15
S'/eos/user/m/myalvac/GPlusBJets/data/2018/EGamma_UL/High_PT_Tight/Run2018D/hadd/'
p586
sg14
I1
sg12
S'/EGamma/Run2018D-UL2018_MiniAODv2_NanoAODv9-v1/NANOAOD'
p587
sssss.