(dp0
I2016
(dp1
S'signal'
p2
(dp3
S'G1Jet_Pt'
p4
(dp5
S'G1Jet_Pt_250To400_NOExt'
p6
(dp7
S'xsec'
p8
F25.48
sS'fraction_negative_weight'
p9
F0.2331
sS'xsec_unc'
p10
F0.07909
sS'nevents'
p11
I1000000
sS'das_path'
p12
S'/G1Jet_Pt-250To400_TuneCUETP8M1_13TeV-amcatnlo-pythia8/RunIISummer16NanoAODv7-PUMoriond17_Nano02Apr2020_102X_mcRun2_asymptotic_v8-v1/NANOAODSIM'
p13
sS'equivalent_lumi'
p14
F11.18
sS'dir'
p15
S'/eos/user/e/ecasilar/SMPVJ_Gamma_BJETS/MC/G1Jet_Pt/G1Jet_Pt-250To400_TuneCUETP8M1_13TeV-amcatnlo-pythia8_NOExt/'
p16
ssS'G1Jet_Pt_400To650_NOExt'
p17
(dp18
g8
F3.14
sg9
F0.2326
sg10
F0.007797
sg11
I982900
sg12
S'/G1Jet_Pt-400To650_TuneCUETP8M1_13TeV-amcatnlo-pythia8/RunIISummer16NanoAODv7-PUMoriond17_Nano02Apr2020_102X_mcRun2_asymptotic_v8-v1/NANOAODSIM'
p19
sg14
F91.08
sg15
S'/eos/user/e/ecasilar/SMPVJ_Gamma_BJETS/MC/G1Jet_Pt/G1Jet_Pt-400To650_TuneCUETP8M1_13TeV-amcatnlo-pythia8_NOExt/'
p20
ssS'G1Jet_Pt_100To250_NOExt'
p21
(dp22
g8
F1155.0
sg9
F0.2257
sg10
F4.489
sg11
I998265
sg12
S'/G1Jet_Pt-100To250_TuneCUETP8M1_13TeV-amcatnlo-pythia8/RunIISummer16NanoAODv7-PUMoriond17_Nano02Apr2020_102X_mcRun2_asymptotic_v8-v1/NANOAODSIM'
p23
sg14
F0.2606
sg15
S'/eos/user/e/ecasilar/SMPVJ_Gamma_BJETS/MC/G1Jet_Pt/G1Jet_Pt-100To250_TuneCUETP8M1_13TeV-amcatnlo-pythia8_NOExt/'
p24
ssS'G1Jet_Pt_50To100_NOExt'
p25
(dp26
g8
F13530.0
sg9
F0.2234
sg10
F55.01
sg11
I4962870
sg12
S'/G1Jet_Pt-50To100_TuneCUETP8M1_13TeV-amcatnlo-pythia8/RunIISummer16NanoAODv7-PUMoriond17_Nano02Apr2020_102X_mcRun2_asymptotic_v8-v1/NANOAODSIM'
p27
sg14
F0.02261
sg15
S'/eos/user/e/ecasilar/SMPVJ_Gamma_BJETS/MC/G1Jet_Pt/G1Jet_Pt-50To100_TuneCUETP8M1_13TeV-amcatnlo-pythia8_NOExt/'
p28
ssS'G1Jet_Pt_650ToInf_NOExt'
p29
(dp30
g8
F0.2939
sg9
F0.2172
sg10
F0.0006189
sg11
I961024
sg12
S'/G1Jet_Pt-650ToInf_TuneCUETP8M1_13TeV-amcatnlo-pythia8/RunIISummer16NanoAODv7-PUMoriond17_Nano02Apr2020_102X_mcRun2_asymptotic_v8-v1/NANOAODSIM'
p31
sg14
F1088.0
sg15
S'/eos/user/e/ecasilar/SMPVJ_Gamma_BJETS/MC/G1Jet_Pt/G1Jet_Pt-650ToInf_TuneCUETP8M1_13TeV-amcatnlo-pythia8_NOExt/'
p32
sssS'GJets'
p33
(dp34
g8
F365400.0
sg9
F0.0
sg10
F382.7
sg11
I19794775
sg12
S'/GJet_Pt-15To6000_TuneCUETP8M1-Flat_13TeV_pythia8_20M/RunIISummer16NanoAODv7-PUMoriond17_Nano02Apr2020_102X_mcRun2_asymptotic_v8-v1/NANOAODSIM'
p35
sg14
F0.002737
sg15
S'/eos/user/e/ecasilar/SMPVJ_Gamma_BJETS/MC/GJet_Pt-15To6000_TuneCUETP8M1-Flat_13TeV_pythia8_20M/'
p36
ssS'GJets_HT'
p37
(dp38
S'GJets_HT_400To600'
p39
(dp40
g8
F274.4
sg9
F0.0
sg10
F0.8368
sg11
I2530341
sg12
S'/GJets_HT-400To600_TuneCUETP8M1_13TeV-madgraphMLM-pythia8/RunIISummer16NanoAODv7-PUMoriond17_Nano02Apr2020_102X_mcRun2_asymptotic_v8_ext1-v1/NANOAODSIM'
p41
sg14
F3.612
sg15
S'/eos/user/e/ecasilar/SMPVJ_Gamma_BJETS/MC/GJets_HT-400To600_TuneCUETP8M1_13TeV-madgraphMLM-pythia8/'
p42
ssS'GJets_HT_200To400'
p43
(dp44
g8
F2305.0
sg9
F0.0
sg10
F6.945
sg11
I10404907
sg12
S'/GJets_HT-200To400_TuneCUETP8M1_13TeV-madgraphMLM-pythia8/RunIISummer16NanoAODv7-PUMoriond17_Nano02Apr2020_102X_mcRun2_asymptotic_v8_ext1-v1/NANOAODSIM'
p45
sg14
F0.4316
sg15
S'/eos/user/e/ecasilar/SMPVJ_Gamma_BJETS/MC/GJets_HT-200To400_TuneCUETP8M1_13TeV-madgraphMLM-pythia8/'
p46
ssS'GJets_HT_100To200'
p47
(dp48
g8
F9238.0
sg9
F0.0
sg10
F27.11
sg11
I4972282
sg12
S'/GJets_HT-100To200_TuneCUETP8M1_13TeV-madgraphMLM-pythia8/RunIISummer16NanoAODv7-PUMoriond17_Nano02Apr2020_102X_mcRun2_asymptotic_v8_ext1-v1/NANOAODSIM'
p49
sg14
F0.1087
sg15
S'/eos/user/e/ecasilar/SMPVJ_Gamma_BJETS/MC/GJets_HT-100To200_TuneCUETP8M1_13TeV-madgraphMLM-pythia8/'
p50
ssS'GJets_HT_600ToInf'
p51
(dp52
g8
F93.46
sg9
F0.0
sg10
F0.2861
sg11
I2616911
sg12
S'/GJets_HT-600ToInf_TuneCUETP8M1_13TeV-madgraphMLM-pythia8/RunIISummer16NanoAODv7-PUMoriond17_Nano02Apr2020_102X_mcRun2_asymptotic_v8_ext1-v1/NANOAODSIM'
p53
sg14
F10.61
sg15
S'/eos/user/e/ecasilar/SMPVJ_Gamma_BJETS/MC/GJets_HT-600ToInf_TuneCUETP8M1_13TeV-madgraphMLM-pythia8/'
p54
ssS'GJets_HT_40To100'
p55
(dp56
g8
F20790.0
sg9
F0.0
sg10
F59.82
sg11
I4858154
sg12
S'/GJets_HT-40To100_TuneCUETP8M1_13TeV-madgraphMLM-pythia8/RunIISummer16NanoAODv7-PUMoriond17_Nano02Apr2020_102X_mcRun2_asymptotic_v8_ext1-v1/NANOAODSIM'
p57
sg14
F0.04811
sg15
S'/eos/user/e/ecasilar/SMPVJ_Gamma_BJETS/MC/GJets_HT-40To100_TuneCUETP8M1_13TeV-madgraphMLM-pythia8/'
p58
sssS'GJets_Pt'
p59
(dp60
S'GJets_Pt_100To200'
p61
(dp62
g8
F1032.0
sg9
F0.01085
sg10
F7.109
sg11
I498029
sg12
S'/GJets_Pt-100To200_13TeV-sherpa/RunIISummer16NanoAODv7-PUMoriond17_Nano02Apr2020_102X_mcRun2_asymptotic_v8-v1/NANOAODSIM'
p63
sg14
F0.9342
sg15
S'/eos/user/e/ecasilar/SMPVJ_Gamma_BJETS/MC/GJets_Pt-100To200_13TeV-sherpa/'
p64
ssS'GJets_Pt_1000To2000'
p65
(dp66
g8
F0.02092
sg9
F0.01466
sg10
F0.0001703
sg11
I399578
sg12
S'/GJets_Pt-1000To2000_13TeV-sherpa/RunIISummer16NanoAODv7-PUMoriond17_Nano02Apr2020_102X_mcRun2_asymptotic_v8-v1/NANOAODSIM'
p67
sg14
F45040.0
sg15
S'/eos/user/e/ecasilar/SMPVJ_Gamma_BJETS/MC/GJets_Pt-1000To2000_13TeV-sherpa/'
p68
ssS'GJets_Pt_20To100'
p69
(dp70
g8
F137800.0
sg9
F0.01828
sg10
F7.109
sg11
I498342
sg12
S'/GJets_Pt-20To100_13TeV-sherpa/RunIISummer16NanoAODv7-PUMoriond17_Nano02Apr2020_102X_mcRun2_asymptotic_v8-v1/NANOAODSIM'
p71
sg14
F0.006737
sg15
S'/eos/user/e/ecasilar/SMPVJ_Gamma_BJETS/MC/GJets_Pt-20To100_13TeV-sherpa/'
p72
ssS'GJets_Pt_2000To5000'
p73
(dp74
g8
F7.451e-05
sg9
F0.1247
sg10
F7.843e-07
sg11
I299739
sg12
S'/GJets_Pt-2000To5000_13TeV-sherpa/RunIISummer16NanoAODv7-PUMoriond17_Nano02Apr2020_102X_mcRun2_asymptotic_v8-v1/NANOAODSIM'
p75
sg14
F7537000.0
sg15
S'/eos/user/e/ecasilar/SMPVJ_Gamma_BJETS/MC/GJets_Pt-2000To5000_13TeV-sherpa/'
p76
ssS'GJets_Pt_500To1000'
p77
(dp78
g8
F0.9904
sg9
F0.01163
sg10
F0.00919
sg11
I484865
sg12
S'/GJets_Pt-500To1000_13TeV-sherpa/RunIISummer16NanoAODv7-PUMoriond17_Nano02Apr2020_102X_mcRun2_asymptotic_v8-v1/NANOAODSIM'
p79
sg14
F940.6
sg15
S'/eos/user/e/ecasilar/SMPVJ_Gamma_BJETS/MC/GJets_Pt-500To1000_13TeV-sherpa/'
p80
ssS'GJets_Pt_200To500'
p81
(dp82
g8
F70.15
sg9
F0.01032
sg10
F0.6311
sg11
I476434
sg12
S'/GJets_Pt-200To500_13TeV-sherpa/RunIISummer16NanoAODv7-PUMoriond17_Nano02Apr2020_102X_mcRun2_asymptotic_v8-v1/NANOAODSIM'
p83
sg14
F13.97
sg15
S'/eos/user/e/ecasilar/SMPVJ_Gamma_BJETS/MC/GJets_Pt-200To500_13TeV-sherpa/'
p84
ssssS'bkg'
p85
(dp86
S'QCD'
p87
(dp88
g8
F1370000000.0
sg9
F0.0
sg10
F2159000.0
sg11
I9879256
sg12
S'/QCD_Pt-15to7000_TuneCUETP8M1_FlatP6_13TeV_pythia8/RunIISummer16NanoAODv7-PUMoriond17_Nano02Apr2020_102X_mcRun2_asymptotic_v8-v1/NANOAODSIM'
p89
sg14
F7.301e-07
sg15
S'/eos/user/e/ecasilar/SMPVJ_Gamma_BJETS/MC/QCD_Pt-15to7000_TuneCUETP8M1_FlatP6_13TeV_pythia8/'
p90
ssS'TTGJets'
p91
(dp92
g8
F3.795
sg9
F0.3381
sg10
F0.02629
sg11
I9877942
sg12
S'/TTGJets_TuneCP5_13TeV-amcatnloFXFX-madspin-pythia8/RunIIFall17NanoAODv7-PU2017_12Apr2018_Nano02Apr2020_102X_mc2017_realistic_v8_ext1-v1/NANOAODSIM'
p93
sg14
F27.63
sg15
S'/eos/user/e/ecasilar/SMPVJ_Gamma_BJETS/MC/TTGJets_TuneCUETP8M1_13TeV-amcatnloFXFX-madspin-pythia8/'
p94
ssS'ST_t_channel_top'
p95
(dp96
g8
F136.82
sg9
F0.0
sg10
F0.0
sg11
I58403420
sg12
S'/ST_t-channel_top_4f_inclusiveDecays_13TeV-powhegV2-madspin-pythia8_TuneCUETP8M1/RunIISummer16NanoAODv7-PUMoriond17_Nano02Apr2020_102X_mcRun2_asymptotic_v8-v2/NANOAODSIM'
p97
sg14
F0.0
sg15
S'/eos/user/e/ecasilar/SMPVJ_Gamma_BJETS/MC/ST_t-channel_top_4f_inclusiveDecays_13TeV-powhegV2-madspin-pythia8_TuneCUETP8M1/'
p98
ssS'ST_t_channel_antitop'
p99
(dp100
g8
F81.42
sg9
F0.0
sg10
F0.0
sg11
I38811017
sg12
S'/ST_t-channel_antitop_4f_inclusiveDecays_13TeV-powhegV2-madspin-pythia8_TuneCUETP8M1/RunIISummer16NanoAODv7-PUMoriond17_Nano02Apr2020_102X_mcRun2_asymptotic_v8-v1/NANOAODSIM'
p101
sg14
F0.0
sg15
S'/eos/user/e/ecasilar/SMPVJ_Gamma_BJETS/MC/ST_t-channel_antitop_4f_inclusiveDecays_13TeV-powhegV2-madspin-pythia8_TuneCUETP8M1/'
p102
ssS'TGJets'
p103
(dp104
g8
F2.967
sg9
F0.4008
sg10
F0.01052
sg11
I1556996
sg12
S'/TGJets_TuneCP5_13TeV_amcatnlo_madspin_pythia8/RunIIFall17NanoAODv7-PU2017_12Apr2018_Nano02Apr2020_102X_mc2017_realistic_v8-v1/NANOAODSIM'
p105
sg14
F13.27
sg15
S'/eos/user/e/ecasilar/SMPVJ_Gamma_BJETS/MC/TGJets_TuneCUETP8M1_13TeV_amcatnlo_madspin_pythia8/'
p106
ssS'ST_tW_antitop'
p107
(dp108
g8
F38.06
sg9
F0.0
sg10
F0.03055
sg11
I6933094
sg12
S'/ST_tW_antitop_5f_inclusiveDecays_13TeV-powheg-pythia8_TuneCUETP8M1/RunIISummer16NanoAODv7-PUMoriond17_Nano02Apr2020_102X_mcRun2_asymptotic_v8_ext1-v1/NANOAODSIM'
p109
sg14
F26.27
sg15
S'/eos/user/e/ecasilar/SMPVJ_Gamma_BJETS/MC/ST_tW_antitop_5f_inclusiveDecays_13TeV-powheg-pythia8_TuneCUETP8M1/'
p110
ssS'QCD_HT'
p111
(dp112
S'QCD_HT_1500To2000'
p113
(dp114
g8
F119.9
sg9
F0.0
sg10
F0.1159
sg11
I7868538
sg12
S'/QCD_HT1500to2000_TuneCUETP8M1_13TeV-madgraphMLM-pythia8/RunIISummer16NanoAODv7-PUMoriond17_Nano02Apr2020_102X_mcRun2_asymptotic_v8_ext1-v1/NANOAODSIM'
p115
sg14
F8.335
sg15
S'/eos/user/e/ecasilar/SMPVJ_Gamma_BJETS/MC/QCD_HT/QCD_HT1500to2000_TuneCUETP8M1_13TeV-madgraphMLM-pythia8/merged/'
p116
ssS'QCD_HT_200To300'
p117
(dp118
g8
F1712000.0
sg9
F0.0
sg10
F1626.0
sg11
I38857977
sg12
S'/QCD_HT200to300_TuneCUETP8M1_13TeV-madgraphMLM-pythia8/RunIISummer16NanoAODv7-PUMoriond17_Nano02Apr2020_102X_mcRun2_asymptotic_v8_ext1-v1/NANOAODSIM'
p119
sg14
F0.0005846
sg15
S'/eos/user/e/ecasilar/SMPVJ_Gamma_BJETS/MC/QCD_HT/QCD_HT200to300_TuneCUETP8M1_13TeV-madgraphMLM-pythia8/merged/'
p120
ssS'QCD_HT_2000ToInf'
p121
(dp122
g8
F25.24
sg9
F0.0
sg10
F0.02437
sg11
I3812534
sg12
S'/QCD_HT2000toInf_TuneCUETP8M1_13TeV-madgraphMLM-pythia8/RunIISummer16NanoAODv7-PUMoriond17_Nano02Apr2020_102X_mcRun2_asymptotic_v8_ext1-v1/NANOAODSIM'
p123
sg14
F39.6
sg15
S'/eos/user/e/ecasilar/SMPVJ_Gamma_BJETS/MC/QCD_HT/QCD_HT2000toInf_TuneCUETP8M1_13TeV-madgraphMLM-pythia8/merged/'
p124
ssS'QCD_HT_700To1000'
p125
(dp126
g8
F6831.0
sg9
F0.0
sg10
F6.593
sg11
I21604533
sg12
S'/QCD_HT700to1000_TuneCUETP8M1_13TeV-madgraphMLM-pythia8/RunIISummer16NanoAODv7-PUMoriond17_Nano02Apr2020_102X_mcRun2_asymptotic_v8_ext1-v1/NANOAODSIM'
p127
sg14
F0.1464
sg15
S'/eos/user/e/ecasilar/SMPVJ_Gamma_BJETS/MC/QCD_HT/QCD_HT700to1000_TuneCUETP8M1_13TeV-madgraphMLM-pythia8/merged/'
p128
ssS'QCD_HT_100To200'
p129
(dp130
g8
F27990000.0
sg9
F0.0
sg10
F26130.0
sg11
I82293477
sg12
S'/QCD_HT100to200_TuneCUETP8M1_13TeV-madgraphMLM-pythia8/RunIISummer16NanoAODv7-PUMoriond17_Nano02Apr2020_102X_mcRun2_asymptotic_v8-v1/NANOAODSIM'
p131
sg14
F3.564e-05
sg15
S'/eos/user/e/ecasilar/SMPVJ_Gamma_BJETS/MC/QCD_HT/QCD_HT100to200_TuneCUETP8M1_13TeV-madgraphMLM-pythia8/merged/'
p132
ssS'QCD_HT_300To500'
p133
(dp134
g8
F347700.0
sg9
F0.0
sg10
F332.9
sg11
I37516961
sg12
S'/QCD_HT300to500_TuneCUETP8M1_13TeV-madgraphMLM-pythia8/RunIISummer16NanoAODv7-PUMoriond17_Nano02Apr2020_102X_mcRun2_asymptotic_v8_ext1-v1/NANOAODSIM'
p135
sg14
F0.002878
sg15
S'/eos/user/e/ecasilar/SMPVJ_Gamma_BJETS/MC/QCD_HT/QCD_HT300to500_TuneCUETP8M1_13TeV-madgraphMLM-pythia8/merged/'
p136
ssS'QCD_HT_50To100'
p137
(dp138
g8
F246400000.0
sg9
F0.0
sg10
F218700.0
sg11
I4180469
sg12
S'/QCD_HT50to100_TuneCUETP8M1_13TeV-madgraphMLM-pythia8/RunIISummer16NanoAODv7-PUMoriond17_Nano02Apr2020_102X_mcRun2_asymptotic_v8-v1/NANOAODSIM'
p139
sg14
F4.061e-06
sg15
S'/eos/user/e/ecasilar/SMPVJ_Gamma_BJETS/MC/QCD_HT/QCD_HT50to100_TuneCUETP8M1_13TeV-madgraphMLM-pythia8/merged/'
p140
ssS'QCD_HT_500To700'
p141
(dp142
g8
F32100.0
sg9
F0.0
sg10
F30.88
sg11
I44061488
sg12
S'/QCD_HT500to700_TuneCUETP8M1_13TeV-madgraphMLM-pythia8/RunIISummer16NanoAODv7-PUMoriond17_Nano02Apr2020_102X_mcRun2_asymptotic_v8_ext1-v1/NANOAODSIM'
p143
sg14
F0.03119
sg15
S'/eos/user/e/ecasilar/SMPVJ_Gamma_BJETS/MC/QCD_HT/QCD_HT500to700_TuneCUETP8M1_13TeV-madgraphMLM-pythia8/merged/'
p144
ssS'QCD_HT_1000To1500'
p145
(dp146
g8
F1207.0
sg9
F0.0
sg10
F1.166
sg11
I10360193
sg12
S'/QCD_HT1000to1500_TuneCUETP8M1_13TeV-madgraphMLM-pythia8/RunIISummer16NanoAODv7-PUMoriond17_Nano02Apr2020_102X_mcRun2_asymptotic_v8_ext1-v1/NANOAODSIM'
p147
sg14
F0.8285
sg15
S'/eos/user/e/ecasilar/SMPVJ_Gamma_BJETS/MC/QCD_HT/QCD_HT1000to1500_TuneCUETP8M1_13TeV-madgraphMLM-pythia8/merged/'
p148
sssS'TTJets'
p149
(dp150
g8
F511.3
sg9
F0.0
sg10
F1.412
sg11
I10199051
sg12
S'/TTJets_TuneCUETP8M1_13TeV-madgraphMLM-pythia8/RunIISummer16NanoAODv7-PUMoriond17_Nano02Apr2020_102X_mcRun2_asymptotic_v8-v1/NANOAODSIM'
p151
sg14
F1.956
sg15
S'/eos/user/e/ecasilar/SMPVJ_Gamma_BJETS/MC/TTJets_TuneCUETP8M1_13TeV-madgraphMLM-pythia8/'
p152
ssS'ST_s_channel'
p153
(dp154
g8
F10.12
sg9
F0.1857
sg10
F0.01334
sg11
I2917199
sg12
S'/ST_s-channel_4f_InclusiveDecays_13TeV-amcatnlo-pythia8/RunIISummer16NanoAODv7-PUMoriond17_Nano02Apr2020_102X_mcRun2_asymptotic_v8-v1/NANOAODSIM'
p155
sg14
F39.05
sg15
S'/eos/user/e/ecasilar/SMPVJ_Gamma_BJETS/MC/ST_s-channel_4f_InclusiveDecays_13TeV-amcatnlo-pythia8/'
p156
ssS'QCD_h1'
p157
(dp158
g8
F964800.0
sg9
F0.0
sg10
F92360.0
sg11
I9497268
sg12
S'/QCD_Pt-15to7000_TuneCUETHS1_FlatP6_13TeV_herwigpp/RunIISummer16NanoAODv7-PUMoriond17_Nano02Apr2020_102X_mcRun2_asymptotic_v8-v1/NANOAODSIM'
p159
sg14
F7.301e-07
sg15
S'/eos/user/e/ecasilar/SMPVJ_Gamma_BJETS/MC/QCD_Pt-15to7000_TuneCUETHS1_FlatP6_13TeV_herwigpp/'
p160
ssS'QCD_h2'
p161
(dp162
g8
F309800000.0
sg9
F0.0
sg10
F7932000.0
sg11
I9865688
sg12
S'/QCD_Pt-15to7000_TuneCUETHS1_Flat_13TeV_herwigpp/RunIISummer16NanoAODv7-PUMoriond17_Nano02Apr2020_102X_mcRun2_asymptotic_v8-v1/NANOAODSIM'
p163
sg14
F7.301e-07
sg15
S'/eos/user/e/ecasilar/SMPVJ_Gamma_BJETS/MC/QCD_Pt-15to7000_TuneCUETHS1_Flat_13TeV_herwigpp/'
p164
ssS'ST_tW_top'
p165
(dp166
g8
F38.09
sg9
F0.0
sg10
F0.0305
sg11
I6952830
sg12
S'/ST_tW_top_5f_inclusiveDecays_13TeV-powheg-pythia8_TuneCUETP8M1/RunIISummer16NanoAODv7-PUMoriond17_Nano02Apr2020_102X_mcRun2_asymptotic_v8_ext1-v1/NANOAODSIM'
p167
sg14
F26.25
sg15
S'/eos/user/e/ecasilar/SMPVJ_Gamma_BJETS/MC/ST_tW_top_5f_inclusiveDecays_13TeV-powheg-pythia8_TuneCUETP8M1/'
p168
sssS'data'
p169
(dp170
S'SinglePhoton_prescaled_NoPtCut_merged'
p171
(dp172
S'C'
p173
(dp174
g8
I1
sg9
F0.0
sg10
I1
sg15
S'/eos/user/e/ecasilar/SMPVJ_Gamma_BJETS/data/2016/SinglePhoton_Trigger_Scaled_NoPtCut/Run2016C_02Apr2020-v1/merged'
p175
sg14
I1
sg12
S'/SinglePhoton/Run2016C-02Apr2020-v1/NANOAOD'
p176
ssS'B'
p177
(dp178
g8
I1
sg9
F0.0
sg10
I1
sg15
S'/eos/user/e/ecasilar/SMPVJ_Gamma_BJETS/data/2016/SinglePhoton_Trigger_Scaled_NoPtCut/Run2016B_02Apr2020-v1/merged'
p179
sg14
I1
sg12
S'/SinglePhoton/Run2016B-02Apr2020_ver2-v1/NANOAOD'
p180
ssS'E'
p181
(dp182
g8
I1
sg9
F0.0
sg10
I1
sg15
S'/eos/user/e/ecasilar/SMPVJ_Gamma_BJETS/data/2016/SinglePhoton_Trigger_Scaled_NoPtCut/Run2016E_02Apr2020-v1/merged'
p183
sg14
I1
sg12
S'/SinglePhoton/Run2016E-02Apr2020-v1/NANOAOD'
p184
ssS'D'
p185
(dp186
g8
I1
sg9
F0.0
sg10
I1
sg15
S'/eos/user/e/ecasilar/SMPVJ_Gamma_BJETS/data/2016/SinglePhoton_Trigger_Scaled_NoPtCut/Run2016D_02Apr2020-v1/merged'
p187
sg14
I1
sg12
S'/SinglePhoton/Run2016D-02Apr2020-v1/NANOAOD'
p188
ssS'G'
p189
(dp190
g8
I1
sg9
F0.0
sg10
I1
sg15
S'/eos/user/e/ecasilar/SMPVJ_Gamma_BJETS/data/2016/SinglePhoton_Trigger_Scaled_NoPtCut/Run2016G_02Apr2020-v1/merged'
p191
sg14
I1
sg12
S'/SinglePhoton/Run2016G-02Apr2020-v1/NANOAOD'
p192
ssS'F'
p193
(dp194
g8
I1
sg9
F0.0
sg10
I1
sg15
S'/eos/user/e/ecasilar/SMPVJ_Gamma_BJETS/data/2016/SinglePhoton_Trigger_Scaled_NoPtCut/Run2016F_02Apr2020-v1/merged'
p195
sg14
I1
sg12
S'/SinglePhoton/Run2016F-02Apr2020-v1/NANOAOD'
p196
ssS'H'
p197
(dp198
g8
I1
sg9
F0.0
sg10
I1
sg15
S'/eos/user/e/ecasilar/SMPVJ_Gamma_BJETS/data/2016/SinglePhoton_Trigger_Scaled_NoPtCut/Run2016H_02Apr2020-v1/merged'
p199
sg14
I1
sg12
S'/SinglePhoton/Run2016H-02Apr2020-v1/NANOAOD'
p200
sssS'SingleMuon_prescaled_NoPtCut'
p201
(dp202
g173
(dp203
g8
I1
sg9
F0.0
sg10
I1
sg15
S'/eos/user/e/ecasilar/SMPVJ_Gamma_BJETS/data/2016/SingleMuon_Trigger_Scaled_NoPtCut/Run2016C_02Apr2020-v1'
p204
sg14
I1
sg12
S'/SingleMuon/Run2016C-02Apr2020-v1/NANOAOD'
p205
ssg177
(dp206
g8
I1
sg9
F0.0
sg10
I1
sg15
S'/eos/user/e/ecasilar/SMPVJ_Gamma_BJETS/data/2016/SingleMuon_Trigger_Scaled_NoPtCut/Run2016B_02Apr2020-v1'
p207
sg14
I1
sg12
S'/SingleMuon/Run2016B-02Apr2020_ver2-v1/NANOAOD'
p208
ssg181
(dp209
g8
I1
sg9
F0.0
sg10
I1
sg15
S'/eos/user/e/ecasilar/SMPVJ_Gamma_BJETS/data/2016/SingleMuon_Trigger_Scaled_NoPtCut/Run2016E_02Apr2020-v1'
p210
sg14
I1
sg12
S'/SingleMuon/Run2016E-02Apr2020-v1/NANOAOD'
p211
ssg185
(dp212
g8
I1
sg9
F0.0
sg10
I1
sg15
S'/eos/user/e/ecasilar/SMPVJ_Gamma_BJETS/data/2016/SingleMuon_Trigger_Scaled_NoPtCut/Run2016D_02Apr2020-v1'
p213
sg14
I1
sg12
S'/SingleMuon/Run2016D-02Apr2020-v1/NANOAOD'
p214
ssg189
(dp215
g8
I1
sg9
F0.0
sg10
I1
sg15
S'/eos/user/e/ecasilar/SMPVJ_Gamma_BJETS/data/2016/SingleMuon_Trigger_Scaled_NoPtCut/Run2016G_02Apr2020-v1'
p216
sg14
I1
sg12
S'/SingleMuon/Run2016G-02Apr2020-v1/NANOAOD'
p217
ssg193
(dp218
g8
I1
sg9
F0.0
sg10
I1
sg15
S'/eos/user/e/ecasilar/SMPVJ_Gamma_BJETS/data/2016/SingleMuon_Trigger_Scaled_NoPtCut/Run2016F_02Apr2020-v1'
p219
sg14
I1
sg12
S'/SingleMuon/Run2016F-02Apr2020-v1/NANOAOD'
p220
ssg197
(dp221
g8
I1
sg9
F0.0
sg10
I1
sg15
S'/eos/user/e/ecasilar/SMPVJ_Gamma_BJETS/data/2016/SingleMuon_Trigger_Scaled_NoPtCut/Run2016H_02Apr2020-v1'
p222
sg14
I1
sg12
S'/SingleMuon/Run2016H-02Apr2020-v1/NANOAOD'
p223
sssS'SingleMuon_prescaled'
p224
(dp225
g173
(dp226
g8
I1
sg9
F0.0
sg10
I1
sg15
S'/eos/user/e/ecasilar/SMPVJ_Gamma_BJETS/data/2016/SingleMuon_Trigger_Scaled/Run2016C_02Apr2020-v1'
p227
sg14
I1
sg12
g205
ssg177
(dp228
g8
I1
sg9
F0.0
sg10
I1
sg15
S'/eos/user/e/ecasilar/SMPVJ_Gamma_BJETS/data/2016/SingleMuon_Trigger_Scaled/Run2016B_02Apr2020-v1'
p229
sg14
I1
sg12
g208
ssg181
(dp230
g8
I1
sg9
F0.0
sg10
I1
sg15
S'/eos/user/e/ecasilar/SMPVJ_Gamma_BJETS/data/2016/SingleMuon_Trigger_Scaled/Run2016E_02Apr2020-v1'
p231
sg14
I1
sg12
g211
ssg185
(dp232
g8
I1
sg9
F0.0
sg10
I1
sg15
S'/eos/user/e/ecasilar/SMPVJ_Gamma_BJETS/data/2016/SingleMuon_Trigger_Scaled/Run2016D_02Apr2020-v1'
p233
sg14
I1
sg12
g214
ssg189
(dp234
g8
I1
sg9
F0.0
sg10
I1
sg15
S'/eos/user/e/ecasilar/SMPVJ_Gamma_BJETS/data/2016/SingleMuon_Trigger_Scaled/Run2016G_02Apr2020-v1'
p235
sg14
I1
sg12
g217
ssg193
(dp236
g8
I1
sg9
F0.0
sg10
I1
sg15
S'/eos/user/e/ecasilar/SMPVJ_Gamma_BJETS/data/2016/SingleMuon_Trigger_Scaled/Run2016F_02Apr2020-v1'
p237
sg14
I1
sg12
g220
ssg197
(dp238
g8
I1
sg9
F0.0
sg10
I1
sg15
S'/eos/user/e/ecasilar/SMPVJ_Gamma_BJETS/data/2016/SingleMuon_Trigger_Scaled/Run2016H_02Apr2020-v1'
p239
sg14
I1
sg12
g223
sssS'SinglePhoton'
p240
(dp241
g173
(dp242
g8
I1
sg9
F0.0
sg10
I1
sg15
S'/eos/user/e/ecasilar/SMPVJ_Gamma_BJETS//data/2016/SinglePhoton/Run2016C_02Apr2020-v1'
p243
sg14
I1
sg12
g176
ssg177
(dp244
g8
I1
sg9
F0.0
sg10
I1
sg15
S'/eos/user/e/ecasilar/SMPVJ_Gamma_BJETS//data/2016/SinglePhoton/Run2016B_02Apr2020-v1'
p245
sg14
I1
sg12
g180
ssg181
(dp246
g8
I1
sg9
F0.0
sg10
I1
sg15
S'/eos/user/e/ecasilar/SMPVJ_Gamma_BJETS//data/2016/SinglePhoton/Run2016E_02Apr2020-v1'
p247
sg14
I1
sg12
g184
ssg185
(dp248
g8
I1
sg9
F0.0
sg10
I1
sg15
S'/eos/user/e/ecasilar/SMPVJ_Gamma_BJETS//data/2016/SinglePhoton/Run2016D_02Apr2020-v1'
p249
sg14
I1
sg12
g188
ssg189
(dp250
g8
I1
sg9
F0.0
sg10
I1
sg15
S'/eos/user/e/ecasilar/SMPVJ_Gamma_BJETS//data/2016/SinglePhoton/Run2016G_02Apr2020-v1'
p251
sg14
I1
sg12
g192
ssg193
(dp252
g8
I1
sg9
F0.0
sg10
I1
sg15
S'/eos/user/e/ecasilar/SMPVJ_Gamma_BJETS//data/2016/SinglePhoton/Run2016F_02Apr2020-v1'
p253
sg14
I1
sg12
g196
ssg197
(dp254
g8
I1
sg9
F0.0
sg10
I1
sg15
S'/eos/user/e/ecasilar/SMPVJ_Gamma_BJETS//data/2016/SinglePhoton/Run2016H_02Apr2020-v1'
p255
sg14
I1
sg12
g200
sssS'SingleMuon'
p256
(dp257
g173
(dp258
g8
I1
sg9
F0.0
sg10
I1
sg15
S'/eos/user/e/ecasilar/SMPVJ_Gamma_BJETS/data/SingleMuon/Run2016C_02Apr2020-v1'
p259
sg14
I1
sg12
g205
ssg177
(dp260
g8
I1
sg9
F0.0
sg10
I1
sg15
S'/eos/user/e/ecasilar/SMPVJ_Gamma_BJETS/data/SingleMuon/Run2016B_02Apr2020-v1'
p261
sg14
I1
sg12
g208
ssg181
(dp262
g8
I1
sg9
F0.0
sg10
I1
sg15
S'/eos/user/e/ecasilar/SMPVJ_Gamma_BJETS/data/SingleMuon/Run2016E_02Apr2020-v1'
p263
sg14
I1
sg12
g211
ssg185
(dp264
g8
I1
sg9
F0.0
sg10
I1
sg15
S'/eos/user/e/ecasilar/SMPVJ_Gamma_BJETS/data/SingleMuon/Run2016D_02Apr2020-v1'
p265
sg14
I1
sg12
g214
ssg189
(dp266
g8
I1
sg9
F0.0
sg10
I1
sg15
S'/eos/user/e/ecasilar/SMPVJ_Gamma_BJETS/data/SingleMuon/Run2016G_02Apr2020-v1'
p267
sg14
I1
sg12
g217
ssg193
(dp268
g8
I1
sg9
F0.0
sg10
I1
sg15
S'/eos/user/e/ecasilar/SMPVJ_Gamma_BJETS/data/SingleMuon/Run2016F_02Apr2020-v1'
p269
sg14
I1
sg12
g220
ssg197
(dp270
g8
I1
sg9
F0.0
sg10
I1
sg15
S'/eos/user/e/ecasilar/SMPVJ_Gamma_BJETS/data/SingleMuon/Run2016H_02Apr2020-v1'
p271
sg14
I1
sg12
g223
sssS'SingleMuon_prescaled_NoPtCut_merged'
p272
(dp273
g173
(dp274
g8
I1
sg9
F0.0
sg10
I1
sg15
S'/eos/user/e/ecasilar/SMPVJ_Gamma_BJETS/data/2016/SingleMuon_Trigger_Scaled_NoPtCut/Run2016C_02Apr2020-v1/merged'
p275
sg14
I1
sg12
g205
ssg177
(dp276
g8
I1
sg9
F0.0
sg10
I1
sg15
S'/eos/user/e/ecasilar/SMPVJ_Gamma_BJETS/data/2016/SingleMuon_Trigger_Scaled_NoPtCut/Run2016B_02Apr2020-v1/merged'
p277
sg14
I1
sg12
g208
ssg181
(dp278
g8
I1
sg9
F0.0
sg10
I1
sg15
S'/eos/user/e/ecasilar/SMPVJ_Gamma_BJETS/data/2016/SingleMuon_Trigger_Scaled_NoPtCut/Run2016E_02Apr2020-v1/merged'
p279
sg14
I1
sg12
g211
ssg185
(dp280
g8
I1
sg9
F0.0
sg10
I1
sg15
S'/eos/user/e/ecasilar/SMPVJ_Gamma_BJETS/data/2016/SingleMuon_Trigger_Scaled_NoPtCut/Run2016D_02Apr2020-v1/merged'
p281
sg14
I1
sg12
g214
ssg189
(dp282
g8
I1
sg9
F0.0
sg10
I1
sg15
S'/eos/user/e/ecasilar/SMPVJ_Gamma_BJETS/data/2016/SingleMuon_Trigger_Scaled_NoPtCut/Run2016G_02Apr2020-v1/merged'
p283
sg14
I1
sg12
g217
ssg193
(dp284
g8
I1
sg9
F0.0
sg10
I1
sg15
S'/eos/user/e/ecasilar/SMPVJ_Gamma_BJETS/data/2016/SingleMuon_Trigger_Scaled_NoPtCut/Run2016F_02Apr2020-v1/merged'
p285
sg14
I1
sg12
g220
ssg197
(dp286
g8
I1
sg9
F0.0
sg10
I1
sg15
S'/eos/user/e/ecasilar/SMPVJ_Gamma_BJETS/data/2016/SingleMuon_Trigger_Scaled_NoPtCut/Run2016H_02Apr2020-v1/merged'
p287
sg14
I1
sg12
g223
sssssI2017
(dp288
g169
(dp289
S'SingleMuon_UL'
p290
(dp291
g173
(dp292
g8
I1
sg9
F0.0
sg10
I1
sg15
S'/eos/user/e/ecasilar/SMPVJ_Gamma_BJETS/data/2017/SingleMuon_UL/Run2017C-UL2017_02Dec2019-v1'
p293
sg14
I1
sg12
S'/SingleMuon/Run2017C-UL2017_02Dec2019-v1/NANOAOD'
p294
ssg177
(dp295
g8
I1
sg9
F0.0
sg10
I1
sg15
S'/eos/user/e/ecasilar/SMPVJ_Gamma_BJETS/data/2017/SingleMuon_UL/Run2017B-UL2017_02Dec2019-v1'
p296
sg14
I1
sg12
S'/SingleMuon/Run2017B-UL2017_02Dec2019-v1/NANOAOD'
p297
ssg181
(dp298
g8
I1
sg9
F0.0
sg10
I1
sg15
S'/eos/user/e/ecasilar/SMPVJ_Gamma_BJETS/data/2017/SingleMuon_UL/Run2017E-UL2017_02Dec2019-v1'
p299
sg14
I1
sg12
S'/SingleMuon/Run2017E-UL2017_02Dec2019-v1/NANOAOD'
p300
ssg185
(dp301
g8
I1
sg9
F0.0
sg10
I1
sg15
S'/eos/user/e/ecasilar/SMPVJ_Gamma_BJETS/data/2017/SingleMuon_UL/Run2017D-UL2017_02Dec2019-v1'
p302
sg14
I1
sg12
S'/SingleMuon/Run2017D-UL2017_02Dec2019-v1/NANOAOD'
p303
ssg193
(dp304
g8
I1
sg9
F0.0
sg10
I1
sg15
S'/eos/user/e/ecasilar/SMPVJ_Gamma_BJETS/data/2017/SingleMuon_UL/Run2017F-UL2017_02Dec2019-v1'
p305
sg14
I1
sg12
S'/SingleMuon/Run2017F-UL2017_02Dec2019-v1/NANOAOD'
p306
sssg256
(dp307
g173
(dp308
g8
I1
sg9
F0.0
sg10
I1
sg15
S'/eos/user/e/ecasilar/SMPVJ_Gamma_BJETS/data/2017/SingleMuon/Run2017C-02Apr2020-v1'
p309
sg14
I1
sg12
S'/SingleMuon/Run2017C-02Apr2020-v1/NANOAOD'
p310
ssg177
(dp311
g8
I1
sg9
F0.0
sg10
I1
sg15
S'/eos/user/e/ecasilar/SMPVJ_Gamma_BJETS/data/2017/SingleMuon/Run2017B-02Apr2020-v1'
p312
sg14
I1
sg12
S'/SingleMuon/Run2017B-02Apr2020-v1/NANOAOD'
p313
ssg181
(dp314
g8
I1
sg9
F0.0
sg10
I1
sg15
S'/eos/user/e/ecasilar/SMPVJ_Gamma_BJETS/data/2017/SingleMuon/Run2017E-02Apr2020-v1'
p315
sg14
I1
sg12
S'/SingleMuon/Run2017E-02Apr2020-v1/NANOAOD'
p316
ssg185
(dp317
g8
I1
sg9
F0.0
sg10
I1
sg15
S'/eos/user/e/ecasilar/SMPVJ_Gamma_BJETS/data/2017/SingleMuon/Run2017D-02Apr2020-v1'
p318
sg14
I1
sg12
S'/SingleMuon/Run2017D-02Apr2020-v1/NANOAOD'
p319
ssg193
(dp320
g8
I1
sg9
F0.0
sg10
I1
sg15
S'/eos/user/e/ecasilar/SMPVJ_Gamma_BJETS/data/2017/SingleMuon/Run2017F-02Apr2020-v1'
p321
sg14
I1
sg12
S'/SingleMuon/Run2017F-02Apr2020-v1/NANOAOD'
p322
sssS'SingleMuon_UL_prescaled_NoPtCut_merged'
p323
(dp324
g173
(dp325
g8
I1
sg9
F0.0
sg10
I1
sg15
S'/eos/user/e/ecasilar/SMPVJ_Gamma_BJETS/data/2017/SingleMuon_UL_Trigger_Scaled_NoPtCut/Run2017C-UL2017_02Dec2019-v1/merged'
p326
sg14
I1
sg12
g294
ssg177
(dp327
g8
I1
sg9
F0.0
sg10
I1
sg15
S'/eos/user/e/ecasilar/SMPVJ_Gamma_BJETS/data/2017/SingleMuon_UL_Trigger_Scaled_NoPtCut/Run2017B-UL2017_02Dec2019-v1/merged'
p328
sg14
I1
sg12
g297
ssg181
(dp329
g8
I1
sg9
F0.0
sg10
I1
sg15
S'/eos/user/e/ecasilar/SMPVJ_Gamma_BJETS/data/2017/SingleMuon_UL_Trigger_Scaled_NoPtCut/Run2017E-UL2017_02Dec2019-v1/merged'
p330
sg14
I1
sg12
g300
ssg185
(dp331
g8
I1
sg9
F0.0
sg10
I1
sg15
S'/eos/user/e/ecasilar/SMPVJ_Gamma_BJETS/data/2017/SingleMuon_UL_Trigger_Scaled_NoPtCut/Run2017D-UL2017_02Dec2019-v1/merged'
p332
sg14
I1
sg12
g303
ssg193
(dp333
g8
I1
sg9
F0.0
sg10
I1
sg15
S'/eos/user/e/ecasilar/SMPVJ_Gamma_BJETS/data/2017/SingleMuon_UL_Trigger_Scaled_NoPtCut/Run2017F-UL2017_02Dec2019-v1/merged'
p334
sg14
I1
sg12
g306
sssS'SingleMuon_UL_prescaled_NoPtCut'
p335
(dp336
g173
(dp337
g8
I1
sg9
F0.0
sg10
I1
sg15
S'/eos/user/e/ecasilar/SMPVJ_Gamma_BJETS/data/2017/SingleMuon_UL_Trigger_Scaled_NoPtCut/Run2017C-UL2017_02Dec2019-v1'
p338
sg14
I1
sg12
g294
ssg177
(dp339
g8
I1
sg9
F0.0
sg10
I1
sg15
S'/eos/user/e/ecasilar/SMPVJ_Gamma_BJETS/data/2017/SingleMuon_UL_Trigger_Scaled_NoPtCut/Run2017B-UL2017_02Dec2019-v1'
p340
sg14
I1
sg12
g297
ssg181
(dp341
g8
I1
sg9
F0.0
sg10
I1
sg15
S'/eos/user/e/ecasilar/SMPVJ_Gamma_BJETS/data/2017/SingleMuon_UL_Trigger_Scaled_NoPtCut/Run2017E-UL2017_02Dec2019-v1'
p342
sg14
I1
sg12
g300
ssg185
(dp343
g8
I1
sg9
F0.0
sg10
I1
sg15
S'/eos/user/e/ecasilar/SMPVJ_Gamma_BJETS/data/2017/SingleMuon_UL_Trigger_Scaled_NoPtCut/Run2017D-UL2017_02Dec2019-v1'
p344
sg14
I1
sg12
g303
ssg193
(dp345
g8
I1
sg9
F0.0
sg10
I1
sg15
S'/eos/user/e/ecasilar/SMPVJ_Gamma_BJETS/data/2017/SingleMuon_UL_Trigger_Scaled_NoPtCut/Run2017F-UL2017_02Dec2019-v1'
p346
sg14
I1
sg12
g306
sssssI2018
(dp347
g169
(dp348
g290
(dp349
S'A'
p350
(dp351
g8
I1
sg9
F0.0
sg10
I1
sg15
S'/eos/user/e/ecasilar/SMPVJ_Gamma_BJETS/data/2018/SingleMuon_UL/Run2018A-UL2018_MiniAODv1_NanoAODv2-v1'
p352
sg14
I1
sg12
S'/SingleMuon/Run2018E-UL2018_MiniAODv1_NanoAODv2-v1/NANOAOD'
p353
ssg173
(dp354
g8
I1
sg9
F0.0
sg10
I1
sg15
S'/eos/user/e/ecasilar/SMPVJ_Gamma_BJETS/data/2018/SingleMuon_UL/Run2018C-UL2018_MiniAODv1_NanoAODv2-v1'
p355
sg14
I1
sg12
S'/SingleMuon/Run2018C-UL2018_MiniAODv1_NanoAODv2-v1/NANOAOD'
p356
ssg177
(dp357
g8
I1
sg9
F0.0
sg10
I1
sg15
S'/eos/user/e/ecasilar/SMPVJ_Gamma_BJETS/data/2018/SingleMuon_UL/Run2018B-UL2018_MiniAODv1_NanoAODv2-v1'
p358
sg14
I1
sg12
S'/SingleMuon/Run2018B-UL2018_MiniAODv1_NanoAODv2-v1/NANOAOD'
p359
ssg185
(dp360
g8
I1
sg9
F0.0
sg10
I1
sg15
S'/eos/user/e/ecasilar/SMPVJ_Gamma_BJETS/data/2018/SingleMuon_UL/Run2018D-UL2018_MiniAODv1_NanoAODv2-v1'
p361
sg14
I1
sg12
S'/SingleMuon/Run2018D-UL2018_MiniAODv1_NanoAODv2-v1/NANOAOD'
p362
sssg256
(dp363
g350
(dp364
g8
I1
sg9
F0.0
sg10
I1
sg15
S'/eos/user/e/ecasilar/SMPVJ_Gamma_BJETS/data/2018/SingleMuon/Run2018A-02Apr2020-v1'
p365
sg14
I1
sg12
S'/SingleMuon/Run2018E-02Apr2020-v1/NANOAOD'
p366
ssg173
(dp367
g8
I1
sg9
F0.0
sg10
I1
sg15
S'/eos/user/e/ecasilar/SMPVJ_Gamma_BJETS/data/2018/SingleMuon/Run2018C-02Apr2020-v1'
p368
sg14
I1
sg12
S'/SingleMuon/Run2018C-02Apr2020-v1/NANOAOD'
p369
ssg177
(dp370
g8
I1
sg9
F0.0
sg10
I1
sg15
S'/eos/user/e/ecasilar/SMPVJ_Gamma_BJETS/data/2018/SingleMuon/Run2018B-02Apr2020-v1'
p371
sg14
I1
sg12
S'/SingleMuon/Run2018B-02Apr2020-v1/NANOAOD'
p372
ssg185
(dp373
g8
I1
sg9
F0.0
sg10
I1
sg15
S'/eos/user/e/ecasilar/SMPVJ_Gamma_BJETS/data/2018/SingleMuon/Run2018D-02Apr2020-v1'
p374
sg14
I1
sg12
S'/SingleMuon/Run2018D-02Apr2020-v1/NANOAOD'
p375
sssg323
(dp376
g350
(dp377
g8
I1
sg9
F0.0
sg10
I1
sg15
S'/eos/user/e/ecasilar/SMPVJ_Gamma_BJETS/data/2018/SingleMuon_UL_Trigger_Scaled_NoPtCut/Run2018A-UL2018_MiniAODv1_NanoAODv2-v1/merged'
p378
sg14
I1
sg12
g353
ssg173
(dp379
g8
I1
sg9
F0.0
sg10
I1
sg15
S'/eos/user/e/ecasilar/SMPVJ_Gamma_BJETS/data/2018/SingleMuon_UL_Trigger_Scaled_NoPtCut/Run2018C-UL2018_MiniAODv1_NanoAODv2-v1/merged'
p380
sg14
I1
sg12
g356
ssg177
(dp381
g8
I1
sg9
F0.0
sg10
I1
sg15
S'/eos/user/e/ecasilar/SMPVJ_Gamma_BJETS/data/2018/SingleMuon_UL_Trigger_Scaled_NoPtCut/Run2018B-UL2018_MiniAODv1_NanoAODv2-v1/merged'
p382
sg14
I1
sg12
g359
ssg185
(dp383
g8
I1
sg9
F0.0
sg10
I1
sg15
S'/eos/user/e/ecasilar/SMPVJ_Gamma_BJETS/data/2018/SingleMuon_UL_Trigger_Scaled_NoPtCut/Run2018D-UL2018_MiniAODv1_NanoAODv2-v1/merged'
p384
sg14
I1
sg12
g362
sssg335
(dp385
g350
(dp386
g8
I1
sg9
F0.0
sg10
I1
sg15
S'/eos/user/e/ecasilar/SMPVJ_Gamma_BJETS/data/2018/SingleMuon_UL_Trigger_Scaled_NoPtCut/Run2018A-UL2018_MiniAODv1_NanoAODv2-v1'
p387
sg14
I1
sg12
g353
ssg173
(dp388
g8
I1
sg9
F0.0
sg10
I1
sg15
S'/eos/user/e/ecasilar/SMPVJ_Gamma_BJETS/data/2018/SingleMuon_UL_Trigger_Scaled_NoPtCut/Run2018C-UL2018_MiniAODv1_NanoAODv2-v1'
p389
sg14
I1
sg12
g356
ssg177
(dp390
g8
I1
sg9
F0.0
sg10
I1
sg15
S'/eos/user/e/ecasilar/SMPVJ_Gamma_BJETS/data/2018/SingleMuon_UL_Trigger_Scaled_NoPtCut/Run2018B-UL2018_MiniAODv1_NanoAODv2-v1'
p391
sg14
I1
sg12
g359
ssg185
(dp392
g8
I1
sg9
F0.0
sg10
I1
sg15
S'/eos/user/e/ecasilar/SMPVJ_Gamma_BJETS/data/2018/SingleMuon_UL_Trigger_Scaled_NoPtCut/Run2018D-UL2018_MiniAODv1_NanoAODv2-v1'
p393
sg14
I1
sg12
g362
sssss.