(dp0
I2016
(dp1
S'signal'
p2
(dp3
S'G1Jet_LHEGpt'
p4
(dp5
S'G1Jet_LHEGpt_250To400_2016'
p6
(dp7
S'xsec'
p8
F26.99
sS'fraction_negative_weight'
p9
F0.1697
sS'xsec_unc'
p10
F0.08345
sS'nevents'
p11
I3004010
sS'das_path'
p12
S'/G1Jet_LHEGpT-250To400_TuneCP5_13TeV-amcatnlo-pythia8/RunIISummer20UL16NanoAODv9-106X_mcRun2_asymptotic_v17-v1/NANOAODSIM'
p13
sS'equivalent_lumi'
p14
F17.17
sS'dir'
p15
S'/eos/cms/store/group/phys_smp/AnalysisFramework/Baobab/Metin/gammaplusb/2016/UL_MC/G1Jet/G1Jet_LHEGpT-250To400_TuneCP5_13TeV-amcatnlo-pythia8/'
p16
ssS'G1Jet_LHEGpt_400To675_2016'
p17
(dp18
g8
F3.395
sg9
F0.1638
sg10
F0.007753
sg11
I1000053
sg12
S'/G1Jet_LHEGpT-400To675_TuneCP5_13TeV-amcatnlo-pythia8/RunIISummer20UL16NanoAODv9-106X_mcRun2_asymptotic_v17-v1/NANOAODSIM'
p19
sg14
F133.2
sg15
S'/eos/cms/store/group/phys_smp/AnalysisFramework/Baobab/Metin/gammaplusb/2016/UL_MC/G1Jet/G1Jet_LHEGpT-400To675_TuneCP5_13TeV-amcatnlo-pythia8/'
p20
ssS'G1Jet_LHEGpt_150To250_2016'
p21
(dp22
g8
F226.2
sg9
F0.1738
sg10
F0.6433
sg11
I5862211
sg12
S'/G1Jet_LHEGpT-150To250_TuneCP5_13TeV-amcatnlo-pythia8/RunIISummer20UL16NanoAODv9-106X_mcRun2_asymptotic_v17-v1/NANOAODSIM'
p23
sg14
F1.882
sg15
S'/eos/cms/store/group/phys_smp/AnalysisFramework/Baobab/Metin/gammaplusb/2016/UL_MC/G1Jet/G1Jet_LHEGpT-150To250_TuneCP5_13TeV-amcatnlo-pythia8/'
p24
ssS'G1Jet_LHEGpt_675ToInf_2016'
p25
(dp26
g8
F0.2478
sg9
F0.1584
sg10
F0.0005027
sg11
I249174
sg12
S'/G1Jet_LHEGpT-675ToInf_TuneCP5_13TeV-amcatnlo-pythia8/RunIISummer20UL16NanoAODv9-106X_mcRun2_asymptotic_v17-v1/NANOAODSIM'
p27
sg14
F1883.0
sg15
S'/eos/cms/store/group/phys_smp/AnalysisFramework/Baobab/Metin/gammaplusb/2016/UL_MC/G1Jet/G1Jet_LHEGpT-675ToInf_TuneCP5_13TeV-amcatnlo-pythia8/'
p28
sssS'G1Jet_LHEGPt_PreVFP'
p29
(dp30
S'G1Jet_LHEGPt_PreVFP_150To250_2016'
p31
(dp32
g8
F226.2
sg9
F0.1738
sg10
F0.6433
sg11
I5861243
sg12
g23
sg14
F1.882
sg15
S'/eos/cms/store/group/phys_smp/AnalysisFramework/Baobab/Metin/gammaplusb/2016/UL_MC/G1Jet_PreVFP/G1Jet_LHEGpT-150To250_TuneCP5_13TeV-amcatnlo-pythia8/'
p33
ssS'G1Jet_LHEGPt_PreVFP_675ToInf_2016'
p34
(dp35
g8
F0.2478
sg9
F0.1584
sg10
F0.0005027
sg11
I249100
sg12
g27
sg14
F1883.0
sg15
S'/eos/cms/store/group/phys_smp/AnalysisFramework/Baobab/Metin/gammaplusb/2016/UL_MC/G1Jet_PreVFP/G1Jet_LHEGpT-675ToInf_TuneCP5_13TeV-amcatnlo-pythia8/'
p36
ssS'G1Jet_LHEGPt_PreVFP_250To400_2016'
p37
(dp38
g8
F26.99
sg9
F0.1697
sg10
F0.08345
sg11
I2918574
sg12
g13
sg14
F17.17
sg15
S'/eos/cms/store/group/phys_smp/AnalysisFramework/Baobab/Metin/gammaplusb/2016/UL_MC/G1Jet_PreVFP/G1Jet_LHEGpT-250To400_TuneCP5_13TeV-amcatnlo-pythia8/'
p39
ssS'G1Jet_LHEGPt_PreVFP_400To675_2016'
p40
(dp41
g8
F3.395
sg9
F0.1638
sg10
F0.007753
sg11
I999246
sg12
g19
sg14
F133.2
sg15
S'/eos/cms/store/group/phys_smp/AnalysisFramework/Baobab/Metin/gammaplusb/2016/UL_MC/G1Jet_PreVFP/G1Jet_LHEGpT-400To675_TuneCP5_13TeV-amcatnlo-pythia8/'
p42
ssssS'bkg'
p43
(dp44
S'QCD_HT_UL2016_PreVFP'
p45
(dp46
S'QCD_HT_UL2016_PreVFP_200To300'
p47
(dp48
g8
F1553000.0
sg9
F0.0
sg10
F349.9
sg11
I16524587
sg12
S'/QCD_HT200to300_TuneCP5_PSWeights_13TeV-madgraph-pythia8/RunIISummer20UL16NanoAODv9-106X_mcRun2_asymptotic_v17-v1/NANOAODSIM'
p49
sg14
F0.000644
sg15
S'/eos/cms/store/group/phys_smp/AnalysisFramework/Baobab/Metin/gammaplusb/2016/UL_MC/QCD_HT_PreVFP/QCD_HT200to300_TuneCP5_PSWeights_13TeV-madgraph-pythia8/'
p50
ssS'QCD_HT_UL2016_PreVFP_1500To2000'
p51
(dp52
g8
F108.3
sg9
F0.0
sg10
F0.05823
sg11
I3503675
sg12
S'/QCD_HT1500to2000_TuneCP5_PSWeights_13TeV-madgraph-pythia8/RunIISummer20UL16NanoAODv9-106X_mcRun2_asymptotic_v17-v1/NANOAODSIM'
p53
sg14
F9.23
sg15
S'/eos/cms/store/group/phys_smp/AnalysisFramework/Baobab/Metin/gammaplusb/2016/UL_MC/QCD_HT_PreVFP/QCD_HT1500to2000_TuneCP5_PSWeights_13TeV-madgraph-pythia8/'
p54
ssS'QCD_HT_UL2016_PreVFP_300To500'
p55
(dp56
g8
F324500.0
sg9
F0.0
sg10
F75.53
sg11
I15183920
sg12
S'/QCD_HT300to500_TuneCP5_PSWeights_13TeV-madgraph-pythia8/RunIISummer20UL16NanoAODv9-106X_mcRun2_asymptotic_v17-v1/NANOAODSIM'
p57
sg14
F0.003082
sg15
S'/eos/cms/store/group/phys_smp/AnalysisFramework/Baobab/Metin/gammaplusb/2016/UL_MC/QCD_HT_PreVFP/QCD_HT300to500_TuneCP5_PSWeights_13TeV-madgraph-pythia8/'
p58
ssS'QCD_HT_UL2016_PreVFP_700To1000'
p59
(dp60
g8
F6437.0
sg9
F0.0
sg10
F1.658
sg11
I15808790
sg12
S'/QCD_HT700to1000_TuneCP5_PSWeights_13TeV-madgraph-pythia8/RunIISummer20UL16NanoAODv9-106X_mcRun2_asymptotic_v17-v1/NANOAODSIM'
p61
sg14
F0.1554
sg15
S'/eos/cms/store/group/phys_smp/AnalysisFramework/Baobab/Metin/gammaplusb/2016/UL_MC/QCD_HT_PreVFP/QCD_HT700to1000_TuneCP5_PSWeights_13TeV-madgraph-pythia8/'
p62
ssS'QCD_HT_UL2016_PreVFP_100To200'
p63
(dp64
g8
F23650000.0
sg9
F0.0
sg10
F4467.0
sg11
I26312661
sg12
S'/QCD_HT100to200_TuneCP5_PSWeights_13TeV-madgraph-pythia8/RunIISummer20UL16NanoAODv9-106X_mcRun2_asymptotic_v17-v1/NANOAODSIM'
p65
sg14
F4.229e-05
sg15
S'/eos/cms/store/group/phys_smp/AnalysisFramework/Baobab/Metin/gammaplusb/2016/UL_MC/QCD_HT_PreVFP/QCD_HT100to200_TuneCP5_PSWeights_13TeV-madgraph-pythia8/'
p66
ssS'QCD_HT_UL2016_PreVFP_500To700'
p67
(dp68
g8
F30280.0
sg9
F0.0
sg10
F7.439
sg11
I15775001
sg12
S'/QCD_HT500to700_TuneCP5_PSWeights_13TeV-madgraph-pythia8/RunIISummer20UL16NanoAODv9-106X_mcRun2_asymptotic_v17-v1/NANOAODSIM'
p69
sg14
F0.03303
sg15
S'/eos/cms/store/group/phys_smp/AnalysisFramework/Baobab/Metin/gammaplusb/2016/UL_MC/QCD_HT_PreVFP/QCD_HT500to700_TuneCP5_PSWeights_13TeV-madgraph-pythia8/'
p70
ssS'QCD_HT_UL2016_PreVFP_50To100'
p71
(dp72
g8
F186000000.0
sg9
F0.0
sg10
F48970.0
sg11
I12233035
sg12
S'/QCD_HT50to100_TuneCP5_PSWeights_13TeV-madgraph-pythia8/RunIISummer20UL16NanoAODv9-106X_mcRun2_asymptotic_v17-v1/NANOAODSIM'
p73
sg14
F5.377e-06
sg15
S'/eos/cms/store/group/phys_smp/AnalysisFramework/Baobab/Metin/gammaplusb/2016/UL_MC/QCD_HT_PreVFP/QCD_HT50to100_TuneCP5_PSWeights_13TeV-madgraph-pythia8/'
p74
ssS'QCD_HT_UL2016_PreVFP_2000ToInf'
p75
(dp76
g8
F22.04
sg9
F0.0
sg10
F0.0156
sg11
I1629000
sg12
S'/QCD_HT2000toInf_TuneCP5_PSWeights_13TeV-madgraph-pythia8/RunIISummer20UL16NanoAODv9-106X_mcRun2_asymptotic_v17-v1/NANOAODSIM'
p77
sg14
F45.38
sg15
S'/eos/cms/store/group/phys_smp/AnalysisFramework/Baobab/Metin/gammaplusb/2016/UL_MC/QCD_HT_PreVFP/QCD_HT2000toInf_TuneCP5_PSWeights_13TeV-madgraph-pythia8/'
p78
ssS'QCD_HT_UL2016_PreVFP_1000To1500'
p79
(dp80
g8
F1122.0
sg9
F0.0
sg10
F0.5173
sg11
I4773503
sg12
S'/QCD_HT1000to1500_TuneCP5_PSWeights_13TeV-madgraph-pythia8/RunIISummer20UL16NanoAODv9-106X_mcRun2_asymptotic_v17-v1/NANOAODSIM'
p81
sg14
F0.8911
sg15
S'/eos/cms/store/group/phys_smp/AnalysisFramework/Baobab/Metin/gammaplusb/2016/UL_MC/QCD_HT_PreVFP/QCD_HT1000to1500_TuneCP5_PSWeights_13TeV-madgraph-pythia8/'
p82
sssS'QCD_HT_UL2016'
p83
(dp84
S'QCD_HT_UL2016_300To500'
p85
(dp86
g8
F324500.0
sg9
F0.0
sg10
F75.53
sg11
I16747056
sg12
g57
sg14
F0.003082
sg15
S'/eos/cms/store/group/phys_smp/AnalysisFramework/Baobab/Metin/gammaplusb/2016/UL_MC/QCD_HT/QCD_HT300to500_TuneCP5_PSWeights_13TeV-madgraph-pythia8/'
p87
ssS'QCD_HT_UL2016_200To300'
p88
(dp89
g8
F1553000.0
sg9
F0.0
sg10
F349.9
sg11
I17569141
sg12
g49
sg14
F0.000644
sg15
S'/eos/cms/store/group/phys_smp/AnalysisFramework/Baobab/Metin/gammaplusb/2016/UL_MC/QCD_HT/QCD_HT200to300_TuneCP5_PSWeights_13TeV-madgraph-pythia8/'
p90
ssS'QCD_HT_UL2016_2000ToInf'
p91
(dp92
g8
F22.04
sg9
F0.0
sg10
F0.0156
sg11
I1847781
sg12
g77
sg14
F45.38
sg15
S'/eos/cms/store/group/phys_smp/AnalysisFramework/Baobab/Metin/gammaplusb/2016/UL_MC/QCD_HT/QCD_HT2000toInf_TuneCP5_PSWeights_13TeV-madgraph-pythia8/'
p93
ssS'QCD_HT_UL2016_1500To2000'
p94
(dp95
g8
F108.3
sg9
F0.0
sg10
F0.05823
sg11
I3003707
sg12
g53
sg14
F9.23
sg15
S'/eos/cms/store/group/phys_smp/AnalysisFramework/Baobab/Metin/gammaplusb/2016/UL_MC/QCD_HT/QCD_HT1500to2000_TuneCP5_PSWeights_13TeV-madgraph-pythia8/'
p96
ssS'QCD_HT_UL2016_50To100'
p97
(dp98
g8
F186000000.0
sg9
F0.0
sg10
F48970.0
sg11
I11197186
sg12
g73
sg14
F5.377e-06
sg15
S'/eos/cms/store/group/phys_smp/AnalysisFramework/Baobab/Metin/gammaplusb/2016/UL_MC/QCD_HT/QCD_HT50to100_TuneCP5_PSWeights_13TeV-madgraph-pythia8/'
p99
ssS'QCD_HT_UL2016_700To1000'
p100
(dp101
g8
F6437.0
sg9
F0.0
sg10
F1.658
sg11
I13750537
sg12
g61
sg14
F0.1554
sg15
S'/eos/cms/store/group/phys_smp/AnalysisFramework/Baobab/Metin/gammaplusb/2016/UL_MC/QCD_HT/QCD_HT700to1000_TuneCP5_PSWeights_13TeV-madgraph-pythia8/'
p102
ssS'QCD_HT_UL2016_1000To1500'
p103
(dp104
g8
F1122.0
sg9
F0.0
sg10
F0.5173
sg11
I4365993
sg12
g81
sg14
F0.8911
sg15
S'/eos/cms/store/group/phys_smp/AnalysisFramework/Baobab/Metin/gammaplusb/2016/UL_MC/QCD_HT/QCD_HT1000to1500_TuneCP5_PSWeights_13TeV-madgraph-pythia8/'
p105
ssS'QCD_HT_UL2016_500To700'
p106
(dp107
g8
F30280.0
sg9
F0.0
sg10
F7.439
sg11
I14212819
sg12
g69
sg14
F0.03303
sg15
S'/eos/cms/store/group/phys_smp/AnalysisFramework/Baobab/Metin/gammaplusb/2016/UL_MC/QCD_HT/QCD_HT500to700_TuneCP5_PSWeights_13TeV-madgraph-pythia8/'
p108
ssS'QCD_HT_UL2016_100To200'
p109
(dp110
g8
F23650000.0
sg9
F0.0
sg10
F4467.0
sg11
I23717410
sg12
g65
sg14
F4.229e-05
sg15
S'/eos/cms/store/group/phys_smp/AnalysisFramework/Baobab/Metin/gammaplusb/2016/UL_MC/QCD_HT/QCD_HT100to200_TuneCP5_PSWeights_13TeV-madgraph-pythia8/'
p111
ssssS'data'
p112
(dp113
S'SinglePhoton_UL'
p114
(dp115
S'F_noHIPM'
p116
(dp117
g8
I1
sg9
F0.0
sg10
I1
sg15
S'/eos/cms/store/group/phys_smp/AnalysisFramework/Baobab/Metin/gammaplusb/2016/data/SinglePhoton/UL/run2016F_noHIPM/'
p118
sg14
I1
sg12
S'/SinglePhoton/Run2016F-UL2016_MiniAODv2_NanoAODv9-v1/NANOAOD'
p119
ssS'C'
p120
(dp121
g8
I1
sg9
F0.0
sg10
I1
sg15
S'/eos/cms/store/group/phys_smp/AnalysisFramework/Baobab/Metin/gammaplusb/2016/data/SinglePhoton/UL/Run2016C/'
p122
sg14
I1
sg12
S'/SinglePhoton/Run2016C-HIPM_UL2016_MiniAODv2_NanoAODv9-v1/NANOAOD'
p123
ssS'E'
p124
(dp125
g8
I1
sg9
F0.0
sg10
I1
sg15
S'/eos/cms/store/group/phys_smp/AnalysisFramework/Baobab/Metin/gammaplusb/2016/data/SinglePhoton/UL/Run2016E/'
p126
sg14
I1
sg12
S'/SinglePhoton/Run2016E-HIPM_UL2016_MiniAODv2_NanoAODv9-v1/NANOAOD'
p127
ssS'D'
p128
(dp129
g8
I1
sg9
F0.0
sg10
I1
sg15
S'/eos/cms/store/group/phys_smp/AnalysisFramework/Baobab/Metin/gammaplusb/2016/data/SinglePhoton/UL/Run2016D/'
p130
sg14
I1
sg12
S'/SinglePhoton/Run2016D-HIPM_UL2016_MiniAODv2_NanoAODv9-v1/NANOAOD'
p131
ssS'G'
p132
(dp133
g8
I1
sg9
F0.0
sg10
I1
sg15
S'/eos/cms/store/group/phys_smp/AnalysisFramework/Baobab/Metin/gammaplusb/2016/data/SinglePhoton/UL/Run2016G/'
p134
sg14
I1
sg12
S'/SinglePhoton/Run2016G-UL2016_MiniAODv2_NanoAODv9-v2/NANOAOD'
p135
ssS'F'
p136
(dp137
g8
I1
sg9
F0.0
sg10
I1
sg15
S'/eos/cms/store/group/phys_smp/AnalysisFramework/Baobab/Metin/gammaplusb/2016/data/SinglePhoton/UL/Run2016F/'
p138
sg14
I1
sg12
S'/SinglePhoton/Run2016F-HIPM_UL2016_MiniAODv2_NanoAODv9-v1/NANOAOD'
p139
ssS'B_ver2'
p140
(dp141
g8
I1
sg9
F0.0
sg10
I1
sg15
S'/eos/cms/store/group/phys_smp/AnalysisFramework/Baobab/Metin/gammaplusb/2016/data/SinglePhoton/UL/B_ver2/'
p142
sg14
I1
sg12
S'/SinglePhoton/Run2016B-ver2_HIPM_UL2016_MiniAODv2_NanoAODv9-v1/NANOAOD'
p143
ssS'H'
p144
(dp145
g8
I1
sg9
F0.0
sg10
I1
sg15
S'/eos/cms/store/group/phys_smp/AnalysisFramework/Baobab/Metin/gammaplusb/2016/data/SinglePhoton/UL/Run2016H/'
p146
sg14
I1
sg12
S'/SinglePhoton/Run2016H-UL2016_MiniAODv2_NanoAODv9-v2/NANOAOD'
p147
ssS'B_ver1'
p148
(dp149
g8
I1
sg9
F0.0
sg10
I1
sg15
S'/eos/cms/store/group/phys_smp/AnalysisFramework/Baobab/Metin/gammaplusb/2016/data/SinglePhoton/UL/B_ver1/'
p150
sg14
I1
sg12
S'/SinglePhoton/Run2016B-ver1_HIPM_UL2016_MiniAODv2_NanoAODv9-v1/NANOAOD'
p151
sssssI2017
(dp152
g2
(dp153
sg43
(dp154
sg112
(dp155
g114
(dp156
g120
(dp157
g8
I1
sg9
F0.0
sg10
I1
sg15
S'/eos/cms/store/group/phys_smp/AnalysisFramework/Baobab/Metin/gammaplusb/2017/data/SinglePhoton_UL/Run2017C/'
p158
sg14
I1
sg12
S'/SinglePhoton/Run2017C-UL2017_MiniAODv2_NanoAODv9-v1/NANOAOD'
p159
ssS'B'
p160
(dp161
g8
I1
sg9
F0.0
sg10
I1
sg15
S'/eos/cms/store/group/phys_smp/AnalysisFramework/Baobab/Metin/gammaplusb/2017/data/SinglePhoton_UL/Run2017B/'
p162
sg14
I1
sg12
S'/SinglePhoton/Run2017B-UL2017_MiniAODv2_NanoAODv9-v1/NANOAOD'
p163
ssg124
(dp164
g8
I1
sg9
F0.0
sg10
I1
sg15
S'/eos/cms/store/group/phys_smp/AnalysisFramework/Baobab/Metin/gammaplusb/2017/data/SinglePhoton_UL/Run2017E/'
p165
sg14
I1
sg12
S'/SinglePhoton/Run2017E-UL2017_MiniAODv2_NanoAODv9-v1/NANOAOD'
p166
ssg128
(dp167
g8
I1
sg9
F0.0
sg10
I1
sg15
S'/eos/cms/store/group/phys_smp/AnalysisFramework/Baobab/Metin/gammaplusb/2017/data/SinglePhoton_UL/Run2017D/'
p168
sg14
I1
sg12
S'/SinglePhoton/Run2017D-UL2017_MiniAODv2_NanoAODv9-v1/NANOAOD'
p169
ssg136
(dp170
g8
I1
sg9
F0.0
sg10
I1
sg15
S'/eos/cms/store/group/phys_smp/AnalysisFramework/Baobab/Metin/gammaplusb/2017/data/SinglePhoton_UL/Run2017F/'
p171
sg14
I1
sg12
S'/SinglePhoton/Run2017F-UL2017_MiniAODv2_NanoAODv9-v1/NANOAOD'
p172
sssssI2018
(dp173
g2
(dp174
sg43
(dp175
sg112
(dp176
ss.