(dp0
I2016
(dp1
S'signal'
p2
(dp3
S'GJets'
p4
(dp5
S'xsec'
p6
F365400.0
sS'fraction_negative_weight'
p7
F0.0
sS'xsec_unc'
p8
F382.7
sS'nevents'
p9
I19794775
sS'das_path'
p10
S'/GJet_Pt-15To6000_TuneCUETP8M1-Flat_13TeV_pythia8_20M/RunIISummer16NanoAODv7-PUMoriond17_Nano02Apr2020_102X_mcRun2_asymptotic_v8-v1/NANOAODSIM'
p11
sS'equivalent_lumi'
p12
F0.002737
sS'dir'
p13
S'/eos/user/e/ecasilar/SMPVJ_Gamma_BJETS/MC_filtered/GJet_Pt-15To6000_TuneCUETP8M1-Flat_13TeV_pythia8_20M/'
p14
sssS'bkg'
p15
(dp16
S'QCD'
p17
(dp18
g6
F1370000000.0
sg7
F0.0
sg8
F2159000.0
sg9
I9879256
sg10
S'/QCD_Pt-15to7000_TuneCUETP8M1_FlatP6_13TeV_pythia8/RunIISummer16NanoAODv7-PUMoriond17_Nano02Apr2020_102X_mcRun2_asymptotic_v8-v1/NANOAODSIM'
p19
sg12
F7.301e-07
sg13
S'/eos/user/e/ecasilar/SMPVJ_Gamma_BJETS/MC_filtered/QCD_Pt-15to7000_TuneCUETP8M1_FlatP6_13TeV_pythia8/'
p20
ssS'ST_t_channel_top'
p21
(dp22
g6
F136.82
sg7
F0.0
sg8
F0.0
sg9
I58403420
sg10
S'/ST_t-channel_top_4f_inclusiveDecays_13TeV-powhegV2-madspin-pythia8_TuneCUETP8M1/RunIISummer16NanoAODv7-PUMoriond17_Nano02Apr2020_102X_mcRun2_asymptotic_v8-v2/NANOAODSIM'
p23
sg12
F0.0
sg13
S'/eos/user/e/ecasilar/SMPVJ_Gamma_BJETS/MC_filtered/ST_t-channel_top_4f_inclusiveDecays_13TeV-powhegV2-madspin-pythia8_TuneCUETP8M1/'
p24
ssS'ST_t_channel_antitop'
p25
(dp26
g6
F81.42
sg7
F0.0
sg8
F0.0
sg9
I38811017
sg10
S'/ST_t-channel_antitop_4f_inclusiveDecays_13TeV-powhegV2-madspin-pythia8_TuneCUETP8M1/RunIISummer16NanoAODv7-PUMoriond17_Nano02Apr2020_102X_mcRun2_asymptotic_v8-v1/NANOAODSIM'
p27
sg12
F0.0
sg13
S'/eos/user/e/ecasilar/SMPVJ_Gamma_BJETS/MC_filtered/ST_t-channel_antitop_4f_inclusiveDecays_13TeV-powhegV2-madspin-pythia8_TuneCUETP8M1/'
p28
ssS'TGJets'
p29
(dp30
g6
F2.967
sg7
F0.4008
sg8
F0.01052
sg9
I1556996
sg10
S'/TGJets_TuneCP5_13TeV_amcatnlo_madspin_pythia8/RunIIFall17NanoAODv7-PU2017_12Apr2018_Nano02Apr2020_102X_mc2017_realistic_v8-v1/NANOAODSIM'
p31
sg12
F13.27
sg13
S'/eos/user/e/ecasilar/SMPVJ_Gamma_BJETS/MC_filtered/TGJets_TuneCUETP8M1_13TeV_amcatnlo_madspin_pythia8/'
p32
ssS'ST_tW_antitop'
p33
(dp34
g6
F38.06
sg7
F0.0
sg8
F0.03055
sg9
I6933094
sg10
S'/ST_tW_antitop_5f_inclusiveDecays_13TeV-powheg-pythia8_TuneCUETP8M1/RunIISummer16NanoAODv7-PUMoriond17_Nano02Apr2020_102X_mcRun2_asymptotic_v8_ext1-v1/NANOAODSIM'
p35
sg12
F26.27
sg13
S'/eos/user/e/ecasilar/SMPVJ_Gamma_BJETS/MC_filtered/ST_tW_antitop_5f_inclusiveDecays_13TeV-powheg-pythia8_TuneCUETP8M1/'
p36
ssS'TTGJets'
p37
(dp38
g6
F3.795
sg7
F0.3381
sg8
F0.02629
sg9
I9877942
sg10
S'/TTGJets_TuneCP5_13TeV-amcatnloFXFX-madspin-pythia8/RunIIFall17NanoAODv7-PU2017_12Apr2018_Nano02Apr2020_102X_mc2017_realistic_v8_ext1-v1/NANOAODSIM'
p39
sg12
F27.63
sg13
S'/eos/user/e/ecasilar/SMPVJ_Gamma_BJETS/MC_filtered/TTGJets_TuneCUETP8M1_13TeV-amcatnloFXFX-madspin-pythia8/'
p40
ssS'TTJets'
p41
(dp42
g6
F511.3
sg7
F0.0
sg8
F1.412
sg9
I10199051
sg10
S'/TTJets_TuneCUETP8M1_13TeV-madgraphMLM-pythia8/RunIISummer16NanoAODv7-PUMoriond17_Nano02Apr2020_102X_mcRun2_asymptotic_v8-v1/NANOAODSIM'
p43
sg12
F1.956
sg13
S'/eos/user/e/ecasilar/SMPVJ_Gamma_BJETS/MC_filtered/TTJets_TuneCUETP8M1_13TeV-madgraphMLM-pythia8/'
p44
ssS'ST_s_channel'
p45
(dp46
g6
F10.12
sg7
F0.1857
sg8
F0.01334
sg9
I2917199
sg10
S'/ST_s-channel_4f_InclusiveDecays_13TeV-amcatnlo-pythia8/RunIISummer16NanoAODv7-PUMoriond17_Nano02Apr2020_102X_mcRun2_asymptotic_v8-v1/NANOAODSIM'
p47
sg12
F39.05
sg13
S'/eos/user/e/ecasilar/SMPVJ_Gamma_BJETS/MC_filtered/ST_s-channel_4f_InclusiveDecays_13TeV-amcatnlo-pythia8/'
p48
ssS'QCD_h1'
p49
(dp50
g6
F964800.0
sg7
F0.0
sg8
F92360.0
sg9
I9497268
sg10
S'/QCD_Pt-15to7000_TuneCUETHS1_FlatP6_13TeV_herwigpp/RunIISummer16NanoAODv7-PUMoriond17_Nano02Apr2020_102X_mcRun2_asymptotic_v8-v1/NANOAODSIM'
p51
sg12
F7.301e-07
sg13
S'/eos/user/e/ecasilar/SMPVJ_Gamma_BJETS/MC_filtered/QCD_Pt-15to7000_TuneCUETHS1_FlatP6_13TeV_herwigpp/'
p52
ssS'QCD_h2'
p53
(dp54
g6
F309800000.0
sg7
F0.0
sg8
F7932000.0
sg9
I9865688
sg10
S'/QCD_Pt-15to7000_TuneCUETHS1_Flat_13TeV_herwigpp/RunIISummer16NanoAODv7-PUMoriond17_Nano02Apr2020_102X_mcRun2_asymptotic_v8-v1/NANOAODSIM'
p55
sg12
F7.301e-07
sg13
S'/eos/user/e/ecasilar/SMPVJ_Gamma_BJETS/MC_filtered/QCD_Pt-15to7000_TuneCUETHS1_Flat_13TeV_herwigpp/'
p56
ssS'ST_tW_top'
p57
(dp58
g6
F38.09
sg7
F0.0
sg8
F0.0305
sg9
I6952830
sg10
S'/ST_tW_top_5f_inclusiveDecays_13TeV-powheg-pythia8_TuneCUETP8M1/RunIISummer16NanoAODv7-PUMoriond17_Nano02Apr2020_102X_mcRun2_asymptotic_v8_ext1-v1/NANOAODSIM'
p59
sg12
F26.25
sg13
S'/eos/user/e/ecasilar/SMPVJ_Gamma_BJETS/MC_filtered/ST_tW_top_5f_inclusiveDecays_13TeV-powheg-pythia8_TuneCUETP8M1/'
p60
sssS'data'
p61
(dp62
S'SinglePhoton'
p63
(dp64
S'C'
p65
(dp66
g6
I1
sg7
F0.0
sg8
I1
sg13
S'/eos/user/e/ecasilar/SMPVJ_Gamma_BJETS/data_lumiapplied_loose/SinglePhoton/Run2016C_02Apr2020-v1'
p67
sg12
I1
sg10
S'/SinglePhoton/Run2016C-02Apr2020-v1/NANOAOD'
p68
ssS'B'
p69
(dp70
g6
I1
sg7
F0.0
sg8
I1
sg13
S'/eos/user/e/ecasilar/SMPVJ_Gamma_BJETS/data_lumiapplied_loose/SinglePhoton/Run2016B_02Apr2020-v1'
p71
sg12
I1
sg10
S'/SinglePhoton/Run2016B-02Apr2020_ver2-v1/NANOAOD'
p72
ssS'E'
p73
(dp74
g6
I1
sg7
F0.0
sg8
I1
sg13
S'/eos/user/e/ecasilar/SMPVJ_Gamma_BJETS/data_lumiapplied_loose/SinglePhoton/Run2016E_02Apr2020-v1'
p75
sg12
I1
sg10
S'/SinglePhoton/Run2016E-02Apr2020-v1/NANOAOD'
p76
ssS'D'
p77
(dp78
g6
I1
sg7
F0.0
sg8
I1
sg13
S'/eos/user/e/ecasilar/SMPVJ_Gamma_BJETS/data_lumiapplied_loose/SinglePhoton/Run2016D_02Apr2020-v1'
p79
sg12
I1
sg10
S'/SinglePhoton/Run2016D-02Apr2020-v1/NANOAOD'
p80
ssS'G'
p81
(dp82
g6
I1
sg7
F0.0
sg8
I1
sg13
S'/eos/user/e/ecasilar/SMPVJ_Gamma_BJETS/data_lumiapplied_loose/SinglePhoton/Run2016G_02Apr2020-v1'
p83
sg12
I1
sg10
S'/SinglePhoton/Run2016G-02Apr2020-v1/NANOAOD'
p84
ssS'F'
p85
(dp86
g6
I1
sg7
F0.0
sg8
I1
sg13
S'/eos/user/e/ecasilar/SMPVJ_Gamma_BJETS/data_lumiapplied_loose/SinglePhoton/Run2016F_02Apr2020-v1'
p87
sg12
I1
sg10
S'/SinglePhoton/Run2016F-02Apr2020-v1/NANOAOD'
p88
ssS'H'
p89
(dp90
g6
I1
sg7
F0.0
sg8
I1
sg13
S'/eos/user/e/ecasilar/SMPVJ_Gamma_BJETS/data_lumiapplied_loose/SinglePhoton/Run2016H_02Apr2020-v1'
p91
sg12
I1
sg10
S'/SinglePhoton/Run2016H-02Apr2020-v1/NANOAOD'
p92
sssS'SingleMuon'
p93
(dp94
g65
(dp95
g6
I1
sg7
F0.0
sg8
I1
sg13
S'/eos/user/e/ecasilar/SMPVJ_Gamma_BJETS/data_lumiapplied/SingleMuon/Run2016C_02Apr2020-v1'
p96
sg12
I1
sg10
S'/SingleMuon/Run2016C-02Apr2020-v1/NANOAOD'
p97
ssg69
(dp98
g6
I1
sg7
F0.0
sg8
I1
sg13
S'/eos/user/e/ecasilar/SMPVJ_Gamma_BJETS/data_lumiapplied/SingleMuon/Run2016B_02Apr2020-v1'
p99
sg12
I1
sg10
S'/SingleMuon/Run2016B-02Apr2020_ver2-v1/NANOAOD'
p100
ssg73
(dp101
g6
I1
sg7
F0.0
sg8
I1
sg13
S'/eos/user/e/ecasilar/SMPVJ_Gamma_BJETS/data_lumiapplied/SingleMuon/Run2016E_02Apr2020-v1'
p102
sg12
I1
sg10
S'/SingleMuon/Run2016E-02Apr2020-v1/NANOAOD'
p103
ssg77
(dp104
g6
I1
sg7
F0.0
sg8
I1
sg13
S'/eos/user/e/ecasilar/SMPVJ_Gamma_BJETS/data_lumiapplied/SingleMuon/Run2016D_02Apr2020-v1'
p105
sg12
I1
sg10
S'/SingleMuon/Run2016D-02Apr2020-v1/NANOAOD'
p106
ssg81
(dp107
g6
I1
sg7
F0.0
sg8
I1
sg13
S'/eos/user/e/ecasilar/SMPVJ_Gamma_BJETS/data_lumiapplied/SingleMuon/Run2016G_02Apr2020-v1'
p108
sg12
I1
sg10
S'/SingleMuon/Run2016G-02Apr2020-v1/NANOAOD'
p109
ssg85
(dp110
g6
I1
sg7
F0.0
sg8
I1
sg13
S'/eos/user/e/ecasilar/SMPVJ_Gamma_BJETS/data_lumiapplied/SingleMuon/Run2016F_02Apr2020-v1'
p111
sg12
I1
sg10
S'/SingleMuon/Run2016F-02Apr2020-v1/NANOAOD'
p112
ssg89
(dp113
g6
I1
sg7
F0.0
sg8
I1
sg13
S'/eos/user/e/ecasilar/SMPVJ_Gamma_BJETS/data_lumiapplied/SingleMuon/Run2016H_02Apr2020-v1'
p114
sg12
I1
sg10
S'/SingleMuon/Run2016H-02Apr2020-v1/NANOAOD'
p115
sssss.