(dp0
I2016
(dp1
S'signal'
p2
(dp3
S'G1Jet_Pt'
p4
(dp5
S'G1Jet_Pt_250To400_NOExt'
p6
(dp7
S'xsec'
p8
F25.48
sS'fraction_negative_weight'
p9
F0.2331
sS'xsec_unc'
p10
F0.07909
sS'nevents'
p11
I1000000
sS'das_path'
p12
S'/G1Jet_Pt-250To400_TuneCUETP8M1_13TeV-amcatnlo-pythia8/RunIISummer16NanoAODv7-PUMoriond17_Nano02Apr2020_102X_mcRun2_asymptotic_v8-v1/NANOAODSIM'
p13
sS'equivalent_lumi'
p14
F11.18
sS'dir'
p15
S'/eos/user/e/ecasilar/SMPVJ_Gamma_BJETS/MC/G1Jet_Pt/GenMatching/G1Jet_Pt-250To400_TuneCUETP8M1_13TeV-amcatnlo-pythia8_NOExt/merged/'
p16
ssS'G1Jet_Pt_400To650_NOExt'
p17
(dp18
g8
F3.14
sg9
F0.2326
sg10
F0.007797
sg11
I982900
sg12
S'/G1Jet_Pt-400To650_TuneCUETP8M1_13TeV-amcatnlo-pythia8/RunIISummer16NanoAODv7-PUMoriond17_Nano02Apr2020_102X_mcRun2_asymptotic_v8-v1/NANOAODSIM'
p19
sg14
F91.08
sg15
S'/eos/user/e/ecasilar/SMPVJ_Gamma_BJETS/MC/G1Jet_Pt/GenMatching/G1Jet_Pt-400To650_TuneCUETP8M1_13TeV-amcatnlo-pythia8_NOExt/merged/'
p20
ssS'G1Jet_Pt_100To250_NOExt'
p21
(dp22
g8
F1155.0
sg9
F0.2257
sg10
F4.489
sg11
I998265
sg12
S'/G1Jet_Pt-100To250_TuneCUETP8M1_13TeV-amcatnlo-pythia8/RunIISummer16NanoAODv7-PUMoriond17_Nano02Apr2020_102X_mcRun2_asymptotic_v8-v1/NANOAODSIM'
p23
sg14
F0.2606
sg15
S'/eos/user/e/ecasilar/SMPVJ_Gamma_BJETS/MC/G1Jet_Pt/GenMatching/G1Jet_Pt-100To250_TuneCUETP8M1_13TeV-amcatnlo-pythia8_NOExt/merged/'
p24
ssS'G1Jet_Pt_50To100_NOExt'
p25
(dp26
g8
F13530.0
sg9
F0.2234
sg10
F55.01
sg11
I4962870
sg12
S'/G1Jet_Pt-50To100_TuneCUETP8M1_13TeV-amcatnlo-pythia8/RunIISummer16NanoAODv7-PUMoriond17_Nano02Apr2020_102X_mcRun2_asymptotic_v8-v1/NANOAODSIM'
p27
sg14
F0.02261
sg15
S'/eos/user/e/ecasilar/SMPVJ_Gamma_BJETS/MC/G1Jet_Pt/GenMatching/G1Jet_Pt-50To100_TuneCUETP8M1_13TeV-amcatnlo-pythia8_NOExt/merged/'
p28
ssS'G1Jet_Pt_650ToInf_NOExt'
p29
(dp30
g8
F0.2939
sg9
F0.2172
sg10
F0.0006189
sg11
I961024
sg12
S'/G1Jet_Pt-650ToInf_TuneCUETP8M1_13TeV-amcatnlo-pythia8/RunIISummer16NanoAODv7-PUMoriond17_Nano02Apr2020_102X_mcRun2_asymptotic_v8-v1/NANOAODSIM'
p31
sg14
F1088.0
sg15
S'/eos/user/e/ecasilar/SMPVJ_Gamma_BJETS/MC/G1Jet_Pt/GenMatching/G1Jet_Pt-650ToInf_TuneCUETP8M1_13TeV-amcatnlo-pythia8_NOExt/merged/'
p32
sssS'GJets'
p33
(dp34
g8
F365400.0
sg9
F0.0
sg10
F382.7
sg11
I19794775
sg12
S'/GJet_Pt-15To6000_TuneCUETP8M1-Flat_13TeV_pythia8_20M/RunIISummer16NanoAODv7-PUMoriond17_Nano02Apr2020_102X_mcRun2_asymptotic_v8-v1/NANOAODSIM'
p35
sg14
F0.002737
sg15
S'/eos/user/e/ecasilar/SMPVJ_Gamma_BJETS/MC/GJet_Pt-15To6000_TuneCUETP8M1-Flat_13TeV_pythia8_20M/'
p36
ssS'CR_G1Jet_Pt'
p37
(dp38
g6
(dp39
g8
F25.48
sg9
F0.2331
sg10
F0.07909
sg11
I1000000
sg12
g13
sg14
F11.18
sg15
S'/eos/user/e/ecasilar/SMPVJ_Gamma_BJETS/MC/G1Jet_Pt/High_PT_LooseNotTight/G1Jet_Pt-250To400_TuneCUETP8M1_13TeV-amcatnlo-pythia8_NOExt/'
p40
ssg17
(dp41
g8
F3.14
sg9
F0.2326
sg10
F0.007797
sg11
I982900
sg12
g19
sg14
F91.08
sg15
S'/eos/user/e/ecasilar/SMPVJ_Gamma_BJETS/MC/G1Jet_Pt/High_PT_LooseNotTight/G1Jet_Pt-400To650_TuneCUETP8M1_13TeV-amcatnlo-pythia8_NOExt/'
p42
ssg21
(dp43
g8
F1155.0
sg9
F0.2257
sg10
F4.489
sg11
I998265
sg12
g23
sg14
F0.2606
sg15
S'/eos/user/e/ecasilar/SMPVJ_Gamma_BJETS/MC/G1Jet_Pt/High_PT_LooseNotTight/G1Jet_Pt-100To250_TuneCUETP8M1_13TeV-amcatnlo-pythia8_NOExt/'
p44
ssg25
(dp45
g8
F13530.0
sg9
F0.2234
sg10
F55.01
sg11
I4962870
sg12
g27
sg14
F0.02261
sg15
S'/eos/user/e/ecasilar/SMPVJ_Gamma_BJETS/MC/G1Jet_Pt/High_PT_LooseNotTight/G1Jet_Pt-50To100_TuneCUETP8M1_13TeV-amcatnlo-pythia8_NOExt/'
p46
ssg29
(dp47
g8
F0.2939
sg9
F0.2172
sg10
F0.0006189
sg11
I961024
sg12
g31
sg14
F1088.0
sg15
S'/eos/user/e/ecasilar/SMPVJ_Gamma_BJETS/MC/G1Jet_Pt/High_PT_LooseNotTight/G1Jet_Pt-650ToInf_TuneCUETP8M1_13TeV-amcatnlo-pythia8_NOExt/'
p48
sssS'G1Jet_LHEGpt'
p49
(dp50
S'G1Jet_LHEGpt_250To400_2016'
p51
(dp52
g8
F26.99
sg9
F0.1697
sg10
F0.08345
sg11
I3004010
sg12
S'/G1Jet_LHEGpT-250To400_TuneCP5_13TeV-amcatnlo-pythia8/RunIISummer20UL16NanoAODv9-106X_mcRun2_asymptotic_v17-v1/NANOAODSIM'
p53
sg14
F17.17
sg15
S'/eos/cms/store/group/phys_smp/AnalysisFramework/Baobab/Metin/gammaplusb/2016/UL_MC/G1Jet/G1Jet_LHEGpT-250To400_TuneCP5_13TeV-amcatnlo-pythia8/'
p54
ssS'G1Jet_LHEGpt_400To675_2016'
p55
(dp56
g8
F3.395
sg9
F0.1638
sg10
F0.007753
sg11
I1000053
sg12
S'/G1Jet_LHEGpT-400To675_TuneCP5_13TeV-amcatnlo-pythia8/RunIISummer20UL16NanoAODv9-106X_mcRun2_asymptotic_v17-v1/NANOAODSIM'
p57
sg14
F133.2
sg15
S'/eos/cms/store/group/phys_smp/AnalysisFramework/Baobab/Metin/gammaplusb/2016/UL_MC/G1Jet/G1Jet_LHEGpT-400To675_TuneCP5_13TeV-amcatnlo-pythia8/'
p58
ssS'G1Jet_LHEGpt_150To250_2016'
p59
(dp60
g8
F2262.0
sg9
F0.1738
sg10
F0.6433
sg11
I5862211
sg12
S'/G1Jet_LHEGpT-150To250_TuneCP5_13TeV-amcatnlo-pythia8/RunIISummer20UL16NanoAODv9-106X_mcRun2_asymptotic_v17-v1/NANOAODSIM'
p61
sg14
F1.882
sg15
S'/eos/cms/store/group/phys_smp/AnalysisFramework/Baobab/Metin/gammaplusb/2016/UL_MC/G1Jet/G1Jet_LHEGpT-150To250_TuneCP5_13TeV-amcatnlo-pythia8/'
p62
ssS'G1Jet_LHEGpt_675ToInf_2016'
p63
(dp64
g8
F0.2478
sg9
F0.1584
sg10
F0.0005027
sg11
I249174
sg12
S'/G1Jet_LHEGpT-675ToInf_TuneCP5_13TeV-amcatnlo-pythia8/RunIISummer20UL16NanoAODv9-106X_mcRun2_asymptotic_v17-v1/NANOAODSIM'
p65
sg14
F1883.0
sg15
S'/eos/cms/store/group/phys_smp/AnalysisFramework/Baobab/Metin/gammaplusb/2016/UL_MC/G1Jet/G1Jet_LHEGpT-675ToInf_TuneCP5_13TeV-amcatnlo-pythia8/'
p66
sssS'GJets_Pt'
p67
(dp68
S'GJets_Pt_100To200'
p69
(dp70
g8
F1032.0
sg9
F0.01085
sg10
F7.109
sg11
I498029
sg12
S'/GJets_Pt-100To200_13TeV-sherpa/RunIISummer16NanoAODv7-PUMoriond17_Nano02Apr2020_102X_mcRun2_asymptotic_v8-v1/NANOAODSIM'
p71
sg14
F0.9342
sg15
S'/eos/user/e/ecasilar/SMPVJ_Gamma_BJETS/MC/GJets_Pt-100To200_13TeV-sherpa/'
p72
ssS'GJets_Pt_1000To2000'
p73
(dp74
g8
F0.02092
sg9
F0.01466
sg10
F0.0001703
sg11
I399578
sg12
S'/GJets_Pt-1000To2000_13TeV-sherpa/RunIISummer16NanoAODv7-PUMoriond17_Nano02Apr2020_102X_mcRun2_asymptotic_v8-v1/NANOAODSIM'
p75
sg14
F45040.0
sg15
S'/eos/user/e/ecasilar/SMPVJ_Gamma_BJETS/MC/GJets_Pt-1000To2000_13TeV-sherpa/'
p76
ssS'GJets_Pt_20To100'
p77
(dp78
g8
F137800.0
sg9
F0.01828
sg10
F7.109
sg11
I498342
sg12
S'/GJets_Pt-20To100_13TeV-sherpa/RunIISummer16NanoAODv7-PUMoriond17_Nano02Apr2020_102X_mcRun2_asymptotic_v8-v1/NANOAODSIM'
p79
sg14
F0.006737
sg15
S'/eos/user/e/ecasilar/SMPVJ_Gamma_BJETS/MC/GJets_Pt-20To100_13TeV-sherpa/'
p80
ssS'GJets_Pt_2000To5000'
p81
(dp82
g8
F7.451e-05
sg9
F0.1247
sg10
F7.843e-07
sg11
I299739
sg12
S'/GJets_Pt-2000To5000_13TeV-sherpa/RunIISummer16NanoAODv7-PUMoriond17_Nano02Apr2020_102X_mcRun2_asymptotic_v8-v1/NANOAODSIM'
p83
sg14
F7537000.0
sg15
S'/eos/user/e/ecasilar/SMPVJ_Gamma_BJETS/MC/GJets_Pt-2000To5000_13TeV-sherpa/'
p84
ssS'GJets_Pt_500To1000'
p85
(dp86
g8
F0.9904
sg9
F0.01163
sg10
F0.00919
sg11
I484865
sg12
S'/GJets_Pt-500To1000_13TeV-sherpa/RunIISummer16NanoAODv7-PUMoriond17_Nano02Apr2020_102X_mcRun2_asymptotic_v8-v1/NANOAODSIM'
p87
sg14
F940.6
sg15
S'/eos/user/e/ecasilar/SMPVJ_Gamma_BJETS/MC/GJets_Pt-500To1000_13TeV-sherpa/'
p88
ssS'GJets_Pt_200To500'
p89
(dp90
g8
F70.15
sg9
F0.01032
sg10
F0.6311
sg11
I476434
sg12
S'/GJets_Pt-200To500_13TeV-sherpa/RunIISummer16NanoAODv7-PUMoriond17_Nano02Apr2020_102X_mcRun2_asymptotic_v8-v1/NANOAODSIM'
p91
sg14
F13.97
sg15
S'/eos/user/e/ecasilar/SMPVJ_Gamma_BJETS/MC/GJets_Pt-200To500_13TeV-sherpa/'
p92
sssS'G1Jet_LHEGPt_PreVFP'
p93
(dp94
S'G1Jet_LHEGPt_PreVFP_150To250_2016'
p95
(dp96
g8
F2262.0
sg9
F0.1738
sg10
F0.6433
sg11
I5861243
sg12
g61
sg14
F1.882
sg15
S'/eos/cms/store/group/phys_smp/AnalysisFramework/Baobab/Metin/gammaplusb/2016/UL_MC/G1Jet_PreVFP/G1Jet_LHEGpT-150To250_TuneCP5_13TeV-amcatnlo-pythia8/'
p97
ssS'G1Jet_LHEGPt_PreVFP_675ToInf_2016'
p98
(dp99
g8
F0.2478
sg9
F0.1584
sg10
F0.0005027
sg11
I249100
sg12
g65
sg14
F1883.0
sg15
S'/eos/cms/store/group/phys_smp/AnalysisFramework/Baobab/Metin/gammaplusb/2016/UL_MC/G1Jet_PreVFP/G1Jet_LHEGpT-675ToInf_TuneCP5_13TeV-amcatnlo-pythia8/'
p100
ssS'G1Jet_LHEGPt_PreVFP_250To400_2016'
p101
(dp102
g8
F26.99
sg9
F0.1697
sg10
F0.08345
sg11
I2918574
sg12
g53
sg14
F17.17
sg15
S'/eos/cms/store/group/phys_smp/AnalysisFramework/Baobab/Metin/gammaplusb/2016/UL_MC/G1Jet_PreVFP/G1Jet_LHEGpT-250To400_TuneCP5_13TeV-amcatnlo-pythia8/'
p103
ssS'G1Jet_LHEGPt_PreVFP_400To675_2016'
p104
(dp105
g8
F3.395
sg9
F0.1638
sg10
F0.007753
sg11
I999246
sg12
g57
sg14
F133.2
sg15
S'/eos/cms/store/group/phys_smp/AnalysisFramework/Baobab/Metin/gammaplusb/2016/UL_MC/G1Jet_PreVFP/G1Jet_LHEGpT-400To675_TuneCP5_13TeV-amcatnlo-pythia8/'
p106
sssS'GJets_HT'
p107
(dp108
S'GJets_HT_400To600'
p109
(dp110
g8
F274.4
sg9
F0.0
sg10
F0.8368
sg11
I2530341
sg12
S'/GJets_HT-400To600_TuneCUETP8M1_13TeV-madgraphMLM-pythia8/RunIISummer16NanoAODv7-PUMoriond17_Nano02Apr2020_102X_mcRun2_asymptotic_v8_ext1-v1/NANOAODSIM'
p111
sg14
F3.612
sg15
S'/eos/user/e/ecasilar/SMPVJ_Gamma_BJETS/MC/GJets_HT-400To600_TuneCUETP8M1_13TeV-madgraphMLM-pythia8/'
p112
ssS'GJets_HT_200To400'
p113
(dp114
g8
F2305.0
sg9
F0.0
sg10
F6.945
sg11
I10404907
sg12
S'/GJets_HT-200To400_TuneCUETP8M1_13TeV-madgraphMLM-pythia8/RunIISummer16NanoAODv7-PUMoriond17_Nano02Apr2020_102X_mcRun2_asymptotic_v8_ext1-v1/NANOAODSIM'
p115
sg14
F0.4316
sg15
S'/eos/user/e/ecasilar/SMPVJ_Gamma_BJETS/MC/GJets_HT-200To400_TuneCUETP8M1_13TeV-madgraphMLM-pythia8/'
p116
ssS'GJets_HT_100To200'
p117
(dp118
g8
F9238.0
sg9
F0.0
sg10
F27.11
sg11
I4972282
sg12
S'/GJets_HT-100To200_TuneCUETP8M1_13TeV-madgraphMLM-pythia8/RunIISummer16NanoAODv7-PUMoriond17_Nano02Apr2020_102X_mcRun2_asymptotic_v8_ext1-v1/NANOAODSIM'
p119
sg14
F0.1087
sg15
S'/eos/user/e/ecasilar/SMPVJ_Gamma_BJETS/MC/GJets_HT-100To200_TuneCUETP8M1_13TeV-madgraphMLM-pythia8/'
p120
ssS'GJets_HT_600ToInf'
p121
(dp122
g8
F93.46
sg9
F0.0
sg10
F0.2861
sg11
I2616911
sg12
S'/GJets_HT-600ToInf_TuneCUETP8M1_13TeV-madgraphMLM-pythia8/RunIISummer16NanoAODv7-PUMoriond17_Nano02Apr2020_102X_mcRun2_asymptotic_v8_ext1-v1/NANOAODSIM'
p123
sg14
F10.61
sg15
S'/eos/user/e/ecasilar/SMPVJ_Gamma_BJETS/MC/GJets_HT-600ToInf_TuneCUETP8M1_13TeV-madgraphMLM-pythia8/'
p124
ssS'GJets_HT_40To100'
p125
(dp126
g8
F20790.0
sg9
F0.0
sg10
F59.82
sg11
I4858154
sg12
S'/GJets_HT-40To100_TuneCUETP8M1_13TeV-madgraphMLM-pythia8/RunIISummer16NanoAODv7-PUMoriond17_Nano02Apr2020_102X_mcRun2_asymptotic_v8_ext1-v1/NANOAODSIM'
p127
sg14
F0.04811
sg15
S'/eos/user/e/ecasilar/SMPVJ_Gamma_BJETS/MC/GJets_HT-40To100_TuneCUETP8M1_13TeV-madgraphMLM-pythia8/'
p128
ssssS'bkg'
p129
(dp130
S'CR_QCD_HT'
p131
(dp132
S'QCD_HT_1500To2000'
p133
(dp134
g8
F119.9
sg9
F0.0
sg10
F0.1159
sg11
I7868538
sg12
S'/QCD_HT1500to2000_TuneCUETP8M1_13TeV-madgraphMLM-pythia8/RunIISummer16NanoAODv7-PUMoriond17_Nano02Apr2020_102X_mcRun2_asymptotic_v8_ext1-v1/NANOAODSIM'
p135
sg14
F8.335
sg15
S'/eos/user/e/ecasilar/SMPVJ_Gamma_BJETS/MC/QCD_HT/High_PT_LooseNotTight/QCD_HT1500to2000_TuneCUETP8M1_13TeV-madgraphMLM-pythia8/'
p136
ssS'QCD_HT_200To300'
p137
(dp138
g8
F1712000.0
sg9
F0.0
sg10
F1626.0
sg11
I38857977
sg12
S'/QCD_HT200to300_TuneCUETP8M1_13TeV-madgraphMLM-pythia8/RunIISummer16NanoAODv7-PUMoriond17_Nano02Apr2020_102X_mcRun2_asymptotic_v8_ext1-v1/NANOAODSIM'
p139
sg14
F0.0005846
sg15
S'/eos/user/e/ecasilar/SMPVJ_Gamma_BJETS/MC/QCD_HT/High_PT_LooseNotTight/QCD_HT200to300_TuneCUETP8M1_13TeV-madgraphMLM-pythia8/'
p140
ssS'QCD_HT_2000ToInf'
p141
(dp142
g8
F25.24
sg9
F0.0
sg10
F0.02437
sg11
I3812534
sg12
S'/QCD_HT2000toInf_TuneCUETP8M1_13TeV-madgraphMLM-pythia8/RunIISummer16NanoAODv7-PUMoriond17_Nano02Apr2020_102X_mcRun2_asymptotic_v8_ext1-v1/NANOAODSIM'
p143
sg14
F39.6
sg15
S'/eos/user/e/ecasilar/SMPVJ_Gamma_BJETS/MC/QCD_HT/High_PT_LooseNotTight/QCD_HT2000toInf_TuneCUETP8M1_13TeV-madgraphMLM-pythia8/'
p144
ssS'QCD_HT_700To1000'
p145
(dp146
g8
F6831.0
sg9
F0.0
sg10
F6.593
sg11
I21604533
sg12
S'/QCD_HT700to1000_TuneCUETP8M1_13TeV-madgraphMLM-pythia8/RunIISummer16NanoAODv7-PUMoriond17_Nano02Apr2020_102X_mcRun2_asymptotic_v8_ext1-v1/NANOAODSIM'
p147
sg14
F0.1464
sg15
S'/eos/user/e/ecasilar/SMPVJ_Gamma_BJETS/MC/QCD_HT/High_PT_LooseNotTight/QCD_HT700to1000_TuneCUETP8M1_13TeV-madgraphMLM-pythia8/'
p148
ssS'QCD_HT_100To200'
p149
(dp150
g8
F27990000.0
sg9
F0.0
sg10
F26130.0
sg11
I82293477
sg12
S'/QCD_HT100to200_TuneCUETP8M1_13TeV-madgraphMLM-pythia8/RunIISummer16NanoAODv7-PUMoriond17_Nano02Apr2020_102X_mcRun2_asymptotic_v8-v1/NANOAODSIM'
p151
sg14
F3.564e-05
sg15
S'/eos/user/e/ecasilar/SMPVJ_Gamma_BJETS/MC/QCD_HT/High_PT_LooseNotTight/QCD_HT100to200_TuneCUETP8M1_13TeV-madgraphMLM-pythia8/'
p152
ssS'QCD_HT_300To500'
p153
(dp154
g8
F347700.0
sg9
F0.0
sg10
F332.9
sg11
I37516961
sg12
S'/QCD_HT300to500_TuneCUETP8M1_13TeV-madgraphMLM-pythia8/RunIISummer16NanoAODv7-PUMoriond17_Nano02Apr2020_102X_mcRun2_asymptotic_v8_ext1-v1/NANOAODSIM'
p155
sg14
F0.002878
sg15
S'/eos/user/e/ecasilar/SMPVJ_Gamma_BJETS/MC/QCD_HT/High_PT_LooseNotTight/QCD_HT300to500_TuneCUETP8M1_13TeV-madgraphMLM-pythia8/'
p156
ssS'QCD_HT_50To100'
p157
(dp158
g8
F246400000.0
sg9
F0.0
sg10
F218700.0
sg11
I4180469
sg12
S'/QCD_HT50to100_TuneCUETP8M1_13TeV-madgraphMLM-pythia8/RunIISummer16NanoAODv7-PUMoriond17_Nano02Apr2020_102X_mcRun2_asymptotic_v8-v1/NANOAODSIM'
p159
sg14
F4.061e-06
sg15
S'/eos/user/e/ecasilar/SMPVJ_Gamma_BJETS/MC/QCD_HT/High_PT_LooseNotTight/QCD_HT50to100_TuneCUETP8M1_13TeV-madgraphMLM-pythia8/'
p160
ssS'QCD_HT_500To700'
p161
(dp162
g8
F32100.0
sg9
F0.0
sg10
F30.88
sg11
I44061488
sg12
S'/QCD_HT500to700_TuneCUETP8M1_13TeV-madgraphMLM-pythia8/RunIISummer16NanoAODv7-PUMoriond17_Nano02Apr2020_102X_mcRun2_asymptotic_v8_ext1-v1/NANOAODSIM'
p163
sg14
F0.03119
sg15
S'/eos/user/e/ecasilar/SMPVJ_Gamma_BJETS/MC/QCD_HT/High_PT_LooseNotTight/QCD_HT500to700_TuneCUETP8M1_13TeV-madgraphMLM-pythia8/'
p164
ssS'QCD_HT_1000To1500'
p165
(dp166
g8
F1207.0
sg9
F0.0
sg10
F1.166
sg11
I10360193
sg12
S'/QCD_HT1000to1500_TuneCUETP8M1_13TeV-madgraphMLM-pythia8/RunIISummer16NanoAODv7-PUMoriond17_Nano02Apr2020_102X_mcRun2_asymptotic_v8_ext1-v1/NANOAODSIM'
p167
sg14
F0.8285
sg15
S'/eos/user/e/ecasilar/SMPVJ_Gamma_BJETS/MC/QCD_HT/High_PT_LooseNotTight/QCD_HT1000to1500_TuneCUETP8M1_13TeV-madgraphMLM-pythia8/'
p168
sssS'QCD'
p169
(dp170
g8
F1370000000.0
sg9
F0.0
sg10
F2159000.0
sg11
I9879256
sg12
S'/QCD_Pt-15to7000_TuneCUETP8M1_FlatP6_13TeV_pythia8/RunIISummer16NanoAODv7-PUMoriond17_Nano02Apr2020_102X_mcRun2_asymptotic_v8-v1/NANOAODSIM'
p171
sg14
F7.301e-07
sg15
S'/eos/user/e/ecasilar/SMPVJ_Gamma_BJETS/MC/QCD_Pt-15to7000_TuneCUETP8M1_FlatP6_13TeV_pythia8/'
p172
ssS'ST_t_channel_top'
p173
(dp174
g8
F136.82
sg9
F0.0
sg10
F0.0
sg11
I58403420
sg12
S'/ST_t-channel_top_4f_inclusiveDecays_13TeV-powhegV2-madspin-pythia8_TuneCUETP8M1/RunIISummer16NanoAODv7-PUMoriond17_Nano02Apr2020_102X_mcRun2_asymptotic_v8-v2/NANOAODSIM'
p175
sg14
F0.0
sg15
S'/eos/user/e/ecasilar/SMPVJ_Gamma_BJETS/MC/ST_t-channel_top_4f_inclusiveDecays_13TeV-powhegV2-madspin-pythia8_TuneCUETP8M1/'
p176
ssS'TTGJets'
p177
(dp178
g8
F3.795
sg9
F0.3381
sg10
F0.02629
sg11
I9877942
sg12
S'/TTGJets_TuneCP5_13TeV-amcatnloFXFX-madspin-pythia8/RunIIFall17NanoAODv7-PU2017_12Apr2018_Nano02Apr2020_102X_mc2017_realistic_v8_ext1-v1/NANOAODSIM'
p179
sg14
F27.63
sg15
S'/eos/user/e/ecasilar/SMPVJ_Gamma_BJETS/MC/TTGJets_TuneCUETP8M1_13TeV-amcatnloFXFX-madspin-pythia8/'
p180
ssS'QCD_HT_UL2016'
p181
(dp182
S'QCD_HT_UL2016_300To500'
p183
(dp184
g8
F324500.0
sg9
F0.0
sg10
F75.53
sg11
I16747056
sg12
S'/QCD_HT300to500_TuneCP5_PSWeights_13TeV-madgraph-pythia8/RunIISummer20UL16NanoAODv9-106X_mcRun2_asymptotic_v17-v1/NANOAODSIM'
p185
sg14
F0.003082
sg15
S'/eos/cms/store/group/phys_smp/AnalysisFramework/Baobab/Metin/gammaplusb/2016/UL_MC/QCD_HT/QCD_HT300to500_TuneCP5_PSWeights_13TeV-madgraph-pythia8/'
p186
ssS'QCD_HT_UL2016_200To300'
p187
(dp188
g8
F1553000.0
sg9
F0.0
sg10
F349.9
sg11
I17569141
sg12
S'/QCD_HT200to300_TuneCP5_PSWeights_13TeV-madgraph-pythia8/RunIISummer20UL16NanoAODv9-106X_mcRun2_asymptotic_v17-v1/NANOAODSIM'
p189
sg14
F0.000644
sg15
S'/eos/cms/store/group/phys_smp/AnalysisFramework/Baobab/Metin/gammaplusb/2016/UL_MC/QCD_HT/QCD_HT200to300_TuneCP5_PSWeights_13TeV-madgraph-pythia8/'
p190
ssS'QCD_HT_UL2016_2000ToInf'
p191
(dp192
g8
F22.04
sg9
F0.0
sg10
F0.0156
sg11
I1847781
sg12
S'/QCD_HT2000toInf_TuneCP5_PSWeights_13TeV-madgraph-pythia8/RunIISummer20UL16NanoAODv9-106X_mcRun2_asymptotic_v17-v1/NANOAODSIM'
p193
sg14
F45.38
sg15
S'/eos/cms/store/group/phys_smp/AnalysisFramework/Baobab/Metin/gammaplusb/2016/UL_MC/QCD_HT/QCD_HT2000toInf_TuneCP5_PSWeights_13TeV-madgraph-pythia8/'
p194
ssS'QCD_HT_UL2016_1500To2000'
p195
(dp196
g8
F108.3
sg9
F0.0
sg10
F0.05823
sg11
I3003707
sg12
S'/QCD_HT1500to2000_TuneCP5_PSWeights_13TeV-madgraph-pythia8/RunIISummer20UL16NanoAODv9-106X_mcRun2_asymptotic_v17-v1/NANOAODSIM'
p197
sg14
F9.23
sg15
S'/eos/cms/store/group/phys_smp/AnalysisFramework/Baobab/Metin/gammaplusb/2016/UL_MC/QCD_HT/QCD_HT1500to2000_TuneCP5_PSWeights_13TeV-madgraph-pythia8/'
p198
ssS'QCD_HT_UL2016_50To100'
p199
(dp200
g8
F186000000.0
sg9
F0.0
sg10
F48970.0
sg11
I11197186
sg12
S'/QCD_HT50to100_TuneCP5_PSWeights_13TeV-madgraph-pythia8/RunIISummer20UL16NanoAODv9-106X_mcRun2_asymptotic_v17-v1/NANOAODSIM'
p201
sg14
F5.377e-06
sg15
S'/eos/cms/store/group/phys_smp/AnalysisFramework/Baobab/Metin/gammaplusb/2016/UL_MC/QCD_HT/QCD_HT50to100_TuneCP5_PSWeights_13TeV-madgraph-pythia8/'
p202
ssS'QCD_HT_UL2016_700To1000'
p203
(dp204
g8
F6437.0
sg9
F0.0
sg10
F1.658
sg11
I13750537
sg12
S'/QCD_HT700to1000_TuneCP5_PSWeights_13TeV-madgraph-pythia8/RunIISummer20UL16NanoAODv9-106X_mcRun2_asymptotic_v17-v1/NANOAODSIM'
p205
sg14
F0.1554
sg15
S'/eos/cms/store/group/phys_smp/AnalysisFramework/Baobab/Metin/gammaplusb/2016/UL_MC/QCD_HT/QCD_HT700to1000_TuneCP5_PSWeights_13TeV-madgraph-pythia8/'
p206
ssS'QCD_HT_UL2016_1000To1500'
p207
(dp208
g8
F1122.0
sg9
F0.0
sg10
F0.5173
sg11
I4365993
sg12
S'/QCD_HT1000to1500_TuneCP5_PSWeights_13TeV-madgraph-pythia8/RunIISummer20UL16NanoAODv9-106X_mcRun2_asymptotic_v17-v1/NANOAODSIM'
p209
sg14
F0.8911
sg15
S'/eos/cms/store/group/phys_smp/AnalysisFramework/Baobab/Metin/gammaplusb/2016/UL_MC/QCD_HT/QCD_HT1000to1500_TuneCP5_PSWeights_13TeV-madgraph-pythia8/'
p210
ssS'QCD_HT_UL2016_500To700'
p211
(dp212
g8
F30280.0
sg9
F0.0
sg10
F7.439
sg11
I14212819
sg12
S'/QCD_HT500to700_TuneCP5_PSWeights_13TeV-madgraph-pythia8/RunIISummer20UL16NanoAODv9-106X_mcRun2_asymptotic_v17-v1/NANOAODSIM'
p213
sg14
F0.03303
sg15
S'/eos/cms/store/group/phys_smp/AnalysisFramework/Baobab/Metin/gammaplusb/2016/UL_MC/QCD_HT/QCD_HT500to700_TuneCP5_PSWeights_13TeV-madgraph-pythia8/'
p214
ssS'QCD_HT_UL2016_100To200'
p215
(dp216
g8
F23650000.0
sg9
F0.0
sg10
F4467.0
sg11
I23717410
sg12
S'/QCD_HT100to200_TuneCP5_PSWeights_13TeV-madgraph-pythia8/RunIISummer20UL16NanoAODv9-106X_mcRun2_asymptotic_v17-v1/NANOAODSIM'
p217
sg14
F4.229e-05
sg15
S'/eos/cms/store/group/phys_smp/AnalysisFramework/Baobab/Metin/gammaplusb/2016/UL_MC/QCD_HT/QCD_HT100to200_TuneCP5_PSWeights_13TeV-madgraph-pythia8/'
p218
sssS'QCD_HT_UL2016_PreVFP'
p219
(dp220
S'QCD_HT_UL2016_PreVFP_200To300'
p221
(dp222
g8
F1553000.0
sg9
F0.0
sg10
F349.9
sg11
I16524587
sg12
g189
sg14
F0.000644
sg15
S'/eos/cms/store/group/phys_smp/AnalysisFramework/Baobab/Metin/gammaplusb/2016/UL_MC/QCD_HT_PreVFP/QCD_HT200to300_TuneCP5_PSWeights_13TeV-madgraph-pythia8/'
p223
ssS'QCD_HT_UL2016_PreVFP_1500To2000'
p224
(dp225
g8
F108.3
sg9
F0.0
sg10
F0.05823
sg11
I3503675
sg12
g197
sg14
F9.23
sg15
S'/eos/cms/store/group/phys_smp/AnalysisFramework/Baobab/Metin/gammaplusb/2016/UL_MC/QCD_HT_PreVFP/QCD_HT1500to2000_TuneCP5_PSWeights_13TeV-madgraph-pythia8/'
p226
ssS'QCD_HT_UL2016_PreVFP_300To500'
p227
(dp228
g8
F324500.0
sg9
F0.0
sg10
F75.53
sg11
I15183920
sg12
g185
sg14
F0.003082
sg15
S'/eos/cms/store/group/phys_smp/AnalysisFramework/Baobab/Metin/gammaplusb/2016/UL_MC/QCD_HT_PreVFP/QCD_HT300to500_TuneCP5_PSWeights_13TeV-madgraph-pythia8/'
p229
ssS'QCD_HT_UL2016_PreVFP_700To1000'
p230
(dp231
g8
F6437.0
sg9
F0.0
sg10
F1.658
sg11
I15808790
sg12
g205
sg14
F0.1554
sg15
S'/eos/cms/store/group/phys_smp/AnalysisFramework/Baobab/Metin/gammaplusb/2016/UL_MC/QCD_HT_PreVFP/QCD_HT700to1000_TuneCP5_PSWeights_13TeV-madgraph-pythia8/'
p232
ssS'QCD_HT_UL2016_PreVFP_100To200'
p233
(dp234
g8
F23650000.0
sg9
F0.0
sg10
F4467.0
sg11
I26312661
sg12
g217
sg14
F4.229e-05
sg15
S'/eos/cms/store/group/phys_smp/AnalysisFramework/Baobab/Metin/gammaplusb/2016/UL_MC/QCD_HT_PreVFP/QCD_HT100to200_TuneCP5_PSWeights_13TeV-madgraph-pythia8/'
p235
ssS'QCD_HT_UL2016_PreVFP_500To700'
p236
(dp237
g8
F30280.0
sg9
F0.0
sg10
F7.439
sg11
I15775001
sg12
g213
sg14
F0.03303
sg15
S'/eos/cms/store/group/phys_smp/AnalysisFramework/Baobab/Metin/gammaplusb/2016/UL_MC/QCD_HT_PreVFP/QCD_HT500to700_TuneCP5_PSWeights_13TeV-madgraph-pythia8/'
p238
ssS'QCD_HT_UL2016_PreVFP_50To100'
p239
(dp240
g8
F186000000.0
sg9
F0.0
sg10
F48970.0
sg11
I12233035
sg12
g201
sg14
F5.377e-06
sg15
S'/eos/cms/store/group/phys_smp/AnalysisFramework/Baobab/Metin/gammaplusb/2016/UL_MC/QCD_HT_PreVFP/QCD_HT50to100_TuneCP5_PSWeights_13TeV-madgraph-pythia8/'
p241
ssS'QCD_HT_UL2016_PreVFP_2000ToInf'
p242
(dp243
g8
F22.04
sg9
F0.0
sg10
F0.0156
sg11
I1629000
sg12
g193
sg14
F45.38
sg15
S'/eos/cms/store/group/phys_smp/AnalysisFramework/Baobab/Metin/gammaplusb/2016/UL_MC/QCD_HT_PreVFP/QCD_HT2000toInf_TuneCP5_PSWeights_13TeV-madgraph-pythia8/'
p244
ssS'QCD_HT_UL2016_PreVFP_1000To1500'
p245
(dp246
g8
F1122.0
sg9
F0.0
sg10
F0.5173
sg11
I4773503
sg12
g209
sg14
F0.8911
sg15
S'/eos/cms/store/group/phys_smp/AnalysisFramework/Baobab/Metin/gammaplusb/2016/UL_MC/QCD_HT_PreVFP/QCD_HT1000to1500_TuneCP5_PSWeights_13TeV-madgraph-pythia8/'
p247
sssS'ST_t_channel_antitop'
p248
(dp249
g8
F81.42
sg9
F0.0
sg10
F0.0
sg11
I38811017
sg12
S'/ST_t-channel_antitop_4f_inclusiveDecays_13TeV-powhegV2-madspin-pythia8_TuneCUETP8M1/RunIISummer16NanoAODv7-PUMoriond17_Nano02Apr2020_102X_mcRun2_asymptotic_v8-v1/NANOAODSIM'
p250
sg14
F0.0
sg15
S'/eos/user/e/ecasilar/SMPVJ_Gamma_BJETS/MC/ST_t-channel_antitop_4f_inclusiveDecays_13TeV-powhegV2-madspin-pythia8_TuneCUETP8M1/'
p251
ssS'TGJets'
p252
(dp253
g8
F2.967
sg9
F0.4008
sg10
F0.01052
sg11
I1556996
sg12
S'/TGJets_TuneCP5_13TeV_amcatnlo_madspin_pythia8/RunIIFall17NanoAODv7-PU2017_12Apr2018_Nano02Apr2020_102X_mc2017_realistic_v8-v1/NANOAODSIM'
p254
sg14
F13.27
sg15
S'/eos/user/e/ecasilar/SMPVJ_Gamma_BJETS/MC/TGJets_TuneCUETP8M1_13TeV_amcatnlo_madspin_pythia8/'
p255
ssS'ST_tW_antitop'
p256
(dp257
g8
F38.06
sg9
F0.0
sg10
F0.03055
sg11
I6933094
sg12
S'/ST_tW_antitop_5f_inclusiveDecays_13TeV-powheg-pythia8_TuneCUETP8M1/RunIISummer16NanoAODv7-PUMoriond17_Nano02Apr2020_102X_mcRun2_asymptotic_v8_ext1-v1/NANOAODSIM'
p258
sg14
F26.27
sg15
S'/eos/user/e/ecasilar/SMPVJ_Gamma_BJETS/MC/ST_tW_antitop_5f_inclusiveDecays_13TeV-powheg-pythia8_TuneCUETP8M1/'
p259
ssS'QCD_HT'
p260
(dp261
g133
(dp262
g8
F119.9
sg9
F0.0
sg10
F0.1159
sg11
I7868538
sg12
g135
sg14
F8.335
sg15
S'/eos/user/e/ecasilar/SMPVJ_Gamma_BJETS/MC/QCD_HT/GenMatching/QCD_HT1500to2000_TuneCUETP8M1_13TeV-madgraphMLM-pythia8/merged/'
p263
ssg137
(dp264
g8
F1712000.0
sg9
F0.0
sg10
F1626.0
sg11
I38857977
sg12
g139
sg14
F0.0005846
sg15
S'/eos/user/e/ecasilar/SMPVJ_Gamma_BJETS/MC/QCD_HT/GenMatching/QCD_HT200to300_TuneCUETP8M1_13TeV-madgraphMLM-pythia8/merged/'
p265
ssg141
(dp266
g8
F25.24
sg9
F0.0
sg10
F0.02437
sg11
I3812534
sg12
g143
sg14
F39.6
sg15
S'/eos/user/e/ecasilar/SMPVJ_Gamma_BJETS/MC/QCD_HT/GenMatching/QCD_HT2000toInf_TuneCUETP8M1_13TeV-madgraphMLM-pythia8/merged/'
p267
ssg145
(dp268
g8
F6831.0
sg9
F0.0
sg10
F6.593
sg11
I21604533
sg12
g147
sg14
F0.1464
sg15
S'/eos/user/e/ecasilar/SMPVJ_Gamma_BJETS/MC/QCD_HT/GenMatching/QCD_HT700to1000_TuneCUETP8M1_13TeV-madgraphMLM-pythia8/merged/'
p269
ssg149
(dp270
g8
F27990000.0
sg9
F0.0
sg10
F26130.0
sg11
I82293477
sg12
g151
sg14
F3.564e-05
sg15
S'/eos/user/e/ecasilar/SMPVJ_Gamma_BJETS/MC/QCD_HT/GenMatching/QCD_HT100to200_TuneCUETP8M1_13TeV-madgraphMLM-pythia8/merged/'
p271
ssg153
(dp272
g8
F347700.0
sg9
F0.0
sg10
F332.9
sg11
I37516961
sg12
g155
sg14
F0.002878
sg15
S'/eos/user/e/ecasilar/SMPVJ_Gamma_BJETS/MC/QCD_HT/GenMatching/QCD_HT300to500_TuneCUETP8M1_13TeV-madgraphMLM-pythia8/merged/'
p273
ssg157
(dp274
g8
F246400000.0
sg9
F0.0
sg10
F218700.0
sg11
I4180469
sg12
g159
sg14
F4.061e-06
sg15
S'/eos/user/e/ecasilar/SMPVJ_Gamma_BJETS/MC/QCD_HT/GenMatching/QCD_HT50to100_TuneCUETP8M1_13TeV-madgraphMLM-pythia8/merged/'
p275
ssg161
(dp276
g8
F32100.0
sg9
F0.0
sg10
F30.88
sg11
I44061488
sg12
g163
sg14
F0.03119
sg15
S'/eos/user/e/ecasilar/SMPVJ_Gamma_BJETS/MC/QCD_HT/GenMatching/QCD_HT500to700_TuneCUETP8M1_13TeV-madgraphMLM-pythia8/merged/'
p277
ssg165
(dp278
g8
F1207.0
sg9
F0.0
sg10
F1.166
sg11
I10360193
sg12
g167
sg14
F0.8285
sg15
S'/eos/user/e/ecasilar/SMPVJ_Gamma_BJETS/MC/QCD_HT/GenMatching/QCD_HT1000to1500_TuneCUETP8M1_13TeV-madgraphMLM-pythia8/merged/'
p279
sssS'TTJets'
p280
(dp281
g8
F511.3
sg9
F0.0
sg10
F1.412
sg11
I10199051
sg12
S'/TTJets_TuneCUETP8M1_13TeV-madgraphMLM-pythia8/RunIISummer16NanoAODv7-PUMoriond17_Nano02Apr2020_102X_mcRun2_asymptotic_v8-v1/NANOAODSIM'
p282
sg14
F1.956
sg15
S'/eos/user/e/ecasilar/SMPVJ_Gamma_BJETS/MC/TTJets_TuneCUETP8M1_13TeV-madgraphMLM-pythia8/'
p283
ssS'ST_s_channel'
p284
(dp285
g8
F10.12
sg9
F0.1857
sg10
F0.01334
sg11
I2917199
sg12
S'/ST_s-channel_4f_InclusiveDecays_13TeV-amcatnlo-pythia8/RunIISummer16NanoAODv7-PUMoriond17_Nano02Apr2020_102X_mcRun2_asymptotic_v8-v1/NANOAODSIM'
p286
sg14
F39.05
sg15
S'/eos/user/e/ecasilar/SMPVJ_Gamma_BJETS/MC/ST_s-channel_4f_InclusiveDecays_13TeV-amcatnlo-pythia8/'
p287
ssS'QCD_h1'
p288
(dp289
g8
F964800.0
sg9
F0.0
sg10
F92360.0
sg11
I9497268
sg12
S'/QCD_Pt-15to7000_TuneCUETHS1_FlatP6_13TeV_herwigpp/RunIISummer16NanoAODv7-PUMoriond17_Nano02Apr2020_102X_mcRun2_asymptotic_v8-v1/NANOAODSIM'
p290
sg14
F7.301e-07
sg15
S'/eos/user/e/ecasilar/SMPVJ_Gamma_BJETS/MC/QCD_Pt-15to7000_TuneCUETHS1_FlatP6_13TeV_herwigpp/'
p291
ssS'QCD_h2'
p292
(dp293
g8
F309800000.0
sg9
F0.0
sg10
F7932000.0
sg11
I9865688
sg12
S'/QCD_Pt-15to7000_TuneCUETHS1_Flat_13TeV_herwigpp/RunIISummer16NanoAODv7-PUMoriond17_Nano02Apr2020_102X_mcRun2_asymptotic_v8-v1/NANOAODSIM'
p294
sg14
F7.301e-07
sg15
S'/eos/user/e/ecasilar/SMPVJ_Gamma_BJETS/MC/QCD_Pt-15to7000_TuneCUETHS1_Flat_13TeV_herwigpp/'
p295
ssS'ST_tW_top'
p296
(dp297
g8
F38.09
sg9
F0.0
sg10
F0.0305
sg11
I6952830
sg12
S'/ST_tW_top_5f_inclusiveDecays_13TeV-powheg-pythia8_TuneCUETP8M1/RunIISummer16NanoAODv7-PUMoriond17_Nano02Apr2020_102X_mcRun2_asymptotic_v8_ext1-v1/NANOAODSIM'
p298
sg14
F26.25
sg15
S'/eos/user/e/ecasilar/SMPVJ_Gamma_BJETS/MC/ST_tW_top_5f_inclusiveDecays_13TeV-powheg-pythia8_TuneCUETP8M1/'
p299
sssS'data'
p300
(dp301
S'SinglePhoton_merged'
p302
(dp303
S'C'
p304
(dp305
g8
I1
sg9
F0.0
sg10
I1
sg15
S'/eos/user/m/myalvac/GPlusBJets/Run2016C_02Apr2020-v1/merged_HLT_120/'
p306
sg14
I1
sg12
S'/SinglePhoton/Run2016C-02Apr2020-v1/NANOAOD'
p307
ssS'B'
p308
(dp309
g8
I1
sg9
F0.0
sg10
I1
sg15
S'/eos/user/m/myalvac/GPlusBJets/Run2016B_02Apr2020-v1/merged_HLT_120/'
p310
sg14
I1
sg12
S'/SinglePhoton/Run2016B-02Apr2020_ver2-v1/NANOAOD'
p311
ssS'E'
p312
(dp313
g8
I1
sg9
F0.0
sg10
I1
sg15
S'/eos/user/m/myalvac/GPlusBJets/Run2016E_02Apr2020-v1/merged_HLT_120/'
p314
sg14
I1
sg12
S'/SinglePhoton/Run2016E-02Apr2020-v1/NANOAOD'
p315
ssS'D'
p316
(dp317
g8
I1
sg9
F0.0
sg10
I1
sg15
S'/eos/user/m/myalvac/GPlusBJets/Run2016D_02Apr2020-v1/merged_HLT_120/'
p318
sg14
I1
sg12
S'/SinglePhoton/Run2016D-02Apr2020-v1/NANOAOD'
p319
ssS'G'
p320
(dp321
g8
I1
sg9
F0.0
sg10
I1
sg15
S'/eos/user/m/myalvac/GPlusBJets/Run2016G_02Apr2020-v1/merged_HLT_120/'
p322
sg14
I1
sg12
S'/SinglePhoton/Run2016G-02Apr2020-v1/NANOAOD'
p323
ssS'F'
p324
(dp325
g8
I1
sg9
F0.0
sg10
I1
sg15
S'/eos/user/m/myalvac/GPlusBJets/Run2016F_02Apr2020-v1/merged_HLT_120/'
p326
sg14
I1
sg12
S'/SinglePhoton/Run2016F-02Apr2020-v1/NANOAOD'
p327
ssS'H'
p328
(dp329
g8
I1
sg9
F0.0
sg10
I1
sg15
S'/eos/user/m/myalvac/GPlusBJets/Run2016H_02Apr2020-v1/merged_HLT_120/'
p330
sg14
I1
sg12
S'/SinglePhoton/Run2016H-02Apr2020-v1/NANOAOD'
p331
sssS'SinglePhoton_36_NoDC_L1'
p332
(dp333
g304
(dp334
g8
I1
sg9
F0.0
sg10
I1
sg15
S'/eos/user/m/myalvac/GPlusBJets/HLT_36_L1_Prescaled/L1_Prescaled/data/2016/SinglePhoton_36_NoDoubleCount/Low_PT/Run2016C_02Apr2020-v1/'
p335
sg14
I1
sg12
g307
ssg308
(dp336
g8
I1
sg9
F0.0
sg10
I1
sg15
S'/eos/user/m/myalvac/GPlusBJets/HLT_36_L1_Prescaled/L1_Prescaled/data/2016/SinglePhoton_36_NoDoubleCount/Low_PT/Run2016B_02Apr2020-v1/'
p337
sg14
I1
sg12
g311
ssg312
(dp338
g8
I1
sg9
F0.0
sg10
I1
sg15
S'/eos/user/m/myalvac/GPlusBJets/HLT_36_L1_Prescaled/L1_Prescaled/data/2016/SinglePhoton_36_NoDoubleCount/Low_PT/Run2016E_02Apr2020-v1/'
p339
sg14
I1
sg12
g315
ssg316
(dp340
g8
I1
sg9
F0.0
sg10
I1
sg15
S'/eos/user/m/myalvac/GPlusBJets/HLT_36_L1_Prescaled/L1_Prescaled/data/2016/SinglePhoton_36_NoDoubleCount/Low_PT/Run2016D_02Apr2020-v1/'
p341
sg14
I1
sg12
g319
ssg320
(dp342
g8
I1
sg9
F0.0
sg10
I1
sg15
S'/eos/user/m/myalvac/GPlusBJets/HLT_36_L1_Prescaled/L1_Prescaled/data/2016/SinglePhoton_36_NoDoubleCount/Low_PT/Run2016G_02Apr2020-v1/'
p343
sg14
I1
sg12
g323
ssg324
(dp344
g8
I1
sg9
F0.0
sg10
I1
sg15
S'/eos/user/m/myalvac/GPlusBJets/HLT_36_L1_Prescaled/L1_Prescaled/data/2016/SinglePhoton_36_NoDoubleCount/Low_PT/Run2016F_02Apr2020-v1/'
p345
sg14
I1
sg12
g327
ssg328
(dp346
g8
I1
sg9
F0.0
sg10
I1
sg15
S'/eos/user/m/myalvac/GPlusBJets/HLT_36_L1_Prescaled/L1_Prescaled/data/2016/SinglePhoton_36_NoDoubleCount/Low_PT/Run2016H_02Apr2020-v1/'
p347
sg14
I1
sg12
g331
sssS'CR_SinglePhoton'
p348
(dp349
g304
(dp350
g8
I1
sg9
F0.0
sg10
I1
sg15
S'/eos/user/e/ecasilar/SMPVJ_Gamma_BJETS//data/2016/SinglePhoton/High_PT_LooseNotTight/Run2016C_02Apr2020-v1/merged/'
p351
sg14
I1
sg12
g307
ssg308
(dp352
g8
I1
sg9
F0.0
sg10
I1
sg15
S'/eos/user/e/ecasilar/SMPVJ_Gamma_BJETS//data/2016/SinglePhoton/High_PT_LooseNotTight/Run2016B_02Apr2020-v1/merged/'
p353
sg14
I1
sg12
g311
ssg312
(dp354
g8
I1
sg9
F0.0
sg10
I1
sg15
S'/eos/user/e/ecasilar/SMPVJ_Gamma_BJETS//data/2016/SinglePhoton/High_PT_LooseNotTight/Run2016E_02Apr2020-v1/merged/'
p355
sg14
I1
sg12
g315
ssg316
(dp356
g8
I1
sg9
F0.0
sg10
I1
sg15
S'/eos/user/e/ecasilar/SMPVJ_Gamma_BJETS//data/2016/SinglePhoton/High_PT_LooseNotTight/Run2016D_02Apr2020-v1/merged/'
p357
sg14
I1
sg12
g319
ssg320
(dp358
g8
I1
sg9
F0.0
sg10
I1
sg15
S'/eos/user/e/ecasilar/SMPVJ_Gamma_BJETS//data/2016/SinglePhoton/High_PT_LooseNotTight/Run2016G_02Apr2020-v1/merged/'
p359
sg14
I1
sg12
g323
ssg324
(dp360
g8
I1
sg9
F0.0
sg10
I1
sg15
S'/eos/user/e/ecasilar/SMPVJ_Gamma_BJETS//data/2016/SinglePhoton/High_PT_LooseNotTight/Run2016F_02Apr2020-v1/merged/'
p361
sg14
I1
sg12
g327
ssg328
(dp362
g8
I1
sg9
F0.0
sg10
I1
sg15
S'/eos/user/e/ecasilar/SMPVJ_Gamma_BJETS//data/2016/SinglePhoton/High_PT_LooseNotTight/Run2016H_02Apr2020-v1/merged/'
p363
sg14
I1
sg12
g331
sssS'SinglePhoton_UL'
p364
(dp365
S'F_noHIPM'
p366
(dp367
g8
I1
sg9
F0.0
sg10
I1
sg15
S'/eos/cms/store/group/phys_smp/AnalysisFramework/Baobab/Metin/gammaplusb/2016/data/SinglePhoton/UL/run2016F_noHIPM/'
p368
sg14
I1
sg12
S'/SinglePhoton/Run2016F-UL2016_MiniAODv2_NanoAODv9-v1/NANOAOD'
p369
ssg304
(dp370
g8
I1
sg9
F0.0
sg10
I1
sg15
S'/eos/cms/store/group/phys_smp/AnalysisFramework/Baobab/Metin/gammaplusb/2016/data/SinglePhoton/UL/Run2016C/'
p371
sg14
I1
sg12
S'/SinglePhoton/Run2016C-HIPM_UL2016_MiniAODv2_NanoAODv9-v1/NANOAOD'
p372
ssg312
(dp373
g8
I1
sg9
F0.0
sg10
I1
sg15
S'/eos/cms/store/group/phys_smp/AnalysisFramework/Baobab/Metin/gammaplusb/2016/data/SinglePhoton/UL/Run2016E/'
p374
sg14
I1
sg12
S'/SinglePhoton/Run2016E-HIPM_UL2016_MiniAODv2_NanoAODv9-v1/NANOAOD'
p375
ssg316
(dp376
g8
I1
sg9
F0.0
sg10
I1
sg15
S'/eos/cms/store/group/phys_smp/AnalysisFramework/Baobab/Metin/gammaplusb/2016/data/SinglePhoton/UL/Run2016D/'
p377
sg14
I1
sg12
S'/SinglePhoton/Run2016D-HIPM_UL2016_MiniAODv2_NanoAODv9-v1/NANOAOD'
p378
ssg320
(dp379
g8
I1
sg9
F0.0
sg10
I1
sg15
S'/eos/cms/store/group/phys_smp/AnalysisFramework/Baobab/Metin/gammaplusb/2016/data/SinglePhoton/UL/Run2016G/'
p380
sg14
I1
sg12
S'/SinglePhoton/Run2016G-UL2016_MiniAODv2_NanoAODv9-v2/NANOAOD'
p381
ssg324
(dp382
g8
I1
sg9
F0.0
sg10
I1
sg15
S'/eos/cms/store/group/phys_smp/AnalysisFramework/Baobab/Metin/gammaplusb/2016/data/SinglePhoton/UL/Run2016F/'
p383
sg14
I1
sg12
S'/SinglePhoton/Run2016F-HIPM_UL2016_MiniAODv2_NanoAODv9-v1/NANOAOD'
p384
ssS'B_ver2'
p385
(dp386
g8
I1
sg9
F0.0
sg10
I1
sg15
S'/eos/cms/store/group/phys_smp/AnalysisFramework/Baobab/Metin/gammaplusb/2016/data/SinglePhoton/UL/B_ver2/'
p387
sg14
I1
sg12
S'/SinglePhoton/Run2016B-ver2_HIPM_UL2016_MiniAODv2_NanoAODv9-v1/NANOAOD'
p388
ssg328
(dp389
g8
I1
sg9
F0.0
sg10
I1
sg15
S'/eos/cms/store/group/phys_smp/AnalysisFramework/Baobab/Metin/gammaplusb/2016/data/SinglePhoton/UL/Run2016H/'
p390
sg14
I1
sg12
S'/SinglePhoton/Run2016H-UL2016_MiniAODv2_NanoAODv9-v2/NANOAOD'
p391
ssS'B_ver1'
p392
(dp393
g8
I1
sg9
F0.0
sg10
I1
sg15
S'/eos/cms/store/group/phys_smp/AnalysisFramework/Baobab/Metin/gammaplusb/2016/data/SinglePhoton/UL/B_ver1/'
p394
sg14
I1
sg12
S'/SinglePhoton/Run2016B-ver1_HIPM_UL2016_MiniAODv2_NanoAODv9-v1/NANOAOD'
p395
sssS'SingleMuon_prescaled_NoPtCut'
p396
(dp397
g304
(dp398
g8
I1
sg9
F0.0
sg10
I1
sg15
S'/eos/user/e/ecasilar/SMPVJ_Gamma_BJETS/data/2016/SingleMuon_Trigger_Scaled_NoPtCut/Run2016C_02Apr2020-v1'
p399
sg14
I1
sg12
S'/SingleMuon/Run2016C-02Apr2020-v1/NANOAOD'
p400
ssg308
(dp401
g8
I1
sg9
F0.0
sg10
I1
sg15
S'/eos/user/e/ecasilar/SMPVJ_Gamma_BJETS/data/2016/SingleMuon_Trigger_Scaled_NoPtCut/Run2016B_02Apr2020-v1'
p402
sg14
I1
sg12
S'/SingleMuon/Run2016B-02Apr2020_ver2-v1/NANOAOD'
p403
ssg312
(dp404
g8
I1
sg9
F0.0
sg10
I1
sg15
S'/eos/user/e/ecasilar/SMPVJ_Gamma_BJETS/data/2016/SingleMuon_Trigger_Scaled_NoPtCut/Run2016E_02Apr2020-v1'
p405
sg14
I1
sg12
S'/SingleMuon/Run2016E-02Apr2020-v1/NANOAOD'
p406
ssg316
(dp407
g8
I1
sg9
F0.0
sg10
I1
sg15
S'/eos/user/e/ecasilar/SMPVJ_Gamma_BJETS/data/2016/SingleMuon_Trigger_Scaled_NoPtCut/Run2016D_02Apr2020-v1'
p408
sg14
I1
sg12
S'/SingleMuon/Run2016D-02Apr2020-v1/NANOAOD'
p409
ssg320
(dp410
g8
I1
sg9
F0.0
sg10
I1
sg15
S'/eos/user/e/ecasilar/SMPVJ_Gamma_BJETS/data/2016/SingleMuon_Trigger_Scaled_NoPtCut/Run2016G_02Apr2020-v1'
p411
sg14
I1
sg12
S'/SingleMuon/Run2016G-02Apr2020-v1/NANOAOD'
p412
ssg324
(dp413
g8
I1
sg9
F0.0
sg10
I1
sg15
S'/eos/user/e/ecasilar/SMPVJ_Gamma_BJETS/data/2016/SingleMuon_Trigger_Scaled_NoPtCut/Run2016F_02Apr2020-v1'
p414
sg14
I1
sg12
S'/SingleMuon/Run2016F-02Apr2020-v1/NANOAOD'
p415
ssg328
(dp416
g8
I1
sg9
F0.0
sg10
I1
sg15
S'/eos/user/e/ecasilar/SMPVJ_Gamma_BJETS/data/2016/SingleMuon_Trigger_Scaled_NoPtCut/Run2016H_02Apr2020-v1'
p417
sg14
I1
sg12
S'/SingleMuon/Run2016H-02Apr2020-v1/NANOAOD'
p418
sssS'SingleMuon_prescaled'
p419
(dp420
g304
(dp421
g8
I1
sg9
F0.0
sg10
I1
sg15
S'/eos/user/e/ecasilar/SMPVJ_Gamma_BJETS/data/2016/SingleMuon_Trigger_Scaled/Run2016C_02Apr2020-v1'
p422
sg14
I1
sg12
g400
ssg308
(dp423
g8
I1
sg9
F0.0
sg10
I1
sg15
S'/eos/user/e/ecasilar/SMPVJ_Gamma_BJETS/data/2016/SingleMuon_Trigger_Scaled/Run2016B_02Apr2020-v1'
p424
sg14
I1
sg12
g403
ssg312
(dp425
g8
I1
sg9
F0.0
sg10
I1
sg15
S'/eos/user/e/ecasilar/SMPVJ_Gamma_BJETS/data/2016/SingleMuon_Trigger_Scaled/Run2016E_02Apr2020-v1'
p426
sg14
I1
sg12
g406
ssg316
(dp427
g8
I1
sg9
F0.0
sg10
I1
sg15
S'/eos/user/e/ecasilar/SMPVJ_Gamma_BJETS/data/2016/SingleMuon_Trigger_Scaled/Run2016D_02Apr2020-v1'
p428
sg14
I1
sg12
g409
ssg320
(dp429
g8
I1
sg9
F0.0
sg10
I1
sg15
S'/eos/user/e/ecasilar/SMPVJ_Gamma_BJETS/data/2016/SingleMuon_Trigger_Scaled/Run2016G_02Apr2020-v1'
p430
sg14
I1
sg12
g412
ssg324
(dp431
g8
I1
sg9
F0.0
sg10
I1
sg15
S'/eos/user/e/ecasilar/SMPVJ_Gamma_BJETS/data/2016/SingleMuon_Trigger_Scaled/Run2016F_02Apr2020-v1'
p432
sg14
I1
sg12
g415
ssg328
(dp433
g8
I1
sg9
F0.0
sg10
I1
sg15
S'/eos/user/e/ecasilar/SMPVJ_Gamma_BJETS/data/2016/SingleMuon_Trigger_Scaled/Run2016H_02Apr2020-v1'
p434
sg14
I1
sg12
g418
sssS'SinglePhoton'
p435
(dp436
g304
(dp437
g8
I1
sg9
F0.0
sg10
I1
sg15
S'/eos/user/e/ecasilar/SMPVJ_Gamma_BJETS//data/2016/SinglePhoton/High_PT/Run2016C_02Apr2020-v1/'
p438
sg14
I1
sg12
g307
ssg308
(dp439
g8
I1
sg9
F0.0
sg10
I1
sg15
S'/eos/user/e/ecasilar/SMPVJ_Gamma_BJETS//data/2016/SinglePhoton/High_PT/Run2016B_02Apr2020-v1/'
p440
sg14
I1
sg12
g311
ssg312
(dp441
g8
I1
sg9
F0.0
sg10
I1
sg15
S'/eos/user/e/ecasilar/SMPVJ_Gamma_BJETS//data/2016/SinglePhoton/High_PT/Run2016E_02Apr2020-v1/'
p442
sg14
I1
sg12
g315
ssg316
(dp443
g8
I1
sg9
F0.0
sg10
I1
sg15
S'/eos/user/e/ecasilar/SMPVJ_Gamma_BJETS//data/2016/SinglePhoton/High_PT/Run2016D_02Apr2020-v1/'
p444
sg14
I1
sg12
g319
ssg320
(dp445
g8
I1
sg9
F0.0
sg10
I1
sg15
S'/eos/user/e/ecasilar/SMPVJ_Gamma_BJETS//data/2016/SinglePhoton/High_PT/Run2016G_02Apr2020-v1/'
p446
sg14
I1
sg12
g323
ssg324
(dp447
g8
I1
sg9
F0.0
sg10
I1
sg15
S'/eos/user/e/ecasilar/SMPVJ_Gamma_BJETS//data/2016/SinglePhoton/High_PT/Run2016F_02Apr2020-v1/'
p448
sg14
I1
sg12
g327
ssg328
(dp449
g8
I1
sg9
F0.0
sg10
I1
sg15
S'/eos/user/e/ecasilar/SMPVJ_Gamma_BJETS//data/2016/SinglePhoton/High_PT/Run2016H_02Apr2020-v1/'
p450
sg14
I1
sg12
g331
sssS'SingleMuon'
p451
(dp452
g304
(dp453
g8
I1
sg9
F0.0
sg10
I1
sg15
S'/eos/user/e/ecasilar/SMPVJ_Gamma_BJETS/data/2016/SingleMuon/Low_PT/Run2016C_02Apr2020-v1/'
p454
sg14
I1
sg12
g400
ssg308
(dp455
g8
I1
sg9
F0.0
sg10
I1
sg15
S'/eos/user/e/ecasilar/SMPVJ_Gamma_BJETS/data/2016/SingleMuon/Low_PT/Run2016B_02Apr2020-v1/'
p456
sg14
I1
sg12
g403
ssg312
(dp457
g8
I1
sg9
F0.0
sg10
I1
sg15
S'/eos/user/e/ecasilar/SMPVJ_Gamma_BJETS/data/2016/SingleMuon/Low_PT/Run2016E_02Apr2020-v1/'
p458
sg14
I1
sg12
g406
ssg316
(dp459
g8
I1
sg9
F0.0
sg10
I1
sg15
S'/eos/user/e/ecasilar/SMPVJ_Gamma_BJETS/data/2016/SingleMuon/Low_PT/Run2016D_02Apr2020-v1/'
p460
sg14
I1
sg12
g409
ssg320
(dp461
g8
I1
sg9
F0.0
sg10
I1
sg15
S'/eos/user/e/ecasilar/SMPVJ_Gamma_BJETS/data/2016/SingleMuon/Low_PT/Run2016G_02Apr2020-v1/'
p462
sg14
I1
sg12
g412
ssg324
(dp463
g8
I1
sg9
F0.0
sg10
I1
sg15
S'/eos/user/e/ecasilar/SMPVJ_Gamma_BJETS/data/2016/SingleMuon/Low_PT/Run2016F_02Apr2020-v1/'
p464
sg14
I1
sg12
g415
ssg328
(dp465
g8
I1
sg9
F0.0
sg10
I1
sg15
S'/eos/user/e/ecasilar/SMPVJ_Gamma_BJETS/data/2016/SingleMuon/Low_PT/Run2016H_02Apr2020-v1/'
p466
sg14
I1
sg12
g418
sssS'SingleMuon_prescaled_NoPtCut_merged'
p467
(dp468
g304
(dp469
g8
I1
sg9
F0.0
sg10
I1
sg15
S'/eos/user/e/ecasilar/SMPVJ_Gamma_BJETS/data/2016/SingleMuon_Trigger_Scaled_NoPtCut/Run2016C_02Apr2020-v1/merged'
p470
sg14
I1
sg12
g400
ssg308
(dp471
g8
I1
sg9
F0.0
sg10
I1
sg15
S'/eos/user/e/ecasilar/SMPVJ_Gamma_BJETS/data/2016/SingleMuon_Trigger_Scaled_NoPtCut/Run2016B_02Apr2020-v1/merged'
p472
sg14
I1
sg12
g403
ssg312
(dp473
g8
I1
sg9
F0.0
sg10
I1
sg15
S'/eos/user/e/ecasilar/SMPVJ_Gamma_BJETS/data/2016/SingleMuon_Trigger_Scaled_NoPtCut/Run2016E_02Apr2020-v1/merged'
p474
sg14
I1
sg12
g406
ssg316
(dp475
g8
I1
sg9
F0.0
sg10
I1
sg15
S'/eos/user/e/ecasilar/SMPVJ_Gamma_BJETS/data/2016/SingleMuon_Trigger_Scaled_NoPtCut/Run2016D_02Apr2020-v1/merged'
p476
sg14
I1
sg12
g409
ssg320
(dp477
g8
I1
sg9
F0.0
sg10
I1
sg15
S'/eos/user/e/ecasilar/SMPVJ_Gamma_BJETS/data/2016/SingleMuon_Trigger_Scaled_NoPtCut/Run2016G_02Apr2020-v1/merged'
p478
sg14
I1
sg12
g412
ssg324
(dp479
g8
I1
sg9
F0.0
sg10
I1
sg15
S'/eos/user/e/ecasilar/SMPVJ_Gamma_BJETS/data/2016/SingleMuon_Trigger_Scaled_NoPtCut/Run2016F_02Apr2020-v1/merged'
p480
sg14
I1
sg12
g415
ssg328
(dp481
g8
I1
sg9
F0.0
sg10
I1
sg15
S'/eos/user/e/ecasilar/SMPVJ_Gamma_BJETS/data/2016/SingleMuon_Trigger_Scaled_NoPtCut/Run2016H_02Apr2020-v1/merged'
p482
sg14
I1
sg12
g418
sssS'SinglePhoton_prescaled_NoPtCut_merged'
p483
(dp484
g304
(dp485
g8
I1
sg9
F0.0
sg10
I1
sg15
S'/eos/user/e/ecasilar/SMPVJ_Gamma_BJETS/data/2016/SinglePhoton_Trigger_Scaled_NoPtCut/Run2016C_02Apr2020-v1/merged'
p486
sg14
I1
sg12
g307
ssg308
(dp487
g8
I1
sg9
F0.0
sg10
I1
sg15
S'/eos/user/e/ecasilar/SMPVJ_Gamma_BJETS/data/2016/SinglePhoton_Trigger_Scaled_NoPtCut/Run2016B_02Apr2020-v1/merged'
p488
sg14
I1
sg12
g311
ssg312
(dp489
g8
I1
sg9
F0.0
sg10
I1
sg15
S'/eos/user/e/ecasilar/SMPVJ_Gamma_BJETS/data/2016/SinglePhoton_Trigger_Scaled_NoPtCut/Run2016E_02Apr2020-v1/merged'
p490
sg14
I1
sg12
g315
ssg316
(dp491
g8
I1
sg9
F0.0
sg10
I1
sg15
S'/eos/user/e/ecasilar/SMPVJ_Gamma_BJETS/data/2016/SinglePhoton_Trigger_Scaled_NoPtCut/Run2016D_02Apr2020-v1/merged'
p492
sg14
I1
sg12
g319
ssg320
(dp493
g8
I1
sg9
F0.0
sg10
I1
sg15
S'/eos/user/e/ecasilar/SMPVJ_Gamma_BJETS/data/2016/SinglePhoton_Trigger_Scaled_NoPtCut/Run2016G_02Apr2020-v1/merged'
p494
sg14
I1
sg12
g323
ssg324
(dp495
g8
I1
sg9
F0.0
sg10
I1
sg15
S'/eos/user/e/ecasilar/SMPVJ_Gamma_BJETS/data/2016/SinglePhoton_Trigger_Scaled_NoPtCut/Run2016F_02Apr2020-v1/merged'
p496
sg14
I1
sg12
g327
ssg328
(dp497
g8
I1
sg9
F0.0
sg10
I1
sg15
S'/eos/user/e/ecasilar/SMPVJ_Gamma_BJETS/data/2016/SinglePhoton_Trigger_Scaled_NoPtCut/Run2016H_02Apr2020-v1/merged'
p498
sg14
I1
sg12
g331
sssS'SinglePhoton_36_NoDoubleCount'
p499
(dp500
g304
(dp501
g8
I1
sg9
F0.0
sg10
I1
sg15
S'/eos/user/m/myalvac/GPlusBJets/HLT_36_L1_Prescaled/data/2016/SinglePhoton_36/Low_PT/Run2016C_02Apr2020-v1/'
p502
sg14
I1
sg12
g307
ssg308
(dp503
g8
I1
sg9
F0.0
sg10
I1
sg15
S'/eos/user/m/myalvac/GPlusBJets/HLT_36_L1_Prescaled/data/2016/SinglePhoton_36/Low_PT/Run2016B_02Apr2020-v1/'
p504
sg14
I1
sg12
g311
ssg312
(dp505
g8
I1
sg9
F0.0
sg10
I1
sg15
S'/eos/user/m/myalvac/GPlusBJets/HLT_36_L1_Prescaled/data/2016/SinglePhoton_36/Low_PT/Run2016E_02Apr2020-v1/'
p506
sg14
I1
sg12
g315
ssg316
(dp507
g8
I1
sg9
F0.0
sg10
I1
sg15
S'/eos/user/m/myalvac/GPlusBJets/HLT_36_L1_Prescaled/data/2016/SinglePhoton_36/Low_PT/Run2016D_02Apr2020-v1/'
p508
sg14
I1
sg12
g319
ssg320
(dp509
g8
I1
sg9
F0.0
sg10
I1
sg15
S'/eos/user/m/myalvac/GPlusBJets/HLT_36_L1_Prescaled/data/2016/SinglePhoton_36/Low_PT/Run2016G_02Apr2020-v1/'
p510
sg14
I1
sg12
g323
ssg324
(dp511
g8
I1
sg9
F0.0
sg10
I1
sg15
S'/eos/user/m/myalvac/GPlusBJets/HLT_36_L1_Prescaled/data/2016/SinglePhoton_36/Low_PT/Run2016F_02Apr2020-v1/'
p512
sg14
I1
sg12
g327
ssg328
(dp513
g8
I1
sg9
F0.0
sg10
I1
sg15
S'/eos/user/m/myalvac/GPlusBJets/HLT_36_L1_Prescaled/data/2016/SinglePhoton_36/Low_PT/Run2016H_02Apr2020-v1/'
p514
sg14
I1
sg12
g331
sssssI2017
(dp515
g300
(dp516
S'SingleMuon_UL'
p517
(dp518
g304
(dp519
g8
I1
sg9
F0.0
sg10
I1
sg15
S'/eos/user/e/ecasilar/SMPVJ_Gamma_BJETS/data/2017/SingleMuon_UL/Run2017C-UL2017_02Dec2019-v1'
p520
sg14
I1
sg12
S'/SingleMuon/Run2017C-UL2017_02Dec2019-v1/NANOAOD'
p521
ssg308
(dp522
g8
I1
sg9
F0.0
sg10
I1
sg15
S'/eos/user/e/ecasilar/SMPVJ_Gamma_BJETS/data/2017/SingleMuon_UL/Run2017B-UL2017_02Dec2019-v1'
p523
sg14
I1
sg12
S'/SingleMuon/Run2017B-UL2017_02Dec2019-v1/NANOAOD'
p524
ssg312
(dp525
g8
I1
sg9
F0.0
sg10
I1
sg15
S'/eos/user/e/ecasilar/SMPVJ_Gamma_BJETS/data/2017/SingleMuon_UL/Run2017E-UL2017_02Dec2019-v1'
p526
sg14
I1
sg12
S'/SingleMuon/Run2017E-UL2017_02Dec2019-v1/NANOAOD'
p527
ssg316
(dp528
g8
I1
sg9
F0.0
sg10
I1
sg15
S'/eos/user/e/ecasilar/SMPVJ_Gamma_BJETS/data/2017/SingleMuon_UL/Run2017D-UL2017_02Dec2019-v1'
p529
sg14
I1
sg12
S'/SingleMuon/Run2017D-UL2017_02Dec2019-v1/NANOAOD'
p530
ssg324
(dp531
g8
I1
sg9
F0.0
sg10
I1
sg15
S'/eos/user/e/ecasilar/SMPVJ_Gamma_BJETS/data/2017/SingleMuon_UL/Run2017F-UL2017_02Dec2019-v1'
p532
sg14
I1
sg12
S'/SingleMuon/Run2017F-UL2017_02Dec2019-v1/NANOAOD'
p533
sssg451
(dp534
g304
(dp535
g8
I1
sg9
F0.0
sg10
I1
sg15
S'/eos/user/e/ecasilar/SMPVJ_Gamma_BJETS/data/2017/SingleMuon/Run2017C-02Apr2020-v1'
p536
sg14
I1
sg12
S'/SingleMuon/Run2017C-02Apr2020-v1/NANOAOD'
p537
ssg308
(dp538
g8
I1
sg9
F0.0
sg10
I1
sg15
S'/eos/user/e/ecasilar/SMPVJ_Gamma_BJETS/data/2017/SingleMuon/Run2017B-02Apr2020-v1'
p539
sg14
I1
sg12
S'/SingleMuon/Run2017B-02Apr2020-v1/NANOAOD'
p540
ssg312
(dp541
g8
I1
sg9
F0.0
sg10
I1
sg15
S'/eos/user/e/ecasilar/SMPVJ_Gamma_BJETS/data/2017/SingleMuon/Run2017E-02Apr2020-v1'
p542
sg14
I1
sg12
S'/SingleMuon/Run2017E-02Apr2020-v1/NANOAOD'
p543
ssg316
(dp544
g8
I1
sg9
F0.0
sg10
I1
sg15
S'/eos/user/e/ecasilar/SMPVJ_Gamma_BJETS/data/2017/SingleMuon/Run2017D-02Apr2020-v1'
p545
sg14
I1
sg12
S'/SingleMuon/Run2017D-02Apr2020-v1/NANOAOD'
p546
ssg324
(dp547
g8
I1
sg9
F0.0
sg10
I1
sg15
S'/eos/user/e/ecasilar/SMPVJ_Gamma_BJETS/data/2017/SingleMuon/Run2017F-02Apr2020-v1'
p548
sg14
I1
sg12
S'/SingleMuon/Run2017F-02Apr2020-v1/NANOAOD'
p549
sssS'SingleMuon_UL_prescaled_NoPtCut_merged'
p550
(dp551
g304
(dp552
g8
I1
sg9
F0.0
sg10
I1
sg15
S'/eos/user/e/ecasilar/SMPVJ_Gamma_BJETS/data/2017/SingleMuon_UL_Trigger_Scaled_NoPtCut/Run2017C-UL2017_02Dec2019-v1/merged'
p553
sg14
I1
sg12
g521
ssg308
(dp554
g8
I1
sg9
F0.0
sg10
I1
sg15
S'/eos/user/e/ecasilar/SMPVJ_Gamma_BJETS/data/2017/SingleMuon_UL_Trigger_Scaled_NoPtCut/Run2017B-UL2017_02Dec2019-v1/merged'
p555
sg14
I1
sg12
g524
ssg312
(dp556
g8
I1
sg9
F0.0
sg10
I1
sg15
S'/eos/user/e/ecasilar/SMPVJ_Gamma_BJETS/data/2017/SingleMuon_UL_Trigger_Scaled_NoPtCut/Run2017E-UL2017_02Dec2019-v1/merged'
p557
sg14
I1
sg12
g527
ssg316
(dp558
g8
I1
sg9
F0.0
sg10
I1
sg15
S'/eos/user/e/ecasilar/SMPVJ_Gamma_BJETS/data/2017/SingleMuon_UL_Trigger_Scaled_NoPtCut/Run2017D-UL2017_02Dec2019-v1/merged'
p559
sg14
I1
sg12
g530
ssg324
(dp560
g8
I1
sg9
F0.0
sg10
I1
sg15
S'/eos/user/e/ecasilar/SMPVJ_Gamma_BJETS/data/2017/SingleMuon_UL_Trigger_Scaled_NoPtCut/Run2017F-UL2017_02Dec2019-v1/merged'
p561
sg14
I1
sg12
g533
sssS'SingleMuon_UL_prescaled_NoPtCut'
p562
(dp563
g304
(dp564
g8
I1
sg9
F0.0
sg10
I1
sg15
S'/eos/user/e/ecasilar/SMPVJ_Gamma_BJETS/data/2017/SingleMuon_UL_Trigger_Scaled_NoPtCut/Run2017C-UL2017_02Dec2019-v1'
p565
sg14
I1
sg12
g521
ssg308
(dp566
g8
I1
sg9
F0.0
sg10
I1
sg15
S'/eos/user/e/ecasilar/SMPVJ_Gamma_BJETS/data/2017/SingleMuon_UL_Trigger_Scaled_NoPtCut/Run2017B-UL2017_02Dec2019-v1'
p567
sg14
I1
sg12
g524
ssg312
(dp568
g8
I1
sg9
F0.0
sg10
I1
sg15
S'/eos/user/e/ecasilar/SMPVJ_Gamma_BJETS/data/2017/SingleMuon_UL_Trigger_Scaled_NoPtCut/Run2017E-UL2017_02Dec2019-v1'
p569
sg14
I1
sg12
g527
ssg316
(dp570
g8
I1
sg9
F0.0
sg10
I1
sg15
S'/eos/user/e/ecasilar/SMPVJ_Gamma_BJETS/data/2017/SingleMuon_UL_Trigger_Scaled_NoPtCut/Run2017D-UL2017_02Dec2019-v1'
p571
sg14
I1
sg12
g530
ssg324
(dp572
g8
I1
sg9
F0.0
sg10
I1
sg15
S'/eos/user/e/ecasilar/SMPVJ_Gamma_BJETS/data/2017/SingleMuon_UL_Trigger_Scaled_NoPtCut/Run2017F-UL2017_02Dec2019-v1'
p573
sg14
I1
sg12
g533
sssssI2018
(dp574
g300
(dp575
g517
(dp576
S'A'
p577
(dp578
g8
I1
sg9
F0.0
sg10
I1
sg15
S'/eos/user/e/ecasilar/SMPVJ_Gamma_BJETS/data/2018/SingleMuon_UL/Run2018A-UL2018_MiniAODv1_NanoAODv2-v1'
p579
sg14
I1
sg12
S'/SingleMuon/Run2018E-UL2018_MiniAODv1_NanoAODv2-v1/NANOAOD'
p580
ssg304
(dp581
g8
I1
sg9
F0.0
sg10
I1
sg15
S'/eos/user/e/ecasilar/SMPVJ_Gamma_BJETS/data/2018/SingleMuon_UL/Run2018C-UL2018_MiniAODv1_NanoAODv2-v1'
p582
sg14
I1
sg12
S'/SingleMuon/Run2018C-UL2018_MiniAODv1_NanoAODv2-v1/NANOAOD'
p583
ssg308
(dp584
g8
I1
sg9
F0.0
sg10
I1
sg15
S'/eos/user/e/ecasilar/SMPVJ_Gamma_BJETS/data/2018/SingleMuon_UL/Run2018B-UL2018_MiniAODv1_NanoAODv2-v1'
p585
sg14
I1
sg12
S'/SingleMuon/Run2018B-UL2018_MiniAODv1_NanoAODv2-v1/NANOAOD'
p586
ssg316
(dp587
g8
I1
sg9
F0.0
sg10
I1
sg15
S'/eos/user/e/ecasilar/SMPVJ_Gamma_BJETS/data/2018/SingleMuon_UL/Run2018D-UL2018_MiniAODv1_NanoAODv2-v1'
p588
sg14
I1
sg12
S'/SingleMuon/Run2018D-UL2018_MiniAODv1_NanoAODv2-v1/NANOAOD'
p589
sssg451
(dp590
g577
(dp591
g8
I1
sg9
F0.0
sg10
I1
sg15
S'/eos/user/e/ecasilar/SMPVJ_Gamma_BJETS/data/2018/SingleMuon/Run2018A-02Apr2020-v1'
p592
sg14
I1
sg12
S'/SingleMuon/Run2018E-02Apr2020-v1/NANOAOD'
p593
ssg304
(dp594
g8
I1
sg9
F0.0
sg10
I1
sg15
S'/eos/user/e/ecasilar/SMPVJ_Gamma_BJETS/data/2018/SingleMuon/Run2018C-02Apr2020-v1'
p595
sg14
I1
sg12
S'/SingleMuon/Run2018C-02Apr2020-v1/NANOAOD'
p596
ssg308
(dp597
g8
I1
sg9
F0.0
sg10
I1
sg15
S'/eos/user/e/ecasilar/SMPVJ_Gamma_BJETS/data/2018/SingleMuon/Run2018B-02Apr2020-v1'
p598
sg14
I1
sg12
S'/SingleMuon/Run2018B-02Apr2020-v1/NANOAOD'
p599
ssg316
(dp600
g8
I1
sg9
F0.0
sg10
I1
sg15
S'/eos/user/e/ecasilar/SMPVJ_Gamma_BJETS/data/2018/SingleMuon/Run2018D-02Apr2020-v1'
p601
sg14
I1
sg12
S'/SingleMuon/Run2018D-02Apr2020-v1/NANOAOD'
p602
sssg550
(dp603
g577
(dp604
g8
I1
sg9
F0.0
sg10
I1
sg15
S'/eos/user/e/ecasilar/SMPVJ_Gamma_BJETS/data/2018/SingleMuon_UL_Trigger_Scaled_NoPtCut/Run2018A-UL2018_MiniAODv1_NanoAODv2-v1/merged'
p605
sg14
I1
sg12
g580
ssg304
(dp606
g8
I1
sg9
F0.0
sg10
I1
sg15
S'/eos/user/e/ecasilar/SMPVJ_Gamma_BJETS/data/2018/SingleMuon_UL_Trigger_Scaled_NoPtCut/Run2018C-UL2018_MiniAODv1_NanoAODv2-v1/merged'
p607
sg14
I1
sg12
g583
ssg308
(dp608
g8
I1
sg9
F0.0
sg10
I1
sg15
S'/eos/user/e/ecasilar/SMPVJ_Gamma_BJETS/data/2018/SingleMuon_UL_Trigger_Scaled_NoPtCut/Run2018B-UL2018_MiniAODv1_NanoAODv2-v1/merged'
p609
sg14
I1
sg12
g586
ssg316
(dp610
g8
I1
sg9
F0.0
sg10
I1
sg15
S'/eos/user/e/ecasilar/SMPVJ_Gamma_BJETS/data/2018/SingleMuon_UL_Trigger_Scaled_NoPtCut/Run2018D-UL2018_MiniAODv1_NanoAODv2-v1/merged'
p611
sg14
I1
sg12
g589
sssg562
(dp612
g577
(dp613
g8
I1
sg9
F0.0
sg10
I1
sg15
S'/eos/user/e/ecasilar/SMPVJ_Gamma_BJETS/data/2018/SingleMuon_UL_Trigger_Scaled_NoPtCut/Run2018A-UL2018_MiniAODv1_NanoAODv2-v1'
p614
sg14
I1
sg12
g580
ssg304
(dp615
g8
I1
sg9
F0.0
sg10
I1
sg15
S'/eos/user/e/ecasilar/SMPVJ_Gamma_BJETS/data/2018/SingleMuon_UL_Trigger_Scaled_NoPtCut/Run2018C-UL2018_MiniAODv1_NanoAODv2-v1'
p616
sg14
I1
sg12
g583
ssg308
(dp617
g8
I1
sg9
F0.0
sg10
I1
sg15
S'/eos/user/e/ecasilar/SMPVJ_Gamma_BJETS/data/2018/SingleMuon_UL_Trigger_Scaled_NoPtCut/Run2018B-UL2018_MiniAODv1_NanoAODv2-v1'
p618
sg14
I1
sg12
g586
ssg316
(dp619
g8
I1
sg9
F0.0
sg10
I1
sg15
S'/eos/user/e/ecasilar/SMPVJ_Gamma_BJETS/data/2018/SingleMuon_UL_Trigger_Scaled_NoPtCut/Run2018D-UL2018_MiniAODv1_NanoAODv2-v1'
p620
sg14
I1
sg12
g589
sssss.