(dp0
V273402
p1
(lp2
I292
asV276355
p3
(lp4
I33
asV276586
p5
(lp6
I773
asV273406
p7
(lp8
I1
aI2
asV273404
p9
(lp10
I1
aI2
asV273405
p11
(lp12
I2
asV273408
p13
(lp14
I1
aI2
aI4
aI5
aI6
asV273409
p15
(lp16
I1
aI2
aI3
aI4
aI5
aI6
aI7
aI8
aI9
aI10
aI11
aI12
aI13
aI14
aI15
aI16
aI17
aI18
aI19
aI20
aI21
aI22
aI23
aI24
aI25
aI26
aI27
aI28
aI29
aI30
aI31
aI32
aI33
aI34
aI35
aI36
aI37
aI38
aI39
aI40
aI41
aI42
aI43
aI44
aI45
aI46
aI47
aI48
aI49
aI50
aI51
aI52
aI53
aI54
aI55
aI56
aI57
aI58
aI59
aI60
aI61
aI62
aI63
aI64
aI65
aI66
aI67
aI68
aI69
aI70
aI71
aI72
aI73
aI74
aI75
aI76
aI77
aI78
aI79
aI80
aI81
aI82
aI83
aI84
aI85
aI86
aI87
aI88
aI89
aI90
aI91
aI92
aI93
aI94
aI95
aI96
aI97
aI98
aI99
aI100
aI101
aI102
aI103
aI104
aI105
aI106
aI107
aI108
aI109
aI110
aI111
aI112
aI113
aI114
aI115
aI116
aI117
aI118
aI119
aI120
aI121
aI122
aI123
aI124
aI125
aI126
aI127
aI128
aI129
aI130
aI131
aI132
aI133
aI134
aI135
aI136
aI137
aI138
aI139
aI140
aI141
aI142
aI143
aI144
aI145
aI146
aI147
aI148
aI149
aI150
aI151
aI152
aI153
aI154
aI155
aI156
aI157
aI158
aI159
aI160
aI161
aI162
aI163
aI164
aI165
aI166
aI167
aI168
aI169
aI170
aI171
aI172
aI173
aI174
aI175
aI176
aI177
aI178
aI179
aI180
aI181
aI182
aI183
aI184
aI185
aI186
aI187
aI188
aI189
aI190
aI191
aI192
aI193
aI194
aI195
aI196
aI197
aI198
aI199
aI200
aI201
aI202
aI203
aI204
aI205
aI206
aI207
aI208
aI209
aI210
aI211
aI212
aI213
aI214
aI215
aI216
aI217
aI218
aI219
aI220
aI221
aI222
aI223
aI224
aI225
aI226
aI227
aI228
aI229
aI230
aI231
aI232
aI233
aI234
aI235
aI236
aI237
aI238
aI239
aI240
aI241
aI242
aI243
aI244
aI245
aI246
aI247
aI248
aI249
aI250
aI251
aI252
aI253
aI254
aI255
aI256
aI257
aI258
aI259
aI260
aI261
aI262
aI263
aI264
aI265
aI266
aI267
aI268
aI269
aI270
aI271
aI272
aI273
aI274
aI275
aI276
aI277
aI278
aI279
aI280
aI281
aI282
aI283
aI284
aI285
aI286
aI287
aI288
aI289
aI290
aI291
aI292
aI293
aI294
aI295
aI296
aI297
aI298
aI299
aI300
aI301
aI302
aI303
aI304
aI305
aI306
aI307
aI308
aI309
asV279766
p17
(lp18
I1689
asV279844
p19
(lp20
I295
asV273411
p21
(lp22
I1
aI2
aI3
aI4
aI5
aI6
aI7
aI8
aI9
aI10
aI11
aI12
aI13
aI14
aI15
aI16
aI17
aI18
aI19
aI20
aI21
aI22
aI23
aI24
aI25
aI26
aI27
aI28
aI29
asV273410
p23
(lp24
I1
aI2
aI3
aI4
aI5
aI6
aI7
aI8
aI9
aI10
aI11
aI12
aI13
aI14
aI15
aI16
aI17
aI18
aI19
aI20
aI21
aI22
aI23
aI24
aI25
aI26
aI27
aI28
aI29
aI30
aI31
aI32
aI33
aI34
aI35
aI36
aI37
aI38
aI39
aI40
aI41
aI42
aI43
aI44
aI45
aI46
aI47
aI48
aI49
aI50
aI51
aI52
aI53
aI54
aI55
aI56
aI57
aI58
aI59
aI60
aI61
aI62
aI63
aI64
aI65
aI66
aI67
aI68
aI69
aI70
aI71
aI72
aI73
aI74
aI75
aI76
aI77
aI78
aI79
aI80
aI81
aI82
aI83
aI84
aI85
aI86
aI87
aI88
aI89
aI90
asV274250
p25
(lp26
I1
aI2
asV274251
p27
(lp28
I1
aI2
asV274317
p29
(lp30
I1
aI2
asV274316
p31
(lp32
I1
aI2
asV274315
p33
(lp34
I1
aI2
asV281639
p35
(lp36
I132
asV277071
p37
(lp38
I178
asV274421
p39
(lp40
I1
aI2
asV274420
p41
(lp42
I268
asV274422
p43
(lp44
I1
aI2
asV273158
p45
(lp46
I1
aI2
aI1279
aI17
aI18
aI19
aI20
aI21
aI22
aI23
aI24
aI25
aI26
aI27
aI28
aI29
aI30
aI31
asV273555
p47
(lp48
I1
aI2
asV273493
p49
(lp50
I1
aI2
asV273494
p51
(lp52
I1
aI2
asV274388
p53
(lp54
I1
aI2
asV274954
p55
(lp56
I57
asV282708
p57
(lp58
I8
asV274244
p59
(lp60
I1
aI2
asV277166
p61
(lp62
I431
asV274159
p63
(lp64
I1
aI2
aI43
asV274240
p65
(lp66
I1
aI2
asV274157
p67
(lp68
I534
asV274441
p69
(lp70
I1
aI2
asV280020
p71
(lp72
I45
asV277981
p73
(lp74
I160
aI161
aI162
aI163
aI158
aI159
asV273302
p75
(lp76
I1
aI2
asV274955
p77
(lp78
I91
asV283884
p79
(lp80
I756
asV273730
p81
(lp82
I2048
aI1
aI2
aI2051
aI2052
aI2053
aI2054
aI2049
aI2056
aI2057
aI2058
aI2059
aI2060
aI2050
aI2062
aI2063
aI2064
aI2065
aI2066
aI2067
aI2068
aI2069
aI2070
aI2071
aI2072
aI2073
aI2074
aI2075
aI2076
aI2077
aI2078
aI2079
aI2080
aI2081
aI2082
aI2083
aI2084
aI2085
aI2086
aI2087
aI2088
aI2089
aI2090
aI2055
aI2092
aI2093
aI2094
aI2095
aI2096
aI2097
aI2098
aI2099
aI2100
aI2101
aI2102
aI2103
aI2104
aI2105
aI2106
aI2107
aI2108
aI2109
aI2110
aI2111
aI2112
aI2113
aI2114
aI2115
aI2116
aI2117
aI2118
aI2119
aI2120
aI2121
aI2122
aI2123
aI2124
aI2125
aI2126
aI2061
aI2091
aI287
aI288
aI289
aI290
aI291
aI292
aI293
aI294
aI1491
aI1492
aI1493
aI1494
aI1495
aI1496
aI1497
aI1498
aI1499
aI1500
aI1501
aI1502
aI1503
aI1504
aI1505
aI1506
aI1507
aI1508
aI1509
aI1510
aI1511
aI1512
aI1513
aI1514
aI1515
aI1516
aI1517
aI1518
aI1519
aI1520
aI1521
aI1522
aI1523
aI1524
aI1525
aI1526
aI1527
aI1528
aI1529
aI1530
aI1531
aI1532
aI1533
aI1534
aI1535
aI1536
aI1537
aI1538
aI1539
aI1540
aI1541
aI1542
aI1543
aI1544
aI1545
aI1546
aI1547
aI1548
aI1549
aI1550
aI1551
aI1552
aI1553
aI1554
aI1555
aI1556
aI1557
aI1558
aI1559
aI1560
aI1561
aI1562
aI1563
aI1564
aI1565
aI1566
aI1567
aI1568
aI1569
aI1570
aI1571
aI1572
aI1573
aI1574
aI1575
aI1576
aI1577
aI1578
aI1579
aI1580
aI1581
aI1582
aI1583
aI1584
aI1585
aI1586
aI1587
aI1588
aI1589
aI1590
aI1591
aI1592
aI1593
aI1594
aI1595
aI1596
aI1597
aI1598
aI1599
aI1600
aI1601
aI1602
aI1603
aI1604
aI1605
aI1606
aI1607
aI1608
aI1609
aI1610
aI1611
aI1612
aI1613
aI1614
aI1615
aI1616
aI1617
aI1618
aI1619
aI1620
aI1621
aI1622
aI1623
aI1624
aI1625
aI1626
aI1627
aI1628
aI1629
aI1630
aI1631
aI1632
aI1633
aI1634
aI1635
aI1636
aI1637
aI1638
aI1639
aI1640
aI1641
aI1642
aI1643
aI1644
aI1645
aI1646
aI1647
aI1648
aI1649
aI1650
aI1651
aI1652
aI1653
aI1654
aI1655
aI1656
aI1657
aI1658
aI1659
aI1660
aI1661
aI1662
aI1663
aI1664
aI1665
aI1666
aI1667
aI1668
aI1669
aI1670
aI1671
aI1672
aI1673
aI1674
aI1675
aI1676
aI1677
aI1678
aI1679
aI1680
aI1681
aI1682
aI1683
aI1684
aI1685
aI1686
aI1687
aI1688
aI1689
aI1690
aI1691
aI1692
aI1693
aI1694
aI1695
aI1696
aI1697
aI1698
aI1699
aI1700
aI1701
aI1702
aI1703
aI1704
aI1705
aI1706
aI1707
aI1708
aI1709
aI1710
aI1711
aI1712
aI1713
aI1714
aI1715
aI1716
aI1717
aI1718
aI1719
aI1720
aI1721
aI1722
aI1723
aI1724
aI1725
aI1726
aI1727
aI1728
aI1729
aI1730
aI1731
aI1732
aI1733
aI1734
aI1735
aI1736
aI1737
aI1738
aI1739
aI1740
aI1741
aI1742
aI1743
aI1744
aI1745
aI1746
aI1747
aI1748
aI1749
aI1750
aI1751
aI1752
aI1753
aI1754
aI1755
aI1756
aI1757
aI1758
aI1759
aI1760
aI1761
aI1762
aI1763
aI1764
aI1765
aI1766
aI1767
aI1768
aI1769
aI1770
aI1771
aI1772
aI1773
aI1774
aI1775
aI1776
aI1777
aI1778
aI1779
aI1780
aI1781
aI1782
aI1783
aI1784
aI1785
aI1786
aI1787
aI1788
aI1789
aI1790
aI1791
aI1792
aI1793
aI1794
aI1795
aI1796
aI1797
aI1798
aI1799
aI1800
aI1801
aI1802
aI1803
aI1804
aI1805
aI1806
aI1807
aI1808
aI1809
aI1810
aI1811
aI1812
aI1813
aI1814
aI1820
aI1821
aI1822
aI1823
aI1824
aI1825
aI1826
aI1827
aI1828
aI1829
aI1830
aI1831
aI1832
aI1833
aI1834
aI1835
aI1836
aI1837
aI1838
aI1839
aI1840
aI1841
aI1842
aI1843
aI1844
aI1845
aI1846
aI1847
aI1848
aI1849
aI1850
aI1851
aI1852
aI1853
aI1854
aI1855
aI1856
aI1857
aI1858
aI1859
aI1860
aI1861
aI1862
aI1863
aI1864
aI1865
aI1866
aI1867
aI1868
aI1869
aI1870
aI1871
aI1872
aI1873
aI1874
aI1875
aI1876
aI1877
aI1878
aI1879
aI1880
aI1881
aI1882
aI1883
aI1884
aI1885
aI1886
aI1887
aI1888
aI1889
aI1890
aI1891
aI1892
aI1893
aI1894
aI1895
aI1896
aI1897
aI1898
aI1899
aI1900
aI1901
aI1902
aI1903
aI1904
aI1905
aI1906
aI1907
aI1908
aI1909
aI1910
aI1911
aI1912
aI1913
aI1914
aI1915
aI1916
aI1917
aI1918
aI1919
aI1920
aI1921
aI1922
aI1923
aI1924
aI1925
aI1926
aI1927
aI1928
aI1929
aI1930
aI1931
aI1932
aI1933
aI1934
aI1935
aI1936
aI1937
aI1938
aI1939
aI1940
aI1941
aI1942
aI1943
aI1944
aI1945
aI1946
aI1947
aI1948
aI1949
aI1950
aI1951
aI1952
aI1953
aI1954
aI1955
aI1956
aI1957
aI1958
aI1959
aI1960
aI1961
aI1962
aI1963
aI1964
aI1965
aI1966
aI1967
aI1968
aI1969
aI1970
aI1971
aI1972
aI1973
aI1974
aI1975
aI1976
aI1977
aI1978
aI1979
aI1980
aI1981
aI1982
aI1983
aI1984
aI1985
aI1986
aI1987
aI1988
aI1989
aI1990
aI1991
aI1992
aI1993
aI1994
aI1995
aI1996
aI1997
aI1998
aI1999
aI2000
aI2001
aI2002
aI2003
aI2004
aI2005
aI2006
aI2007
aI2008
aI2009
aI2010
aI2011
aI2012
aI2013
aI2014
aI2015
aI2016
aI2017
aI2018
aI2019
aI2020
aI2021
aI2022
aI2023
aI2024
aI2025
aI2026
aI2027
aI2028
aI2029
aI2030
aI2031
aI2032
aI2033
aI2034
aI2035
aI2036
aI2037
aI2038
aI2039
aI2040
aI2041
aI2042
aI2043
aI2044
aI2045
aI2046
aI2047
asV274969
p83
(lp84
I1003
asV273403
p85
(lp86
I1
aI2
asV274160
p87
(lp88
I1
aI2
asV274161
p89
(lp90
I1
aI2
asV273728
p91
(lp92
I1
aI2
asV278288
p93
(lp94
I81
asV278805
p95
(lp96
I288
asV278803
p97
(lp98
I323
asV278802
p99
(lp100
I17
asV274241
p101
(lp102
I1176
aI1
aI2
asV278769
p103
(lp104
I104
asV283946
p105
(lp106
I1462
asV274970
p107
(lp108
I47
asV276946
p109
(lp110
I27
asV276947
p111
(lp112
I141
asV276940
p113
(lp114
I213
asV276542
p115
(lp116
I857
asV276544
p117
(lp118
I161
asV275283
p119
(lp120
I132
asV278873
p121
(lp122
I129
asV283059
p123
(lp124
I451
asV273448
p125
(lp126
I1
aI2
asV273449
p127
(lp128
I1
aI2
asV273446
p129
(lp130
I1
aI2
asV273447
p131
(lp132
I1
aI2
asV277096
p133
(lp134
I2086
asV278167
p135
(lp136
I2258
asV276655
p137
(lp138
I1106
asV284029
p139
(lp140
I112
asV276775
p141
(lp142
I1260
asV275290
p143
(lp144
I143
asV275292
p145
(lp146
I121
asV273450
p147
(lp148
I1
aI2
asV274284
p149
(lp150
I1
aI2
asV279654
p151
(lp152
I1299
asV274344
p153
(lp154
I1
aI2
asV274345
p155
(lp156
I1
aI2
asV284036
p157
(lp158
I348
asV284039
p159
(lp160
I30
asV284038
p161
(lp162
I55
asV283478
p163
(lp164
I969
asV273503
p165
(lp166
I1
aI2
asV274200
p167
(lp168
I1
aI2
asV277126
p169
(lp170
I59
asV274199
p171
(lp172
I1
aI2
asV276585
p173
(lp174
I246
asV274319
p175
(lp176
I1
aI2
asV283830
p177
(lp178
I722
asV283834
p179
(lp180
I82
asV274146
p181
(lp182
I1
aI2
asV280015
p183
(lp184
I580
asV283682
p185
(lp186
I384
asV284042
p187
(lp188
I129
asV281975
p189
(lp190
I215
asV274335
p191
(lp192
I1003
asV274442
p193
(lp194
I1
aI2
asV274337
p195
(lp196
I17
asV274336
p197
(lp198
I1
aI2
aI14
asV279681
p199
(lp200
I104
asV274339
p201
(lp202
I1
aI2
asV274338
p203
(lp204
I1
aI2
aI698
asV283270
p205
(lp206
I1912
asV275282
p207
(lp208
I180
asV283820
p209
(lp210
I1548
asV274283
p211
(lp212
I2
aI19
asV275835
p213
(lp214
I13
asV275834
p215
(lp216
I297
asV274286
p217
(lp218
I1
aI2
asV279479
p219
(lp220
I190
asV276527
p221
(lp222
I214
asV277991
p223
(lp224
I96
aI97
aI98
aI90
aI91
aI92
aI93
aI94
aI95
as.