(dp0
V273402
p1
(lp2
I292
asV276585
p3
(lp4
I246
asV276586
p5
(lp6
I773
asV273406
p7
(lp8
I1
aI2
asV273404
p9
(lp10
I1
aI2
asV273405
p11
(lp12
I2
asV273408
p13
(lp14
I1
aI2
asV273409
p15
(lp16
I1
aI2
asV279766
p17
(lp18
I1689
asV279844
p19
(lp20
I295
asV273411
p21
(lp22
I1
aI2
asV273410
p23
(lp24
I1
aI2
asV274250
p25
(lp26
I1
aI2
asV274251
p27
(lp28
I1
aI2
asV274317
p29
(lp30
I1
aI2
asV274316
p31
(lp32
I1
aI2
asV274315
p33
(lp34
I1
aI2
asV281639
p35
(lp36
I132
asV277071
p37
(lp38
I178
asV274421
p39
(lp40
I1
aI2
asV274420
p41
(lp42
I268
asV274422
p43
(lp44
I1
aI2
asV273158
p45
(lp46
I1
aI2
aI1279
asV273555
p47
(lp48
I1
aI2
asV273493
p49
(lp50
I1
aI2
asV273494
p51
(lp52
I1
aI2
asV274388
p53
(lp54
I1
aI2
asV274954
p55
(lp56
I57
asV283685
p57
(lp58
I157
aI158
aI159
aI160
aI161
aI162
aI163
aI164
aI165
aI229
aI95
aI96
aI100
aI97
aI74
aI75
aI98
aI99
aI213
aI214
aI215
aI216
aI217
aI218
aI219
aI220
aI221
aI222
aI223
aI224
aI225
aI226
aI227
aI228
aI101
aI230
aI231
aI232
aI233
aI234
aI235
aI236
aI237
aI238
aI239
aI240
aI241
aI242
aI243
aI244
aI245
aI246
aI247
aI248
aI249
aI250
aI251
aI252
aI253
aI254
aI255
asV282708
p59
(lp60
I8
asV274244
p61
(lp62
I1
aI2
asV277166
p63
(lp64
I431
asV274159
p65
(lp66
I1
aI2
aI43
asV274240
p67
(lp68
I1
aI2
asV274157
p69
(lp70
I534
asV274337
p71
(lp72
I17
asV280020
p73
(lp74
I45
asV277981
p75
(lp76
I160
aI161
aI162
aI163
aI158
aI159
asV273302
p77
(lp78
I1
aI2
asV274955
p79
(lp80
I91
asV283884
p81
(lp82
I756
asV273730
p83
(lp84
I1
aI2
asV274969
p85
(lp86
I1003
asV273403
p87
(lp88
I1
aI2
asV274160
p89
(lp90
I1
aI2
asV274161
p91
(lp92
I1
aI2
asV273728
p93
(lp94
I1
aI2
asV278288
p95
(lp96
I81
asV278805
p97
(lp98
I288
asV278803
p99
(lp100
I323
asV278802
p101
(lp102
I17
asV274241
p103
(lp104
I1176
aI1
aI2
asV278769
p105
(lp106
I104
asV283946
p107
(lp108
I1462
asV274970
p109
(lp110
I47
asV276946
p111
(lp112
I27
asV276947
p113
(lp114
I141
asV276940
p115
(lp116
I213
asV276542
p117
(lp118
I857
asV276544
p119
(lp120
I161
asV275283
p121
(lp122
I132
asV278873
p123
(lp124
I129
asV283059
p125
(lp126
I451
asV273448
p127
(lp128
I1
aI2
asV273449
p129
(lp130
I1
aI2
asV273446
p131
(lp132
I1
aI2
asV273447
p133
(lp134
I1
aI2
asV277096
p135
(lp136
I2086
asV278167
p137
(lp138
I2258
asV276655
p139
(lp140
I1106
asV284029
p141
(lp142
I112
asV276775
p143
(lp144
I1260
asV275290
p145
(lp146
I143
asV275292
p147
(lp148
I121
asV273450
p149
(lp150
I1
aI2
asV274284
p151
(lp152
I1
aI2
asV279654
p153
(lp154
I1299
asV274344
p155
(lp156
I1
aI2
asV274345
p157
(lp158
I1
aI2
asV276355
p159
(lp160
I33
asV284036
p161
(lp162
I348
asV284039
p163
(lp164
I30
asV284038
p165
(lp166
I55
asV283478
p167
(lp168
I969
asV273503
p169
(lp170
I1
aI2
asV274200
p171
(lp172
I1
aI2
asV277126
p173
(lp174
I59
asV274199
p175
(lp176
I1
aI2
asV274319
p177
(lp178
I1
aI2
asV283830
p179
(lp180
I722
asV283834
p181
(lp182
I82
asV274146
p183
(lp184
I1
aI2
asV280015
p185
(lp186
I580
asV283682
p187
(lp188
I384
asV284042
p189
(lp190
I129
asV281975
p191
(lp192
I215
asV274335
p193
(lp194
I1003
asV274442
p195
(lp196
I1
aI2
asV274441
p197
(lp198
I1
aI2
asV274336
p199
(lp200
I1
aI2
aI14
asV279681
p201
(lp202
I104
asV274339
p203
(lp204
I1
aI2
asV274338
p205
(lp206
I1
aI2
aI698
asV283270
p207
(lp208
I1912
asV275282
p209
(lp210
I180
asV283820
p211
(lp212
I1548
asV281613
p213
(lp214
I112
aI113
aI238
aI108
aI237
aI110
aI109
aI240
aI241
aI114
aI115
aI116
aI117
aI118
aI119
aI120
aI121
aI122
aI111
aI239
asV274283
p215
(lp216
I2
aI19
asV275835
p217
(lp218
I13
asV275834
p219
(lp220
I297
asV274286
p221
(lp222
I1
aI2
asV279479
p223
(lp224
I190
asV276527
p225
(lp226
I214
asV277991
p227
(lp228
I96
aI97
aI98
aI90
aI91
aI92
aI93
aI94
aI95
as.