(dp0
V273402
p1
(lp2
I292
asV276585
p3
(lp4
I246
asV276586
p5
(lp6
I773
asV273406
p7
(lp8
I1
aI2
asV273404
p9
(lp10
I1
aI2
asV273403
p11
(lp12
I1
aI2
asV273408
p13
(lp14
I1
aI2
asV273409
p15
(lp16
I1
aI2
asV279766
p17
(lp18
I1689
asV273405
p19
(lp20
I2
asV279844
p21
(lp22
I295
asV273411
p23
(lp24
I1
aI2
asV273410
p25
(lp26
I1
aI2
asV274250
p27
(lp28
I1
aI2
asV274251
p29
(lp30
I1
aI2
asV274317
p31
(lp32
I1
aI2
asV274316
p33
(lp34
I1
aI2
asV274315
p35
(lp36
I1
aI2
asV281639
p37
(lp38
I132
asV277071
p39
(lp40
I178
asV274421
p41
(lp42
I1
aI2
asV274420
p43
(lp44
I268
asV274422
p45
(lp46
I1
aI2
asV273158
p47
(lp48
I1
aI2
aI1279
asV273555
p49
(lp50
I1
aI2
asV273493
p51
(lp52
I1
aI2
asV273494
p53
(lp54
I1
aI2
asV274955
p55
(lp56
I91
asV274954
p57
(lp58
I57
asV282708
p59
(lp60
I8
asV274244
p61
(lp62
I1
aI2
asV277166
p63
(lp64
I431
asV274159
p65
(lp66
I1
aI2
aI43
asV274240
p67
(lp68
I1
aI2
asV274157
p69
(lp70
I534
asV283270
p71
(lp72
I1912
asV280020
p73
(lp74
I45
asV277981
p75
(lp76
I160
aI161
aI162
aI163
aI158
aI159
asV273447
p77
(lp78
I1
aI2
asV273302
p79
(lp80
I1
aI2
asV274388
p81
(lp82
I1
aI2
asV274345
p83
(lp84
I1
aI2
asV274969
p85
(lp86
I1003
asV274160
p87
(lp88
I1
aI2
asV274161
p89
(lp90
I1
aI2
asV273728
p91
(lp92
I1
aI2
asV278288
p93
(lp94
I81
asV278805
p95
(lp96
I288
asV278803
p97
(lp98
I323
asV278802
p99
(lp100
I17
asV274241
p101
(lp102
I1176
aI1
aI2
asV278769
p103
(lp104
I104
asV283946
p105
(lp106
I1462
asV274970
p107
(lp108
I47
asV276946
p109
(lp110
I27
asV276947
p111
(lp112
I141
asV276940
p113
(lp114
I213
asV276542
p115
(lp116
I857
asV276544
p117
(lp118
I161
asV275283
p119
(lp120
I132
asV278873
p121
(lp122
I129
asV283059
p123
(lp124
I451
asV273448
p125
(lp126
I1
aI2
asV273449
p127
(lp128
I1
aI2
asV273446
p129
(lp130
I1
aI2
asV273730
p131
(lp132
I1
aI2
asV277096
p133
(lp134
I2086
asV278167
p135
(lp136
I2258
asV276655
p137
(lp138
I1106
asV284029
p139
(lp140
I112
asV276775
p141
(lp142
I1260
asV275290
p143
(lp144
I143
asV275292
p145
(lp146
I121
asV273450
p147
(lp148
I1
aI2
asV274284
p149
(lp150
I1
aI2
asV279654
p151
(lp152
I1299
asV274344
p153
(lp154
I1
aI2
asV283884
p155
(lp156
I756
asV276355
p157
(lp158
I33
asV284036
p159
(lp160
I348
asV284039
p161
(lp162
I30
asV284038
p163
(lp164
I55
asV283478
p165
(lp166
I969
asV273503
p167
(lp168
I1
aI2
asV274200
p169
(lp170
I1
aI2
asV277126
p171
(lp172
I59
asV274199
p173
(lp174
I1
aI2
asV274319
p175
(lp176
I1
aI2
asV283830
p177
(lp178
I722
asV283834
p179
(lp180
I82
asV274146
p181
(lp182
I1
aI2
asV280015
p183
(lp184
I580
asV283682
p185
(lp186
I384
asV284042
p187
(lp188
I129
asV281975
p189
(lp190
I215
asV274335
p191
(lp192
I1003
asV274442
p193
(lp194
I1
aI2
asV274337
p195
(lp196
I17
asV274336
p197
(lp198
I1
aI2
aI14
asV274441
p199
(lp200
I1
aI2
asV279681
p201
(lp202
I104
asV274339
p203
(lp204
I1
aI2
asV274338
p205
(lp206
I1
aI2
aI698
asV275282
p207
(lp208
I180
asV283820
p209
(lp210
I1548
asV274283
p211
(lp212
I2
aI19
asV275835
p213
(lp214
I13
asV275834
p215
(lp216
I297
asV274286
p217
(lp218
I1
aI2
asV279479
p219
(lp220
I190
asV276527
p221
(lp222
I214
asV277991
p223
(lp224
I96
aI97
aI98
aI90
aI91
aI92
aI93
aI94
aI95
as.